Archive member included to satisfy reference by file (symbol)

../build/output/libraries/libproxies.a(PROXY_getpid.o)
                              (getpid)
../build/output/libraries/libproxies.a(PROXY_sched_getstreams.o)
                              (sched_getstreams)
../build/output/libraries/libuc.a(lib_printf.o)
                              (printf)
../build/output/libraries/libuc.a(lib_fgetc.o)
                              (fgetc)
../build/output/libraries/libuc.a(lib_vfprintf.o)
                              ../build/output/libraries/libuc.a(lib_printf.o) (vfprintf)
../build/output/libraries/libuc.a(lib_stdoutstream.o)
                              ../build/output/libraries/libuc.a(lib_vfprintf.o) (lib_stdoutstream)
../build/output/libraries/libuc.a(lib_libnoflush.o)
                              ../build/output/libraries/libuc.a(lib_stdoutstream.o) (lib_noflush)
../build/output/libraries/libuc.a(lib_sleep.o)
                              (sleep)
../build/output/libraries/libuc.a(task_startup.o)
                              (task_startup)
../build/output/libraries/libuc.a(pthread_startup.o)
                              (pthread_startup)
../build/output/libraries/libuc.a(lib_filesem.o)
                              ../build/output/libraries/libuc.a(lib_vfprintf.o) (lib_take_semaphore)
../build/output/libraries/libuc.a(lib_libvsprintf.o)
                              ../build/output/libraries/libuc.a(lib_vfprintf.o) (lib_vsprintf)
../build/output/libraries/libuc.a(lib_libfread.o)
                              ../build/output/libraries/libuc.a(lib_fgetc.o) (lib_fread)
../build/output/libraries/libuc.a(lib_libfflush.o)
                              ../build/output/libraries/libuc.a(lib_stdoutstream.o) (lib_fflush)
../build/output/libraries/libuc.a(lib_wrflush.o)
                              ../build/output/libraries/libuc.a(lib_libfread.o) (lib_wrflush)
../build/output/libraries/libuc.a(lib_fputc.o)
                              ../build/output/libraries/libuc.a(lib_stdoutstream.o) (fputc)
../build/output/libraries/libuc.a(lib_strnlen.o)
                              ../build/output/libraries/libuc.a(lib_libvsprintf.o) (strnlen)
../build/output/libraries/libuc.a(sem_init.o)
                              ../build/output/libraries/libuc.a(lib_filesem.o) (sem_init)
../build/output/libraries/libuc.a(lib_dtoa_engine.o)
                              ../build/output/libraries/libuc.a(lib_libvsprintf.o) (__dtoa_engine)
../build/output/libraries/libuc.a(lib_ultoa_invert.o)
                              ../build/output/libraries/libuc.a(lib_libvsprintf.o) (__ultoa_invert)
../build/output/libraries/libuc.a(lib_libfwrite.o)
                              ../build/output/libraries/libuc.a(lib_fputc.o) (lib_fwrite)
../build/output/libraries/libuc.a(lib_rdflush.o)
                              ../build/output/libraries/libuc.a(lib_libfwrite.o) (lib_rdflush)
../build/output/libraries/libuc.a(lib_dtoa_data.o)
                              ../build/output/libraries/libuc.a(lib_dtoa_engine.o) (g_dtoa_round)
../build/output/libraries/libuc.a(lib_fseek.o)
                              ../build/output/libraries/libuc.a(lib_rdflush.o) (fseek)
../build/output/libraries/libuarch.a(arm_signal_handler.o)
                              (up_signal_handler)
../build/output/libraries/libframework.a(binary_manager_notify.o)
                              (binary_manager_notify_binary_started)
../build/output/libraries/libframework.a(binary_manager_interface.o)
                              ../build/output/libraries/libframework.a(binary_manager_notify.o) (binary_manager_set_request)
../build/output/libraries/libapps.a(init.o)
                              (preapp_start)
../build/output/libraries/libapps.a(builtin_list.o)
                              ../build/output/libraries/libapps.a(init.o) (register_examples_cmds)
../build/output/libraries/libapps.a(tash_command.o)
                              ../build/output/libraries/libapps.a(builtin_list.o) (tash_cmd_install)
../build/output/libraries/libapps.a(tash_sleep.o)
                              ../build/output/libraries/libapps.a(tash_command.o) (tash_sleep)
../build/output/libraries/libapps.a(tash_main.o)
                              ../build/output/libraries/libapps.a(init.o) (tash_start)
../build/output/libraries/libapps.a(mem_leak_checker_main.o)
                              ../build/output/libraries/libapps.a(builtin_list.o) (mem_leak_checker_main)
../build/output/libraries/libapps.a(sysinfo.o)
                              ../build/output/libraries/libapps.a(init.o) (sysinfo)
../build/output/libraries/libapps.a(systemcmd.o)
                              ../build/output/libraries/libapps.a(init.o) (system_register_utilcmds)
../build/output/libraries/libapps.a(security_level_cmd.o)
                              ../build/output/libraries/libapps.a(init.o) (security_level_register_utilcmds)
../build/output/libraries/libapps.a(fscmd.o)
                              ../build/output/libraries/libapps.a(init.o) (fs_register_utilcmds)
../build/output/libraries/libapps.a(netcmd.o)
                              ../build/output/libraries/libapps.a(init.o) (net_register_utilcmds)
../build/output/libraries/libapps.a(netcmd_ping.o)
                              ../build/output/libraries/libapps.a(netcmd.o) (cmd_ping6)
../build/output/libraries/libapps.a(netcmd_netmon.o)
                              ../build/output/libraries/libapps.a(netcmd.o) (cmd_netmon)
../build/output/libraries/libapps.a(netcmd_dhcpd.o)
                              ../build/output/libraries/libapps.a(netcmd.o) (cmd_dhcpd)
../build/output/libraries/libapps.a(utils_date.o)
                              ../build/output/libraries/libapps.a(systemcmd.o) (utils_date)
../build/output/libraries/libapps.a(utils_free.o)
                              ../build/output/libraries/libapps.a(systemcmd.o) (utils_free)
../build/output/libraries/libapps.a(utils_heapinfo.o)
                              ../build/output/libraries/libapps.a(systemcmd.o) (utils_heapinfo)
../build/output/libraries/libapps.a(utils_prodconfig.o)
                              ../build/output/libraries/libapps.a(systemcmd.o) (utils_prodconfig)
../build/output/libraries/libapps.a(utils_ps.o)
                              ../build/output/libraries/libapps.a(systemcmd.o) (utils_ps)
../build/output/libraries/libapps.a(utils_uptime.o)
                              ../build/output/libraries/libapps.a(systemcmd.o) (utils_uptime)
../build/output/libraries/libapps.a(utils_proc.o)
                              ../build/output/libraries/libapps.a(utils_heapinfo.o) (utils_proc_pid_foreach)
../build/output/libraries/libapps.a(helloxx_main.o)
                              ../build/output/libraries/libapps.a(builtin_list.o) (helloxx_main)
../build/output/libraries/libapps.a(hello_main.o)
                              ../build/output/libraries/libapps.a(builtin_list.o) (hello_main)
../build/output/libraries/libapps.a(tash_init.o)
                              ../build/output/libraries/libapps.a(tash_main.o) (tash_init)
../build/output/libraries/libapps.a(tash_pm.o)
                              ../build/output/libraries/libapps.a(tash_main.o) (tash_pm_open_driver)
../build/output/libraries/libapps.a(netdb_main.o)
                              ../build/output/libraries/libapps.a(netcmd.o) (netdb_main)
../build/output/libraries/libapps.a(fs_getpath.o)
                              ../build/output/libraries/libapps.a(fscmd.o) (getwd)
/bin/../lib/gcc/arm-none-eabi/10.3.1/thumb/v8-a+simd/hard/libgcc.a(_arm_addsubdf3.o)
                              ../build/output/libraries/libapps.a(utils_uptime.o) (__aeabi_ul2d)
/bin/../lib/gcc/arm-none-eabi/10.3.1/thumb/v8-a+simd/hard/libgcc.a(_aeabi_ldivmod.o)
                              ../build/output/libraries/libuc.a(lib_dtoa_engine.o) (__aeabi_ldivmod)
/bin/../lib/gcc/arm-none-eabi/10.3.1/thumb/v8-a+simd/hard/libgcc.a(_aeabi_uldivmod.o)
                              ../build/output/libraries/libuc.a(lib_dtoa_engine.o) (__aeabi_uldivmod)
/bin/../lib/gcc/arm-none-eabi/10.3.1/thumb/v8-a+simd/hard/libgcc.a(_fixunsdfdi.o)
                              ../build/output/libraries/libuc.a(lib_dtoa_engine.o) (__aeabi_d2ulz)
/bin/../lib/gcc/arm-none-eabi/10.3.1/thumb/v8-a+simd/hard/libgcc.a(_udivmoddi4.o)
                              /bin/../lib/gcc/arm-none-eabi/10.3.1/thumb/v8-a+simd/hard/libgcc.a(_aeabi_ldivmod.o) (__udivmoddi4)
/bin/../lib/gcc/arm-none-eabi/10.3.1/thumb/v8-a+simd/hard/libgcc.a(unwind-arm.o)
                              ../build/output/libraries/libapps.a(helloxx_main.o) (__aeabi_unwind_cpp_pr0)
/bin/../lib/gcc/arm-none-eabi/10.3.1/thumb/v8-a+simd/hard/libgcc.a(libunwind.o)
                              /bin/../lib/gcc/arm-none-eabi/10.3.1/thumb/v8-a+simd/hard/libgcc.a(unwind-arm.o) (restore_core_regs)
/bin/../lib/gcc/arm-none-eabi/10.3.1/thumb/v8-a+simd/hard/libgcc.a(pr-support.o)
                              /bin/../lib/gcc/arm-none-eabi/10.3.1/thumb/v8-a+simd/hard/libgcc.a(unwind-arm.o) (__gnu_unwind_execute)
/bin/../lib/gcc/arm-none-eabi/10.3.1/thumb/v8-a+simd/hard/libgcc.a(_dvmd_tls.o)
                              /bin/../lib/gcc/arm-none-eabi/10.3.1/thumb/v8-a+simd/hard/libgcc.a(_aeabi_ldivmod.o) (__aeabi_ldiv0)
/bin/../lib/gcc/arm-none-eabi/10.3.1/../../../../arm-none-eabi/lib/thumb/v8-a+simd/hard/libsupc++.a(atexit_arm.o)
                              ../build/output/libraries/libapps.a(helloxx_main.o) (__aeabi_atexit)
/bin/../lib/gcc/arm-none-eabi/10.3.1/../../../../arm-none-eabi/lib/thumb/v8-a+simd/hard/libsupc++.a(del_op.o)
                              ../build/output/libraries/libapps.a(helloxx_main.o) (operator delete(void*))
/bin/../lib/gcc/arm-none-eabi/10.3.1/../../../../arm-none-eabi/lib/thumb/v8-a+simd/hard/libsupc++.a(new_op.o)
                              ../build/output/libraries/libapps.a(helloxx_main.o) (operator new(unsigned int))
/bin/../lib/gcc/arm-none-eabi/10.3.1/../../../../arm-none-eabi/lib/thumb/v8-a+simd/hard/libsupc++.a(bad_alloc.o)
                              /bin/../lib/gcc/arm-none-eabi/10.3.1/../../../../arm-none-eabi/lib/thumb/v8-a+simd/hard/libsupc++.a(new_op.o) (std::bad_alloc::~bad_alloc())
/bin/../lib/gcc/arm-none-eabi/10.3.1/../../../../arm-none-eabi/lib/thumb/v8-a+simd/hard/libsupc++.a(del_ops.o)
                              /bin/../lib/gcc/arm-none-eabi/10.3.1/../../../../arm-none-eabi/lib/thumb/v8-a+simd/hard/libsupc++.a(bad_alloc.o) (operator delete(void*, unsigned int))
/bin/../lib/gcc/arm-none-eabi/10.3.1/../../../../arm-none-eabi/lib/thumb/v8-a+simd/hard/libsupc++.a(eh_alloc.o)
                              /bin/../lib/gcc/arm-none-eabi/10.3.1/../../../../arm-none-eabi/lib/thumb/v8-a+simd/hard/libsupc++.a(new_op.o) (__cxa_allocate_exception)
/bin/../lib/gcc/arm-none-eabi/10.3.1/../../../../arm-none-eabi/lib/thumb/v8-a+simd/hard/libsupc++.a(eh_exception.o)
                              /bin/../lib/gcc/arm-none-eabi/10.3.1/../../../../arm-none-eabi/lib/thumb/v8-a+simd/hard/libsupc++.a(bad_alloc.o) (std::exception::~exception())
/bin/../lib/gcc/arm-none-eabi/10.3.1/../../../../arm-none-eabi/lib/thumb/v8-a+simd/hard/libsupc++.a(eh_terminate.o)
                              /bin/../lib/gcc/arm-none-eabi/10.3.1/../../../../arm-none-eabi/lib/thumb/v8-a+simd/hard/libsupc++.a(eh_alloc.o) (std::terminate())
/bin/../lib/gcc/arm-none-eabi/10.3.1/../../../../arm-none-eabi/lib/thumb/v8-a+simd/hard/libsupc++.a(eh_throw.o)
                              /bin/../lib/gcc/arm-none-eabi/10.3.1/../../../../arm-none-eabi/lib/thumb/v8-a+simd/hard/libsupc++.a(new_op.o) (__cxa_throw)
/bin/../lib/gcc/arm-none-eabi/10.3.1/../../../../arm-none-eabi/lib/thumb/v8-a+simd/hard/libsupc++.a(eh_unex_handler.o)
                              /bin/../lib/gcc/arm-none-eabi/10.3.1/../../../../arm-none-eabi/lib/thumb/v8-a+simd/hard/libsupc++.a(eh_terminate.o) (__cxxabiv1::__unexpected_handler)
/bin/../lib/gcc/arm-none-eabi/10.3.1/../../../../arm-none-eabi/lib/thumb/v8-a+simd/hard/libsupc++.a(new_handler.o)
                              /bin/../lib/gcc/arm-none-eabi/10.3.1/../../../../arm-none-eabi/lib/thumb/v8-a+simd/hard/libsupc++.a(new_op.o) (std::get_new_handler())
/bin/../lib/gcc/arm-none-eabi/10.3.1/../../../../arm-none-eabi/lib/thumb/v8-a+simd/hard/libsupc++.a(pure.o)
                              /bin/../lib/gcc/arm-none-eabi/10.3.1/../../../../arm-none-eabi/lib/thumb/v8-a+simd/hard/libsupc++.a(eh_exception.o) (__cxa_pure_virtual)
/bin/../lib/gcc/arm-none-eabi/10.3.1/../../../../arm-none-eabi/lib/thumb/v8-a+simd/hard/libsupc++.a(si_class_type_info.o)
                              /bin/../lib/gcc/arm-none-eabi/10.3.1/../../../../arm-none-eabi/lib/thumb/v8-a+simd/hard/libsupc++.a(bad_alloc.o) (vtable for __cxxabiv1::__si_class_type_info)
/bin/../lib/gcc/arm-none-eabi/10.3.1/../../../../arm-none-eabi/lib/thumb/v8-a+simd/hard/libsupc++.a(tinfo.o)
                              /bin/../lib/gcc/arm-none-eabi/10.3.1/../../../../arm-none-eabi/lib/thumb/v8-a+simd/hard/libsupc++.a(si_class_type_info.o) (std::type_info::__is_pointer_p() const)
/bin/../lib/gcc/arm-none-eabi/10.3.1/../../../../arm-none-eabi/lib/thumb/v8-a+simd/hard/libsupc++.a(vterminate.o)
                              /bin/../lib/gcc/arm-none-eabi/10.3.1/../../../../arm-none-eabi/lib/thumb/v8-a+simd/hard/libsupc++.a(eh_terminate.o) (__gnu_cxx::__verbose_terminate_handler())
/bin/../lib/gcc/arm-none-eabi/10.3.1/../../../../arm-none-eabi/lib/thumb/v8-a+simd/hard/libsupc++.a(cp-demangle.o)
                              /bin/../lib/gcc/arm-none-eabi/10.3.1/../../../../arm-none-eabi/lib/thumb/v8-a+simd/hard/libsupc++.a(vterminate.o) (__cxa_demangle)
/bin/../lib/gcc/arm-none-eabi/10.3.1/../../../../arm-none-eabi/lib/thumb/v8-a+simd/hard/libsupc++.a(class_type_info.o)
                              /bin/../lib/gcc/arm-none-eabi/10.3.1/../../../../arm-none-eabi/lib/thumb/v8-a+simd/hard/libsupc++.a(si_class_type_info.o) (__cxxabiv1::__class_type_info::__do_upcast(__cxxabiv1::__class_type_info const*, void**) const)
/bin/../lib/gcc/arm-none-eabi/10.3.1/../../../../arm-none-eabi/lib/thumb/v8-a+simd/hard/libsupc++.a(eh_arm.o)
                              /bin/../lib/gcc/arm-none-eabi/10.3.1/../../../../arm-none-eabi/lib/thumb/v8-a+simd/hard/libsupc++.a(eh_terminate.o) (__cxa_end_cleanup)
/bin/../lib/gcc/arm-none-eabi/10.3.1/../../../../arm-none-eabi/lib/thumb/v8-a+simd/hard/libsupc++.a(eh_call.o)
                              /bin/../lib/gcc/arm-none-eabi/10.3.1/../../../../arm-none-eabi/lib/thumb/v8-a+simd/hard/libsupc++.a(eh_terminate.o) (__cxa_call_unexpected)
/bin/../lib/gcc/arm-none-eabi/10.3.1/../../../../arm-none-eabi/lib/thumb/v8-a+simd/hard/libsupc++.a(eh_catch.o)
                              /bin/../lib/gcc/arm-none-eabi/10.3.1/../../../../arm-none-eabi/lib/thumb/v8-a+simd/hard/libsupc++.a(eh_terminate.o) (__cxa_begin_catch)
/bin/../lib/gcc/arm-none-eabi/10.3.1/../../../../arm-none-eabi/lib/thumb/v8-a+simd/hard/libsupc++.a(eh_globals.o)
                              /bin/../lib/gcc/arm-none-eabi/10.3.1/../../../../arm-none-eabi/lib/thumb/v8-a+simd/hard/libsupc++.a(eh_call.o) (__cxa_get_globals_fast)
/bin/../lib/gcc/arm-none-eabi/10.3.1/../../../../arm-none-eabi/lib/thumb/v8-a+simd/hard/libsupc++.a(eh_personality.o)
                              /bin/../lib/gcc/arm-none-eabi/10.3.1/../../../../arm-none-eabi/lib/thumb/v8-a+simd/hard/libsupc++.a(eh_terminate.o) (__gxx_personality_v0)
/bin/../lib/gcc/arm-none-eabi/10.3.1/../../../../arm-none-eabi/lib/thumb/v8-a+simd/hard/libsupc++.a(eh_term_handler.o)
                              /bin/../lib/gcc/arm-none-eabi/10.3.1/../../../../arm-none-eabi/lib/thumb/v8-a+simd/hard/libsupc++.a(eh_terminate.o) (__cxxabiv1::__terminate_handler)
/bin/../lib/gcc/arm-none-eabi/10.3.1/../../../../arm-none-eabi/lib/thumb/v8-a+simd/hard/libsupc++.a(eh_type.o)
                              /bin/../lib/gcc/arm-none-eabi/10.3.1/../../../../arm-none-eabi/lib/thumb/v8-a+simd/hard/libsupc++.a(vterminate.o) (__cxa_current_exception_type)
../build/output/libraries/libproxies.a(PROXY_boardctl.o)
                              ../build/output/libraries/libapps.a(tash_command.o) (boardctl)
../build/output/libraries/libproxies.a(PROXY_clock.o)
                              ../build/output/libraries/libapps.a(utils_uptime.o) (clock)
../build/output/libraries/libproxies.a(PROXY_clock_gettime.o)
                              ../build/output/libraries/libapps.a(netcmd_ping.o) (clock_gettime)
../build/output/libraries/libproxies.a(PROXY_clock_settime.o)
                              ../build/output/libraries/libapps.a(utils_date.o) (clock_settime)
../build/output/libraries/libproxies.a(PROXY_close.o)
                              ../build/output/libraries/libapps.a(tash_command.o) (close)
../build/output/libraries/libproxies.a(PROXY_closedir.o)
                              ../build/output/libraries/libapps.a(fscmd.o) (closedir)
../build/output/libraries/libproxies.a(PROXY_exit.o)
                              ../build/output/libraries/libuc.a(task_startup.o) (exit)
../build/output/libraries/libproxies.a(PROXY_get_errno.o)
                              ../build/output/libraries/libuc.a(lib_stdoutstream.o) (get_errno)
../build/output/libraries/libproxies.a(PROXY_getenv.o)
                              ../build/output/libraries/libapps.a(fs_getpath.o) (getenv)
../build/output/libraries/libproxies.a(PROXY_lseek.o)
                              ../build/output/libraries/libuc.a(lib_fseek.o) (lseek)
../build/output/libraries/libproxies.a(PROXY_mkdir.o)
                              ../build/output/libraries/libapps.a(fscmd.o) (mkdir)
../build/output/libraries/libproxies.a(PROXY_mount.o)
                              ../build/output/libraries/libapps.a(fscmd.o) (mount)
../build/output/libraries/libproxies.a(PROXY_mq_close.o)
                              ../build/output/libraries/libframework.a(binary_manager_interface.o) (mq_close)
../build/output/libraries/libproxies.a(PROXY_mq_open.o)
                              ../build/output/libraries/libframework.a(binary_manager_interface.o) (mq_open)
../build/output/libraries/libproxies.a(PROXY_mq_receive.o)
                              ../build/output/libraries/libframework.a(binary_manager_interface.o) (mq_receive)
../build/output/libraries/libproxies.a(PROXY_mq_send.o)
                              ../build/output/libraries/libframework.a(binary_manager_interface.o) (mq_send)
../build/output/libraries/libproxies.a(PROXY_mq_unlink.o)
                              ../build/output/libraries/libframework.a(binary_manager_interface.o) (mq_unlink)
../build/output/libraries/libproxies.a(PROXY_nanosleep.o)
                              ../build/output/libraries/libuc.a(lib_sleep.o) (nanosleep)
../build/output/libraries/libproxies.a(PROXY_open.o)
                              ../build/output/libraries/libapps.a(tash_command.o) (open)
../build/output/libraries/libproxies.a(PROXY_opendir.o)
                              ../build/output/libraries/libapps.a(fscmd.o) (opendir)
../build/output/libraries/libproxies.a(PROXY_prctl.o)
                              ../build/output/libraries/libapps.a(tash_command.o) (prctl)
../build/output/libraries/libproxies.a(PROXY_pthread_exit.o)
                              ../build/output/libraries/libuc.a(pthread_startup.o) (pthread_exit)
../build/output/libraries/libproxies.a(PROXY_pthread_mutex_lock.o)
                              ../build/output/libraries/libapps.a(tash_command.o) (pthread_mutex_lock)
../build/output/libraries/libproxies.a(PROXY_pthread_mutex_unlock.o)
                              ../build/output/libraries/libapps.a(tash_command.o) (pthread_mutex_unlock)
../build/output/libraries/libproxies.a(PROXY_read.o)
                              ../build/output/libraries/libuc.a(lib_libfread.o) (read)
../build/output/libraries/libproxies.a(PROXY_readdir.o)
                              ../build/output/libraries/libapps.a(fscmd.o) (readdir)
../build/output/libraries/libproxies.a(PROXY_recvfrom.o)
                              ../build/output/libraries/libapps.a(netcmd_ping.o) (recvfrom)
../build/output/libraries/libproxies.a(PROXY_rename.o)
                              ../build/output/libraries/libapps.a(fscmd.o) (rename)
../build/output/libraries/libproxies.a(PROXY_rmdir.o)
                              ../build/output/libraries/libapps.a(fscmd.o) (rmdir)
../build/output/libraries/libproxies.a(PROXY_select.o)
                              ../build/output/libraries/libapps.a(tash_main.o) (select)
../build/output/libraries/libproxies.a(PROXY_sem_post.o)
                              ../build/output/libraries/libuc.a(lib_filesem.o) (sem_post)
../build/output/libraries/libproxies.a(PROXY_sem_wait.o)
                              ../build/output/libraries/libuc.a(lib_filesem.o) (sem_wait)
../build/output/libraries/libproxies.a(PROXY_sendto.o)
                              ../build/output/libraries/libapps.a(netcmd_ping.o) (sendto)
../build/output/libraries/libproxies.a(PROXY_set_errno.o)
                              ../build/output/libraries/libuc.a(lib_libfread.o) (set_errno)
../build/output/libraries/libproxies.a(PROXY_setsockopt.o)
                              ../build/output/libraries/libapps.a(netcmd_ping.o) (setsockopt)
../build/output/libraries/libproxies.a(PROXY_socket.o)
                              ../build/output/libraries/libapps.a(netcmd.o) (socket)
../build/output/libraries/libproxies.a(PROXY_stat.o)
                              ../build/output/libraries/libapps.a(fscmd.o) (stat)
../build/output/libraries/libproxies.a(PROXY_statfs.o)
                              ../build/output/libraries/libapps.a(fscmd.o) (statfs)
../build/output/libraries/libproxies.a(PROXY_task_create.o)
                              ../build/output/libraries/libapps.a(tash_command.o) (task_create)
../build/output/libraries/libproxies.a(PROXY_umount.o)
                              ../build/output/libraries/libapps.a(fscmd.o) (umount)
../build/output/libraries/libproxies.a(PROXY_unlink.o)
                              ../build/output/libraries/libapps.a(fscmd.o) (unlink)
../build/output/libraries/libproxies.a(PROXY_up_assert.o)
                              ../build/output/libraries/libuc.a(lib_stdoutstream.o) (up_assert)
../build/output/libraries/libproxies.a(PROXY_write.o)
                              ../build/output/libraries/libuc.a(lib_libfflush.o) (write)
../build/output/libraries/libuc.a(lib_sprintf.o)
                              /bin/../lib/gcc/arm-none-eabi/10.3.1/../../../../arm-none-eabi/lib/thumb/v8-a+simd/hard/libsupc++.a(cp-demangle.o) (sprintf)
../build/output/libraries/libuc.a(lib_asprintf.o)
                              ../build/output/libraries/libapps.a(utils_heapinfo.o) (asprintf)
../build/output/libraries/libuc.a(lib_snprintf.o)
                              ../build/output/libraries/libframework.a(binary_manager_interface.o) (snprintf)
../build/output/libraries/libuc.a(lib_vasprintf.o)
                              ../build/output/libraries/libuc.a(lib_asprintf.o) (vasprintf)
../build/output/libraries/libuc.a(lib_memoutstream.o)
                              ../build/output/libraries/libuc.a(lib_sprintf.o) (lib_memoutstream)
../build/output/libraries/libuc.a(lib_nulloutstream.o)
                              ../build/output/libraries/libuc.a(lib_snprintf.o) (lib_nulloutstream)
../build/output/libraries/libuc.a(lib_fwrite.o)
                              /bin/../lib/gcc/arm-none-eabi/10.3.1/../../../../arm-none-eabi/lib/thumb/v8-a+simd/hard/libsupc++.a(vterminate.o) (fwrite)
../build/output/libraries/libuc.a(lib_fputs.o)
                              /bin/../lib/gcc/arm-none-eabi/10.3.1/../../../../arm-none-eabi/lib/thumb/v8-a+simd/hard/libsupc++.a(vterminate.o) (fputs)
../build/output/libraries/libuc.a(lib_fprintf.o)
                              ../build/output/libraries/libapps.a(netdb_main.o) (fprintf)
../build/output/libraries/libuc.a(lib_perror.o)
                              ../build/output/libraries/libapps.a(netcmd.o) (perror)
../build/output/libraries/libuc.a(lib_abort.o)
                              /bin/../lib/gcc/arm-none-eabi/10.3.1/thumb/v8-a+simd/hard/libgcc.a(unwind-arm.o) (abort)
../build/output/libraries/libuc.a(lib_strtol.o)
                              ../build/output/libraries/libapps.a(tash_command.o) (strtol)
../build/output/libraries/libuc.a(lib_strtoul.o)
                              ../build/output/libraries/libuc.a(lib_strtol.o) (strtoul)
../build/output/libraries/libuc.a(lib_checkbase.o)
                              ../build/output/libraries/libuc.a(lib_strtoul.o) (lib_checkbase)
../build/output/libraries/libuc.a(lib_getopt.o)
                              ../build/output/libraries/libapps.a(fscmd.o) (getopt)
../build/output/libraries/libuc.a(lib_chdir.o)
                              ../build/output/libraries/libapps.a(fscmd.o) (chdir)
../build/output/libraries/libuc.a(lib_usleep.o)
                              ../build/output/libraries/libapps.a(tash_main.o) (usleep)
../build/output/libraries/libuc.a(lib_syslog.o)
                              ../build/output/libraries/libframework.a(binary_manager_notify.o) (syslog)
../build/output/libraries/libuc.a(lib_setlogmask.o)
                              ../build/output/libraries/libuc.a(lib_syslog.o) (g_syslog_mask)
../build/output/libraries/libuc.a(lib_isbasedigit.o)
                              ../build/output/libraries/libuc.a(lib_strtoul.o) (lib_isbasedigit)
../build/output/libraries/libuc.a(lib_memset.o)
                              ../build/output/libraries/libapps.a(tash_main.o) (memset)
../build/output/libraries/libuc.a(lib_memcmp.o)
                              /bin/../lib/gcc/arm-none-eabi/10.3.1/../../../../arm-none-eabi/lib/thumb/v8-a+simd/hard/libsupc++.a(cp-demangle.o) (memcmp)
../build/output/libraries/libuc.a(lib_memmove.o)
                              ../build/output/libraries/libapps.a(tash_command.o) (memmove)
../build/output/libraries/libuc.a(lib_skipspace.o)
                              ../build/output/libraries/libuc.a(lib_strtol.o) (lib_skipspace)
../build/output/libraries/libuc.a(lib_strchr.o)
                              ../build/output/libraries/libuc.a(lib_getopt.o) (strchr)
../build/output/libraries/libuc.a(lib_strcmp.o)
                              ../build/output/libraries/libapps.a(tash_command.o) (strcmp)
../build/output/libraries/libuc.a(lib_strdup.o)
                              ../build/output/libraries/libapps.a(fscmd.o) (strdup)
../build/output/libraries/libuc.a(lib_strerror.o)
                              ../build/output/libraries/libuc.a(lib_perror.o) (strerror)
../build/output/libraries/libuc.a(lib_strlen.o)
                              ../build/output/libraries/libapps.a(tash_command.o) (strlen)
../build/output/libraries/libuc.a(lib_strncasecmp.o)
                              ../build/output/libraries/libapps.a(utils_date.o) (strncasecmp)
../build/output/libraries/libuc.a(lib_strncmp.o)
                              ../build/output/libraries/libapps.a(tash_command.o) (strncmp)
../build/output/libraries/libuc.a(lib_strncpy.o)
                              ../build/output/libraries/libapps.a(tash_command.o) (strncpy)
../build/output/libraries/libuc.a(lib_strstr.o)
                              ../build/output/libraries/libapps.a(netcmd.o) (strstr)
../build/output/libraries/libuc.a(lib_strtokr.o)
                              ../build/output/libraries/libapps.a(utils_date.o) (strtok_r)
../build/output/libraries/libuc.a(lib_vikmemcpy.o)
                              ../build/output/libraries/libapps.a(tash_command.o) (memcpy)
../build/output/libraries/libuc.a(lib_etherntoa.o)
                              ../build/output/libraries/libapps.a(netcmd.o) (ether_ntoa)
../build/output/libraries/libuc.a(lib_inetaddr.o)
                              ../build/output/libraries/libapps.a(netcmd.o) (inet_addr)
../build/output/libraries/libuc.a(lib_inetntoa.o)
                              ../build/output/libraries/libapps.a(netcmd.o) (inet_ntoa)
../build/output/libraries/libuc.a(lib_inetntop.o)
                              ../build/output/libraries/libapps.a(netcmd.o) (inet_ntop)
../build/output/libraries/libuc.a(lib_inetpton.o)
                              ../build/output/libraries/libapps.a(netcmd.o) (inet_pton)
../build/output/libraries/libuc.a(lib_freeaddrinfo.o)
                              ../build/output/libraries/libapps.a(netcmd_ping.o) (freeaddrinfo)
../build/output/libraries/libuc.a(lib_getaddrinfo.o)
                              ../build/output/libraries/libapps.a(netcmd_ping.o) (getaddrinfo)
../build/output/libraries/libuc.a(lib_gethostbyname.o)
                              ../build/output/libraries/libapps.a(netdb_main.o) (gethostbyname)
../build/output/libraries/libuc.a(lib_strftime.o)
                              ../build/output/libraries/libapps.a(sysinfo.o) (strftime)
../build/output/libraries/libuc.a(lib_daysbeforemonth.o)
                              ../build/output/libraries/libuc.a(lib_strftime.o) (clock_daysbeforemonth)
../build/output/libraries/libuc.a(lib_isleapyear.o)
                              ../build/output/libraries/libapps.a(utils_date.o) (clock_isleapyear)
../build/output/libraries/libuc.a(lib_time.o)
                              ../build/output/libraries/libapps.a(sysinfo.o) (time)
../build/output/libraries/libuc.a(lib_localtime.o)
                              ../build/output/libraries/libapps.a(sysinfo.o) (localtime)
../build/output/libraries/libuc.a(lib_dirname.o)
                              ../build/output/libraries/libapps.a(fscmd.o) (dirname)
../build/output/libraries/libuc.a(lib_ioctl.o)
                              ../build/output/libraries/libapps.a(tash_command.o) (ioctl)
../build/output/libraries/libuc.a(lib_sscanf.o)
                              ../build/output/libraries/libuc.a(lib_inetaddr.o) (sscanf)
../build/output/libraries/libuc.a(lib_rawoutstream.o)
                              ../build/output/libraries/libuc.a(lib_syslog.o) (lib_rawoutstream)
../build/output/libraries/libuc.a(lib_strtoll.o)
                              ../build/output/libraries/libuc.a(lib_sscanf.o) (strtoll)
../build/output/libraries/libuc.a(lib_strtoull.o)
                              ../build/output/libraries/libuc.a(lib_sscanf.o) (strtoull)
../build/output/libraries/libuc.a(lib_strtod.o)
                              ../build/output/libraries/libuc.a(lib_sscanf.o) (strtod)
../build/output/libraries/libuc.a(lib_strtof.o)
                              ../build/output/libraries/libuc.a(lib_sscanf.o) (strtof)
../build/output/libraries/libuc.a(lib_access.o)
                              ../build/output/libraries/libuc.a(lib_localtime.o) (access)
../build/output/libraries/libuc.a(lib_strcspn.o)
                              ../build/output/libraries/libuc.a(lib_sscanf.o) (strcspn)
../build/output/libraries/libuc.a(lib_strncat.o)
                              ../build/output/libraries/libuc.a(lib_localtime.o) (strncat)
../build/output/libraries/libuc.a(lib_strrchr.o)
                              ../build/output/libraries/libuc.a(lib_dirname.o) (strrchr)
../build/output/libraries/libuc.a(lib_htons.o)
                              ../build/output/libraries/libuc.a(lib_inetntop.o) (ntohs)
../build/output/libraries/libumm.a(mm_heapinfo_utils.o)
                              ../build/output/libraries/libuc.a(lib_asprintf.o) (heapinfo_set_caller_addr)
../build/output/libraries/libumm.a(umm_free.o)
                              ../build/output/libraries/libapps.a(tash_command.o) (free)
../build/output/libraries/libumm.a(umm_malloc.o)
                              ../build/output/libraries/libapps.a(tash_command.o) (malloc)
../build/output/libraries/libumm.a(umm_realloc.o)
                              ../build/output/libraries/libapps.a(tash_command.o) (realloc)
../build/output/libraries/libumm.a(umm_zalloc.o)
                              ../build/output/libraries/libapps.a(tash_command.o) (zalloc)
../build/output/libraries/libumm.a(mm_sem.o)
                              ../build/output/libraries/libumm.a(mm_heapinfo_utils.o) (mm_takesemaphore)
../build/output/libraries/libumm.a(mm_free.o)
                              ../build/output/libraries/libumm.a(umm_free.o) (mm_free)
../build/output/libraries/libumm.a(mm_malloc.o)
                              ../build/output/libraries/libumm.a(umm_malloc.o) (mm_malloc)
../build/output/libraries/libumm.a(mm_realloc.o)
                              ../build/output/libraries/libumm.a(umm_realloc.o) (mm_realloc)
../build/output/libraries/libumm.a(mm_zalloc.o)
                              ../build/output/libraries/libumm.a(umm_zalloc.o) (mm_zalloc)
../build/output/libraries/libumm.a(mm_getheap.o)
                              ../build/output/libraries/libumm.a(mm_heapinfo_utils.o) (mm_get_heap)
../build/output/libraries/libumm.a(mm_manage_allocfail.o)
                              ../build/output/libraries/libumm.a(umm_malloc.o) (mm_ioctl_alloc_fail)
../build/output/libraries/libumm.a(mm_heap_dbg.o)
                              ../build/output/libraries/libumm.a(mm_heapinfo_utils.o) (mm_dump_heap_region)
../build/output/libraries/libumm.a(umm_initialize.o)
                              ../build/output/libraries/libumm.a(umm_malloc.o) (g_app_heap_table)
../build/output/libraries/libumm.a(mm_initialize.o)
                              ../build/output/libraries/libumm.a(umm_initialize.o) (mm_initialize)
../build/output/libraries/libumm.a(mm_addfreechunk.o)
                              ../build/output/libraries/libumm.a(mm_free.o) (mm_addfreechunk)
../build/output/libraries/libumm.a(mm_size2ndx.o)
                              ../build/output/libraries/libumm.a(mm_malloc.o) (mm_size2ndx)
../build/output/libraries/libumm.a(mm_shrinkchunk.o)
                              ../build/output/libraries/libumm.a(mm_realloc.o) (mm_shrinkchunk)
../build/output/libraries/libuwque.a(uwork_thread.o)
                              ../build/output/libraries/libapps.a(init.o) (work_usrstart)
../build/output/libraries/libuwque.a(work_process.o)
                              ../build/output/libraries/libuwque.a(uwork_thread.o) (work_process)
../build/output/libraries/libuwque.a(uwork_lock.o)
                              ../build/output/libraries/libuwque.a(work_process.o) (work_lock)
../build/output/libraries/libframework.a(wifi_manager_msghandler.o)
                              ../build/output/libraries/libapps.a(init.o) (wifimgr_run_msghandler)
../build/output/libraries/libframework.a(security_common.o)
                              ../build/output/libraries/libapps.a(security_level_cmd.o) (security_init)
../build/output/libraries/libframework.a(security_utils.o)
                              ../build/output/libraries/libframework.a(security_common.o) (secutils_convert_error_h2s)
../build/output/libraries/libframework.a(security_ss.o)
                              ../build/output/libraries/libapps.a(security_level_cmd.o) (ss_read_secure_storage)
../build/output/libraries/libframework.a(ble_manager_msghandler.o)
                              ../build/output/libraries/libapps.a(init.o) (blemgr_run_msghandler)
../build/output/libraries/libframework.a(seclink.o)
                              ../build/output/libraries/libframework.a(security_common.o) (sl_init)
../build/output/libraries/libframework.a(wifi_manager_message.o)
                              ../build/output/libraries/libframework.a(wifi_manager_msghandler.o) (wifimgr_message_in)
../build/output/libraries/libframework.a(wifi_manager_state.o)
                              ../build/output/libraries/libframework.a(wifi_manager_message.o) (wifimgr_handle_request)
../build/output/libraries/libframework.a(wifi_manager_stats.o)
                              ../build/output/libraries/libframework.a(wifi_manager_state.o) (wifimgr_inc_stats)
../build/output/libraries/libframework.a(wifi_manager_event.o)
                              ../build/output/libraries/libframework.a(wifi_manager_state.o) (wifimgr_get_evt_str)
../build/output/libraries/libframework.a(wifi_manager_utils.o)
                              ../build/output/libraries/libframework.a(wifi_manager_state.o) (wifimgr_convert2wifimgr_res)
../build/output/libraries/libframework.a(wifi_manager_info.o)
                              ../build/output/libraries/libframework.a(wifi_manager_state.o) (wifimgr_set_info)
../build/output/libraries/libframework.a(wifi_manager_dhcpc.o)
                              ../build/output/libraries/libframework.a(wifi_manager_state.o) (dhcpc_get_ipaddr)
../build/output/libraries/libframework.a(wifi_manager_dhcps.o)
                              ../build/output/libraries/libframework.a(wifi_manager_state.o) (dhcps_inc_num)
../build/output/libraries/libframework.a(wifi_manager_lwnl.o)
                              ../build/output/libraries/libframework.a(wifi_manager_state.o) (wifi_utils_init)
../build/output/libraries/libframework.a(wifi_manager_lwnl_listener.o)
                              ../build/output/libraries/libframework.a(wifi_manager_message.o) (lwnl_fetch_event)
../build/output/libraries/libframework.a(ble_manager_message.o)
                              ../build/output/libraries/libframework.a(ble_manager_msghandler.o) (blemgr_message_in)
../build/output/libraries/libframework.a(wifi_manager_cb.o)
                              ../build/output/libraries/libframework.a(wifi_manager_state.o) (wifimgr_register_cb)
../build/output/libraries/libframework.a(ble_manager_lwnl_listener.o)
                              ../build/output/libraries/libframework.a(ble_manager_message.o) (lwnl_fetch_ble_event)
../build/output/libraries/libframework.a(ble_manager_state.o)
                              ../build/output/libraries/libframework.a(ble_manager_message.o) (blemgr_handle_request)
../build/output/libraries/libframework.a(ble_manager_autoconnect.o)
                              ../build/output/libraries/libframework.a(ble_manager_state.o) (ble_manager_autoconnect)
../build/output/libraries/libframework.a(ble_queue.o)
                              ../build/output/libraries/libframework.a(ble_manager_state.o) (ble_queue_init)
../build/output/libraries/libframework.a(ble_manager_api.o)
                              ../build/output/libraries/libframework.a(ble_manager_autoconnect.o) (ble_client_start_scan)
../build/output/libraries/libframework.a(ble_manager_lwnl.o)
                              ../build/output/libraries/libframework.a(ble_manager_state.o) (ble_drv_init)
../build/output/libraries/libcxx.a(libxx_newlib_impure.o)
                              /bin/../lib/gcc/arm-none-eabi/10.3.1/../../../../arm-none-eabi/lib/thumb/v8-a+simd/hard/libsupc++.a(vterminate.o) (_impure_ptr)
../build/output/libraries/libcxx.a(libxx_cxa_atexit.o)
                              /bin/../lib/gcc/arm-none-eabi/10.3.1/../../../../arm-none-eabi/lib/thumb/v8-a+simd/hard/libsupc++.a(atexit_arm.o) (__cxa_atexit)
../build/output/libraries/libexternal.a(netlib.o)
                              ../build/output/libraries/libapps.a(netcmd.o) (netlib_hwmacconv)
../build/output/libraries/libexternal.a(netlib_setifstatus.o)
                              ../build/output/libraries/libapps.a(netcmd.o) (netlib_ifup)
../build/output/libraries/libexternal.a(netlib_getifstatus.o)
                              ../build/output/libraries/libapps.a(netcmd_dhcpd.o) (netlib_getifstatus)
../build/output/libraries/libexternal.a(netlib_getifaddrs.o)
                              ../build/output/libraries/libapps.a(netcmd.o) (netlib_getifaddrs)
../build/output/libraries/libexternal.a(netlib_getstats.o)
                              ../build/output/libraries/libapps.a(netcmd_netmon.o) (netlib_getstats)
../build/output/libraries/libexternal.a(netlib_netmon.o)
                              ../build/output/libraries/libapps.a(netcmd_netmon.o) (netlib_netmon_sock)
../build/output/libraries/libexternal.a(netlib_setipv4addr.o)
                              ../build/output/libraries/libapps.a(netcmd.o) (netlib_set_ipv4addr)
../build/output/libraries/libexternal.a(netlib_getipv4addr.o)
                              ../build/output/libraries/libapps.a(netcmd.o) (netlib_get_ipv4addr)
../build/output/libraries/libexternal.a(netlib_setdripv4addr.o)
                              ../build/output/libraries/libapps.a(netcmd.o) (netlib_set_dripv4addr)
../build/output/libraries/libexternal.a(netlib_setipv4netmask.o)
                              ../build/output/libraries/libapps.a(netcmd.o) (netlib_set_ipv4netmask)
../build/output/libraries/libexternal.a(netlib_setipv6addr.o)
                              ../build/output/libraries/libapps.a(netcmd.o) (netlib_set_ipv6addr)
../build/output/libraries/libexternal.a(netlib_setmacaddr.o)
                              ../build/output/libraries/libapps.a(netcmd.o) (netlib_setmacaddr)
../build/output/libraries/libexternal.a(netlib_getmacaddr.o)
                              ../build/output/libraries/libapps.a(netcmd.o) (netlib_getmacaddr)
../build/output/libraries/libexternal.a(netlib_setdnsserver.o)
                              ../build/output/libraries/libapps.a(netcmd.o) (netlib_setdnsserver)
../build/output/libraries/libexternal.a(dhcpd_lwip.o)
                              ../build/output/libraries/libapps.a(netcmd_dhcpd.o) (dhcp_server_status)
../build/output/libraries/libexternal.a(dhcpc_lwip.o)
                              ../build/output/libraries/libapps.a(netcmd.o) (dhcp_client_start)
../build/output/libraries/libproxies.a(PROXY_bind.o)
                              ../build/output/libraries/libframework.a(wifi_manager_message.o) (bind)
../build/output/libraries/libproxies.a(PROXY_fs_ioctl.o)
                              ../build/output/libraries/libuc.a(lib_ioctl.o) (fs_ioctl)
../build/output/libraries/libproxies.a(PROXY_gettimeofday.o)
                              ../build/output/libraries/libuc.a(lib_time.o) (gettimeofday)
../build/output/libraries/libproxies.a(PROXY_mkfifo.o)
                              ../build/output/libraries/libframework.a(wifi_manager_message.o) (mkfifo)
../build/output/libraries/libproxies.a(PROXY_mq_getattr.o)
                              ../build/output/libraries/libexternal.a(dhcpd_lwip.o) (mq_getattr)
../build/output/libraries/libproxies.a(PROXY_mq_timedreceive.o)
                              ../build/output/libraries/libexternal.a(dhcpd_lwip.o) (mq_timedreceive)
../build/output/libraries/libproxies.a(PROXY_on_exit.o)
                              ../build/output/libraries/libcxx.a(libxx_cxa_atexit.o) (on_exit)
../build/output/libraries/libproxies.a(PROXY_pthread_create.o)
                              ../build/output/libraries/libframework.a(ble_manager_autoconnect.o) (pthread_create)
../build/output/libraries/libproxies.a(PROXY_pthread_detach.o)
                              ../build/output/libraries/libframework.a(ble_manager_autoconnect.o) (pthread_detach)
../build/output/libraries/libproxies.a(PROXY_pthread_join.o)
                              ../build/output/libraries/libframework.a(ble_queue.o) (pthread_join)
../build/output/libraries/libproxies.a(PROXY_sched_lock.o)
                              ../build/output/libraries/libuc.a(lib_chdir.o) (sched_lock)
../build/output/libraries/libproxies.a(PROXY_sched_unlock.o)
                              ../build/output/libraries/libuc.a(lib_chdir.o) (sched_unlock)
../build/output/libraries/libproxies.a(PROXY_sem_destroy.o)
                              ../build/output/libraries/libframework.a(wifi_manager_msghandler.o) (sem_destroy)
../build/output/libraries/libproxies.a(PROXY_sem_trywait.o)
                              ../build/output/libraries/libumm.a(mm_sem.o) (sem_trywait)
../build/output/libraries/libproxies.a(PROXY_setenv.o)
                              ../build/output/libraries/libuc.a(lib_chdir.o) (setenv)
../build/output/libraries/libproxies.a(PROXY_sigwaitinfo.o)
                              ../build/output/libraries/libuwque.a(work_process.o) (sigwaitinfo)
../build/output/libraries/libuc.a(lib_lowsyslog.o)
                              ../build/output/libraries/libumm.a(mm_getheap.o) (lowsyslog)
../build/output/libraries/libuc.a(pthread_attrinit.o)
                              ../build/output/libraries/libframework.a(ble_queue.o) (pthread_attr_init)
../build/output/libraries/libuc.a(pthread_attrsetstacksize.o)
                              ../build/output/libraries/libframework.a(ble_queue.o) (pthread_attr_setstacksize)
../build/output/libraries/libuc.a(pthread_attrsetschedparam.o)
                              ../build/output/libraries/libexternal.a(dhcpd_lwip.o) (pthread_attr_setschedparam)
../build/output/libraries/libuc.a(sig_addset.o)
                              ../build/output/libraries/libuwque.a(work_process.o) (sigaddset)
../build/output/libraries/libuc.a(sig_emptyset.o)
                              ../build/output/libraries/libuwque.a(work_process.o) (sigemptyset)
../build/output/libraries/libuc.a(dq_rem.o)
                              ../build/output/libraries/libuwque.a(work_process.o) (dq_rem)
../build/output/libraries/libuc.a(lib_lowoutstream.o)
                              ../build/output/libraries/libuc.a(lib_lowsyslog.o) (lib_lowoutstream)
../build/output/libraries/libumm.a(umm_calloc.o)
                              ../build/output/libraries/libframework.a(wifi_manager_cb.o) (calloc)
../build/output/libraries/libumm.a(mm_calloc.o)
                              ../build/output/libraries/libumm.a(umm_calloc.o) (mm_calloc)

Discarded input sections

 .group         0x0000000000000000       0x14 ../build/output/libraries/libapps.a(helloxx_main.o)

Memory Configuration

Name             Origin             Length             Attributes
uflash           0x000000000e162010 0x00000000002f7ff0 xr
usram            0x0000000060600000 0x00000000001f0000 xrw
*default*        0x0000000000000000 0xffffffffffffffff

Linker script and memory map

                0x0000000000000000                _stext_app = ABSOLUTE (.)

.text           0x0000000060600000    0x184da load address 0x000000000e162010
                0x0000000060600000                _stext = .
                0x0000000060600000        0x4 LONG 0x0
 *(.userspace)
 .userspace     0x0000000060600004       0x5c /root/tizenrt/os/userspace/up_userspace_common.o
                0x0000000060600004                userspace
 *(.text)
 .text          0x0000000060600060        0x0 /root/tizenrt/os/userspace/up_userspace_common.o
 .text          0x0000000060600060        0x0 ../build/output/libraries/libproxies.a(PROXY_getpid.o)
 .text          0x0000000060600060        0x0 ../build/output/libraries/libproxies.a(PROXY_sched_getstreams.o)
 .text          0x0000000060600060        0x0 ../build/output/libraries/libuc.a(lib_printf.o)
 .text          0x0000000060600060        0x0 ../build/output/libraries/libuc.a(lib_fgetc.o)
 .text          0x0000000060600060        0x0 ../build/output/libraries/libuc.a(lib_vfprintf.o)
 .text          0x0000000060600060        0x0 ../build/output/libraries/libuc.a(lib_stdoutstream.o)
 .text          0x0000000060600060        0x0 ../build/output/libraries/libuc.a(lib_libnoflush.o)
 .text          0x0000000060600060        0x0 ../build/output/libraries/libuc.a(lib_sleep.o)
 .text          0x0000000060600060        0x0 ../build/output/libraries/libuc.a(task_startup.o)
 .text          0x0000000060600060        0x0 ../build/output/libraries/libuc.a(pthread_startup.o)
 .text          0x0000000060600060        0x0 ../build/output/libraries/libuc.a(lib_filesem.o)
 .text          0x0000000060600060        0x0 ../build/output/libraries/libuc.a(lib_libvsprintf.o)
 .text          0x0000000060600060        0x0 ../build/output/libraries/libuc.a(lib_libfread.o)
 .text          0x0000000060600060        0x0 ../build/output/libraries/libuc.a(lib_libfflush.o)
 .text          0x0000000060600060        0x0 ../build/output/libraries/libuc.a(lib_wrflush.o)
 .text          0x0000000060600060        0x0 ../build/output/libraries/libuc.a(lib_fputc.o)
 .text          0x0000000060600060        0x0 ../build/output/libraries/libuc.a(lib_strnlen.o)
 .text          0x0000000060600060        0x0 ../build/output/libraries/libuc.a(sem_init.o)
 .text          0x0000000060600060        0x0 ../build/output/libraries/libuc.a(lib_dtoa_engine.o)
 .text          0x0000000060600060        0x0 ../build/output/libraries/libuc.a(lib_ultoa_invert.o)
 .text          0x0000000060600060        0x0 ../build/output/libraries/libuc.a(lib_libfwrite.o)
 .text          0x0000000060600060        0x0 ../build/output/libraries/libuc.a(lib_rdflush.o)
 .text          0x0000000060600060        0x0 ../build/output/libraries/libuc.a(lib_dtoa_data.o)
 .text          0x0000000060600060        0x0 ../build/output/libraries/libuc.a(lib_fseek.o)
 .text          0x0000000060600060       0x18 ../build/output/libraries/libuarch.a(arm_signal_handler.o)
                0x0000000060600060                up_signal_handler
 .text          0x0000000060600078        0x0 ../build/output/libraries/libframework.a(binary_manager_notify.o)
 .text          0x0000000060600078        0x0 ../build/output/libraries/libframework.a(binary_manager_interface.o)
 .text          0x0000000060600078        0x0 ../build/output/libraries/libapps.a(init.o)
 .text          0x0000000060600078        0x0 ../build/output/libraries/libapps.a(builtin_list.o)
 .text          0x0000000060600078        0x0 ../build/output/libraries/libapps.a(tash_command.o)
 .text          0x0000000060600078        0x0 ../build/output/libraries/libapps.a(tash_sleep.o)
 .text          0x0000000060600078        0x0 ../build/output/libraries/libapps.a(tash_main.o)
 .text          0x0000000060600078        0x0 ../build/output/libraries/libapps.a(mem_leak_checker_main.o)
 .text          0x0000000060600078        0x0 ../build/output/libraries/libapps.a(sysinfo.o)
 .text          0x0000000060600078        0x0 ../build/output/libraries/libapps.a(systemcmd.o)
 .text          0x0000000060600078        0x0 ../build/output/libraries/libapps.a(security_level_cmd.o)
 .text          0x0000000060600078        0x0 ../build/output/libraries/libapps.a(fscmd.o)
 .text          0x0000000060600078        0x0 ../build/output/libraries/libapps.a(netcmd.o)
 .text          0x0000000060600078        0x0 ../build/output/libraries/libapps.a(netcmd_ping.o)
 .text          0x0000000060600078        0x0 ../build/output/libraries/libapps.a(netcmd_netmon.o)
 .text          0x0000000060600078        0x0 ../build/output/libraries/libapps.a(netcmd_dhcpd.o)
 .text          0x0000000060600078        0x0 ../build/output/libraries/libapps.a(utils_date.o)
 .text          0x0000000060600078        0x0 ../build/output/libraries/libapps.a(utils_free.o)
 .text          0x0000000060600078        0x0 ../build/output/libraries/libapps.a(utils_heapinfo.o)
 .text          0x0000000060600078        0x0 ../build/output/libraries/libapps.a(utils_prodconfig.o)
 .text          0x0000000060600078        0x0 ../build/output/libraries/libapps.a(utils_ps.o)
 .text          0x0000000060600078        0x0 ../build/output/libraries/libapps.a(utils_uptime.o)
 .text          0x0000000060600078        0x0 ../build/output/libraries/libapps.a(utils_proc.o)
 .text          0x0000000060600078        0x0 ../build/output/libraries/libapps.a(helloxx_main.o)
 .text          0x0000000060600078        0x0 ../build/output/libraries/libapps.a(hello_main.o)
 .text          0x0000000060600078        0x0 ../build/output/libraries/libapps.a(tash_init.o)
 .text          0x0000000060600078        0x0 ../build/output/libraries/libapps.a(tash_pm.o)
 .text          0x0000000060600078        0x0 ../build/output/libraries/libapps.a(netdb_main.o)
 .text          0x0000000060600078        0x0 ../build/output/libraries/libapps.a(fs_getpath.o)
 .text          0x0000000060600078      0x378 /bin/../lib/gcc/arm-none-eabi/10.3.1/thumb/v8-a+simd/hard/libgcc.a(_arm_addsubdf3.o)
                0x0000000060600078                __aeabi_drsub
                0x0000000060600080                __aeabi_dsub
                0x0000000060600080                __subdf3
                0x0000000060600084                __adddf3
                0x0000000060600084                __aeabi_dadd
                0x00000000606002fc                __aeabi_ui2d
                0x00000000606002fc                __floatunsidf
                0x000000006060031c                __floatsidf
                0x000000006060031c                __aeabi_i2d
                0x0000000060600340                __extendsfdf2
                0x0000000060600340                __aeabi_f2d
                0x0000000060600384                __aeabi_ul2d
                0x0000000060600384                __floatundidf
                0x0000000060600394                __floatdidf
                0x0000000060600394                __aeabi_l2d
 .text          0x00000000606003f0       0xa0 /bin/../lib/gcc/arm-none-eabi/10.3.1/thumb/v8-a+simd/hard/libgcc.a(_aeabi_ldivmod.o)
                0x00000000606003f0                __aeabi_ldivmod
 .text          0x0000000060600490       0x30 /bin/../lib/gcc/arm-none-eabi/10.3.1/thumb/v8-a+simd/hard/libgcc.a(_aeabi_uldivmod.o)
                0x0000000060600490                __aeabi_uldivmod
 .text          0x00000000606004c0       0x40 /bin/../lib/gcc/arm-none-eabi/10.3.1/thumb/v8-a+simd/hard/libgcc.a(_fixunsdfdi.o)
                0x00000000606004c0                __aeabi_d2ulz
                0x00000000606004c0                __fixunsdfdi
 .text          0x0000000060600500      0x364 /bin/../lib/gcc/arm-none-eabi/10.3.1/thumb/v8-a+simd/hard/libgcc.a(_udivmoddi4.o)
                0x0000000060600500                __udivmoddi4
 .text          0x0000000060600864      0xa54 /bin/../lib/gcc/arm-none-eabi/10.3.1/thumb/v8-a+simd/hard/libgcc.a(unwind-arm.o)
                0x0000000060600b30                _Unwind_GetCFA
                0x0000000060600b34                __gnu_Unwind_RaiseException
                0x0000000060600b9c                __gnu_Unwind_ForcedUnwind
                0x0000000060600bb0                __gnu_Unwind_Resume
                0x0000000060600bf4                __gnu_Unwind_Resume_or_Rethrow
                0x0000000060600c08                _Unwind_Complete
                0x0000000060600c0c                _Unwind_DeleteException
                0x0000000060600c18                _Unwind_VRS_Get
                0x0000000060600c68                _Unwind_VRS_Set
                0x0000000060600cb8                __gnu_Unwind_Backtrace
                0x0000000060601000                __aeabi_unwind_cpp_pr0
                0x0000000060601004                __aeabi_unwind_cpp_pr1
                0x0000000060601008                __aeabi_unwind_cpp_pr2
                0x000000006060100c                _Unwind_VRS_Pop
 .text          0x00000000606012b8      0x1ac /bin/../lib/gcc/arm-none-eabi/10.3.1/thumb/v8-a+simd/hard/libgcc.a(libunwind.o)
                0x00000000606012b8                __restore_core_regs
                0x00000000606012b8                restore_core_regs
                0x00000000606012d0                __gnu_Unwind_Restore_VFP
                0x00000000606012d8                __gnu_Unwind_Save_VFP
                0x00000000606012e0                __gnu_Unwind_Restore_VFP_D
                0x00000000606012e8                __gnu_Unwind_Save_VFP_D
                0x00000000606012f0                __gnu_Unwind_Restore_VFP_D_16_to_31
                0x00000000606012f8                __gnu_Unwind_Save_VFP_D_16_to_31
                0x0000000060601300                __gnu_Unwind_Restore_WMMXD
                0x0000000060601344                __gnu_Unwind_Save_WMMXD
                0x0000000060601388                __gnu_Unwind_Restore_WMMXC
                0x000000006060139c                __gnu_Unwind_Save_WMMXC
                0x00000000606013b0                ___Unwind_RaiseException
                0x00000000606013b0                _Unwind_RaiseException
                0x00000000606013d4                ___Unwind_Resume
                0x00000000606013d4                _Unwind_Resume
                0x00000000606013f8                _Unwind_Resume_or_Rethrow
                0x00000000606013f8                ___Unwind_Resume_or_Rethrow
                0x000000006060141c                ___Unwind_ForcedUnwind
                0x000000006060141c                _Unwind_ForcedUnwind
                0x0000000060601440                _Unwind_Backtrace
                0x0000000060601440                ___Unwind_Backtrace
 .text          0x0000000060601464      0x368 /bin/../lib/gcc/arm-none-eabi/10.3.1/thumb/v8-a+simd/hard/libgcc.a(pr-support.o)
                0x00000000606014b8                __gnu_unwind_execute
                0x0000000060601780                __gnu_unwind_frame
                0x00000000606017ac                _Unwind_GetRegionStart
                0x00000000606017b8                _Unwind_GetLanguageSpecificData
 .text          0x00000000606017cc        0x4 /bin/../lib/gcc/arm-none-eabi/10.3.1/thumb/v8-a+simd/hard/libgcc.a(_dvmd_tls.o)
                0x00000000606017cc                __aeabi_ldiv0
                0x00000000606017cc                __aeabi_idiv0
 .text          0x00000000606017d0        0x0 /bin/../lib/gcc/arm-none-eabi/10.3.1/../../../../arm-none-eabi/lib/thumb/v8-a+simd/hard/libsupc++.a(atexit_arm.o)
 .text          0x00000000606017d0        0x0 /bin/../lib/gcc/arm-none-eabi/10.3.1/../../../../arm-none-eabi/lib/thumb/v8-a+simd/hard/libsupc++.a(del_op.o)
 .text          0x00000000606017d0        0x0 /bin/../lib/gcc/arm-none-eabi/10.3.1/../../../../arm-none-eabi/lib/thumb/v8-a+simd/hard/libsupc++.a(new_op.o)
 .text          0x00000000606017d0        0x0 /bin/../lib/gcc/arm-none-eabi/10.3.1/../../../../arm-none-eabi/lib/thumb/v8-a+simd/hard/libsupc++.a(bad_alloc.o)
 .text          0x00000000606017d0        0x0 /bin/../lib/gcc/arm-none-eabi/10.3.1/../../../../arm-none-eabi/lib/thumb/v8-a+simd/hard/libsupc++.a(del_ops.o)
 .text          0x00000000606017d0        0x0 /bin/../lib/gcc/arm-none-eabi/10.3.1/../../../../arm-none-eabi/lib/thumb/v8-a+simd/hard/libsupc++.a(eh_alloc.o)
 .text          0x00000000606017d0        0x0 /bin/../lib/gcc/arm-none-eabi/10.3.1/../../../../arm-none-eabi/lib/thumb/v8-a+simd/hard/libsupc++.a(eh_exception.o)
 .text          0x00000000606017d0        0x0 /bin/../lib/gcc/arm-none-eabi/10.3.1/../../../../arm-none-eabi/lib/thumb/v8-a+simd/hard/libsupc++.a(eh_terminate.o)
 .text          0x00000000606017d0        0x0 /bin/../lib/gcc/arm-none-eabi/10.3.1/../../../../arm-none-eabi/lib/thumb/v8-a+simd/hard/libsupc++.a(eh_throw.o)
 .text          0x00000000606017d0        0x0 /bin/../lib/gcc/arm-none-eabi/10.3.1/../../../../arm-none-eabi/lib/thumb/v8-a+simd/hard/libsupc++.a(eh_unex_handler.o)
 .text          0x00000000606017d0        0x0 /bin/../lib/gcc/arm-none-eabi/10.3.1/../../../../arm-none-eabi/lib/thumb/v8-a+simd/hard/libsupc++.a(new_handler.o)
 .text          0x00000000606017d0        0x0 /bin/../lib/gcc/arm-none-eabi/10.3.1/../../../../arm-none-eabi/lib/thumb/v8-a+simd/hard/libsupc++.a(pure.o)
 .text          0x00000000606017d0        0x0 /bin/../lib/gcc/arm-none-eabi/10.3.1/../../../../arm-none-eabi/lib/thumb/v8-a+simd/hard/libsupc++.a(si_class_type_info.o)
 .text          0x00000000606017d0        0x0 /bin/../lib/gcc/arm-none-eabi/10.3.1/../../../../arm-none-eabi/lib/thumb/v8-a+simd/hard/libsupc++.a(tinfo.o)
 .text          0x00000000606017d0        0x0 /bin/../lib/gcc/arm-none-eabi/10.3.1/../../../../arm-none-eabi/lib/thumb/v8-a+simd/hard/libsupc++.a(vterminate.o)
 .text          0x00000000606017d0     0x60f8 /bin/../lib/gcc/arm-none-eabi/10.3.1/../../../../arm-none-eabi/lib/thumb/v8-a+simd/hard/libsupc++.a(cp-demangle.o)
                0x00000000606077d4                __cxa_demangle
                0x00000000606078a8                __gcclibcxx_demangle_callback
 .text          0x00000000606078c8        0x0 /bin/../lib/gcc/arm-none-eabi/10.3.1/../../../../arm-none-eabi/lib/thumb/v8-a+simd/hard/libsupc++.a(class_type_info.o)
 .text          0x00000000606078c8        0x0 /bin/../lib/gcc/arm-none-eabi/10.3.1/../../../../arm-none-eabi/lib/thumb/v8-a+simd/hard/libsupc++.a(eh_arm.o)
 .text          0x00000000606078c8        0x0 /bin/../lib/gcc/arm-none-eabi/10.3.1/../../../../arm-none-eabi/lib/thumb/v8-a+simd/hard/libsupc++.a(eh_call.o)
 .text          0x00000000606078c8        0x0 /bin/../lib/gcc/arm-none-eabi/10.3.1/../../../../arm-none-eabi/lib/thumb/v8-a+simd/hard/libsupc++.a(eh_catch.o)
 .text          0x00000000606078c8        0x0 /bin/../lib/gcc/arm-none-eabi/10.3.1/../../../../arm-none-eabi/lib/thumb/v8-a+simd/hard/libsupc++.a(eh_globals.o)
 .text          0x00000000606078c8        0x0 /bin/../lib/gcc/arm-none-eabi/10.3.1/../../../../arm-none-eabi/lib/thumb/v8-a+simd/hard/libsupc++.a(eh_personality.o)
 .text          0x00000000606078c8        0x0 /bin/../lib/gcc/arm-none-eabi/10.3.1/../../../../arm-none-eabi/lib/thumb/v8-a+simd/hard/libsupc++.a(eh_term_handler.o)
 .text          0x00000000606078c8        0x0 /bin/../lib/gcc/arm-none-eabi/10.3.1/../../../../arm-none-eabi/lib/thumb/v8-a+simd/hard/libsupc++.a(eh_type.o)
 .text          0x00000000606078c8        0x0 ../build/output/libraries/libproxies.a(PROXY_boardctl.o)
 .text          0x00000000606078c8        0x0 ../build/output/libraries/libproxies.a(PROXY_clock.o)
 .text          0x00000000606078c8        0x0 ../build/output/libraries/libproxies.a(PROXY_clock_gettime.o)
 .text          0x00000000606078c8        0x0 ../build/output/libraries/libproxies.a(PROXY_clock_settime.o)
 .text          0x00000000606078c8        0x0 ../build/output/libraries/libproxies.a(PROXY_close.o)
 .text          0x00000000606078c8        0x0 ../build/output/libraries/libproxies.a(PROXY_closedir.o)
 .text          0x00000000606078c8        0x0 ../build/output/libraries/libproxies.a(PROXY_exit.o)
 .text          0x00000000606078c8        0x0 ../build/output/libraries/libproxies.a(PROXY_get_errno.o)
 .text          0x00000000606078c8        0x0 ../build/output/libraries/libproxies.a(PROXY_getenv.o)
 .text          0x00000000606078c8        0x0 ../build/output/libraries/libproxies.a(PROXY_lseek.o)
 .text          0x00000000606078c8        0x0 ../build/output/libraries/libproxies.a(PROXY_mkdir.o)
 .text          0x00000000606078c8        0x0 ../build/output/libraries/libproxies.a(PROXY_mount.o)
 .text          0x00000000606078c8        0x0 ../build/output/libraries/libproxies.a(PROXY_mq_close.o)
 .text          0x00000000606078c8        0x0 ../build/output/libraries/libproxies.a(PROXY_mq_open.o)
 .text          0x00000000606078c8        0x0 ../build/output/libraries/libproxies.a(PROXY_mq_receive.o)
 .text          0x00000000606078c8        0x0 ../build/output/libraries/libproxies.a(PROXY_mq_send.o)
 .text          0x00000000606078c8        0x0 ../build/output/libraries/libproxies.a(PROXY_mq_unlink.o)
 .text          0x00000000606078c8        0x0 ../build/output/libraries/libproxies.a(PROXY_nanosleep.o)
 .text          0x00000000606078c8        0x0 ../build/output/libraries/libproxies.a(PROXY_open.o)
 .text          0x00000000606078c8        0x0 ../build/output/libraries/libproxies.a(PROXY_opendir.o)
 .text          0x00000000606078c8        0x0 ../build/output/libraries/libproxies.a(PROXY_prctl.o)
 .text          0x00000000606078c8        0x0 ../build/output/libraries/libproxies.a(PROXY_pthread_exit.o)
 .text          0x00000000606078c8        0x0 ../build/output/libraries/libproxies.a(PROXY_pthread_mutex_lock.o)
 .text          0x00000000606078c8        0x0 ../build/output/libraries/libproxies.a(PROXY_pthread_mutex_unlock.o)
 .text          0x00000000606078c8        0x0 ../build/output/libraries/libproxies.a(PROXY_read.o)
 .text          0x00000000606078c8        0x0 ../build/output/libraries/libproxies.a(PROXY_readdir.o)
 .text          0x00000000606078c8        0x0 ../build/output/libraries/libproxies.a(PROXY_recvfrom.o)
 .text          0x00000000606078c8        0x0 ../build/output/libraries/libproxies.a(PROXY_rename.o)
 .text          0x00000000606078c8        0x0 ../build/output/libraries/libproxies.a(PROXY_rmdir.o)
 .text          0x00000000606078c8        0x0 ../build/output/libraries/libproxies.a(PROXY_select.o)
 .text          0x00000000606078c8        0x0 ../build/output/libraries/libproxies.a(PROXY_sem_post.o)
 .text          0x00000000606078c8        0x0 ../build/output/libraries/libproxies.a(PROXY_sem_wait.o)
 .text          0x00000000606078c8        0x0 ../build/output/libraries/libproxies.a(PROXY_sendto.o)
 .text          0x00000000606078c8        0x0 ../build/output/libraries/libproxies.a(PROXY_set_errno.o)
 .text          0x00000000606078c8        0x0 ../build/output/libraries/libproxies.a(PROXY_setsockopt.o)
 .text          0x00000000606078c8        0x0 ../build/output/libraries/libproxies.a(PROXY_socket.o)
 .text          0x00000000606078c8        0x0 ../build/output/libraries/libproxies.a(PROXY_stat.o)
 .text          0x00000000606078c8        0x0 ../build/output/libraries/libproxies.a(PROXY_statfs.o)
 .text          0x00000000606078c8        0x0 ../build/output/libraries/libproxies.a(PROXY_task_create.o)
 .text          0x00000000606078c8        0x0 ../build/output/libraries/libproxies.a(PROXY_umount.o)
 .text          0x00000000606078c8        0x0 ../build/output/libraries/libproxies.a(PROXY_unlink.o)
 .text          0x00000000606078c8        0x0 ../build/output/libraries/libproxies.a(PROXY_up_assert.o)
 .text          0x00000000606078c8        0x0 ../build/output/libraries/libproxies.a(PROXY_write.o)
 .text          0x00000000606078c8        0x0 ../build/output/libraries/libuc.a(lib_sprintf.o)
 .text          0x00000000606078c8        0x0 ../build/output/libraries/libuc.a(lib_asprintf.o)
 .text          0x00000000606078c8        0x0 ../build/output/libraries/libuc.a(lib_snprintf.o)
 .text          0x00000000606078c8        0x0 ../build/output/libraries/libuc.a(lib_vasprintf.o)
 .text          0x00000000606078c8        0x0 ../build/output/libraries/libuc.a(lib_memoutstream.o)
 .text          0x00000000606078c8        0x0 ../build/output/libraries/libuc.a(lib_nulloutstream.o)
 .text          0x00000000606078c8        0x0 ../build/output/libraries/libuc.a(lib_fwrite.o)
 .text          0x00000000606078c8        0x0 ../build/output/libraries/libuc.a(lib_fputs.o)
 .text          0x00000000606078c8        0x0 ../build/output/libraries/libuc.a(lib_fprintf.o)
 .text          0x00000000606078c8        0x0 ../build/output/libraries/libuc.a(lib_perror.o)
 .text          0x00000000606078c8        0x0 ../build/output/libraries/libuc.a(lib_abort.o)
 .text          0x00000000606078c8        0x0 ../build/output/libraries/libuc.a(lib_strtol.o)
 .text          0x00000000606078c8        0x0 ../build/output/libraries/libuc.a(lib_strtoul.o)
 .text          0x00000000606078c8        0x0 ../build/output/libraries/libuc.a(lib_checkbase.o)
 .text          0x00000000606078c8        0x0 ../build/output/libraries/libuc.a(lib_getopt.o)
 .text          0x00000000606078c8        0x0 ../build/output/libraries/libuc.a(lib_chdir.o)
 .text          0x00000000606078c8        0x0 ../build/output/libraries/libuc.a(lib_usleep.o)
 .text          0x00000000606078c8        0x0 ../build/output/libraries/libuc.a(lib_syslog.o)
 .text          0x00000000606078c8        0x0 ../build/output/libraries/libuc.a(lib_setlogmask.o)
 .text          0x00000000606078c8        0x0 ../build/output/libraries/libuc.a(lib_isbasedigit.o)
 .text          0x00000000606078c8        0x0 ../build/output/libraries/libuc.a(lib_memset.o)
 .text          0x00000000606078c8        0x0 ../build/output/libraries/libuc.a(lib_memcmp.o)
 .text          0x00000000606078c8        0x0 ../build/output/libraries/libuc.a(lib_memmove.o)
 .text          0x00000000606078c8        0x0 ../build/output/libraries/libuc.a(lib_skipspace.o)
 .text          0x00000000606078c8        0x0 ../build/output/libraries/libuc.a(lib_strchr.o)
 .text          0x00000000606078c8        0x0 ../build/output/libraries/libuc.a(lib_strcmp.o)
 .text          0x00000000606078c8        0x0 ../build/output/libraries/libuc.a(lib_strdup.o)
 .text          0x00000000606078c8        0x0 ../build/output/libraries/libuc.a(lib_strerror.o)
 .text          0x00000000606078c8        0x0 ../build/output/libraries/libuc.a(lib_strlen.o)
 .text          0x00000000606078c8        0x0 ../build/output/libraries/libuc.a(lib_strncasecmp.o)
 .text          0x00000000606078c8        0x0 ../build/output/libraries/libuc.a(lib_strncmp.o)
 .text          0x00000000606078c8        0x0 ../build/output/libraries/libuc.a(lib_strncpy.o)
 .text          0x00000000606078c8        0x0 ../build/output/libraries/libuc.a(lib_strstr.o)
 .text          0x00000000606078c8        0x0 ../build/output/libraries/libuc.a(lib_strtokr.o)
 .text          0x00000000606078c8        0x0 ../build/output/libraries/libuc.a(lib_vikmemcpy.o)
 .text          0x00000000606078c8        0x0 ../build/output/libraries/libuc.a(lib_etherntoa.o)
 .text          0x00000000606078c8        0x0 ../build/output/libraries/libuc.a(lib_inetaddr.o)
 .text          0x00000000606078c8        0x0 ../build/output/libraries/libuc.a(lib_inetntoa.o)
 .text          0x00000000606078c8        0x0 ../build/output/libraries/libuc.a(lib_inetntop.o)
 .text          0x00000000606078c8        0x0 ../build/output/libraries/libuc.a(lib_inetpton.o)
 .text          0x00000000606078c8        0x0 ../build/output/libraries/libuc.a(lib_freeaddrinfo.o)
 .text          0x00000000606078c8        0x0 ../build/output/libraries/libuc.a(lib_getaddrinfo.o)
 .text          0x00000000606078c8        0x0 ../build/output/libraries/libuc.a(lib_gethostbyname.o)
 .text          0x00000000606078c8        0x0 ../build/output/libraries/libuc.a(lib_strftime.o)
 .text          0x00000000606078c8        0x0 ../build/output/libraries/libuc.a(lib_daysbeforemonth.o)
 .text          0x00000000606078c8        0x0 ../build/output/libraries/libuc.a(lib_isleapyear.o)
 .text          0x00000000606078c8        0x0 ../build/output/libraries/libuc.a(lib_time.o)
 .text          0x00000000606078c8        0x0 ../build/output/libraries/libuc.a(lib_localtime.o)
 .text          0x00000000606078c8        0x0 ../build/output/libraries/libuc.a(lib_dirname.o)
 .text          0x00000000606078c8        0x0 ../build/output/libraries/libuc.a(lib_ioctl.o)
 .text          0x00000000606078c8        0x0 ../build/output/libraries/libuc.a(lib_sscanf.o)
 .text          0x00000000606078c8        0x0 ../build/output/libraries/libuc.a(lib_rawoutstream.o)
 .text          0x00000000606078c8        0x0 ../build/output/libraries/libuc.a(lib_strtoll.o)
 .text          0x00000000606078c8        0x0 ../build/output/libraries/libuc.a(lib_strtoull.o)
 .text          0x00000000606078c8        0x0 ../build/output/libraries/libuc.a(lib_strtod.o)
 .text          0x00000000606078c8        0x0 ../build/output/libraries/libuc.a(lib_strtof.o)
 .text          0x00000000606078c8        0x0 ../build/output/libraries/libuc.a(lib_access.o)
 .text          0x00000000606078c8        0x0 ../build/output/libraries/libuc.a(lib_strcspn.o)
 .text          0x00000000606078c8        0x0 ../build/output/libraries/libuc.a(lib_strncat.o)
 .text          0x00000000606078c8        0x0 ../build/output/libraries/libuc.a(lib_strrchr.o)
 .text          0x00000000606078c8        0x0 ../build/output/libraries/libuc.a(lib_htons.o)
 .text          0x00000000606078c8        0x0 ../build/output/libraries/libumm.a(mm_heapinfo_utils.o)
 .text          0x00000000606078c8        0x0 ../build/output/libraries/libumm.a(umm_free.o)
 .text          0x00000000606078c8        0x0 ../build/output/libraries/libumm.a(umm_malloc.o)
 .text          0x00000000606078c8        0x0 ../build/output/libraries/libumm.a(umm_realloc.o)
 .text          0x00000000606078c8        0x0 ../build/output/libraries/libumm.a(umm_zalloc.o)
 .text          0x00000000606078c8        0x0 ../build/output/libraries/libumm.a(mm_sem.o)
 .text          0x00000000606078c8        0x0 ../build/output/libraries/libumm.a(mm_free.o)
 .text          0x00000000606078c8        0x0 ../build/output/libraries/libumm.a(mm_malloc.o)
 .text          0x00000000606078c8        0x0 ../build/output/libraries/libumm.a(mm_realloc.o)
 .text          0x00000000606078c8        0x0 ../build/output/libraries/libumm.a(mm_zalloc.o)
 .text          0x00000000606078c8        0x0 ../build/output/libraries/libumm.a(mm_getheap.o)
 .text          0x00000000606078c8        0x0 ../build/output/libraries/libumm.a(mm_manage_allocfail.o)
 .text          0x00000000606078c8        0x0 ../build/output/libraries/libumm.a(mm_heap_dbg.o)
 .text          0x00000000606078c8        0x0 ../build/output/libraries/libumm.a(umm_initialize.o)
 .text          0x00000000606078c8        0x0 ../build/output/libraries/libumm.a(mm_initialize.o)
 .text          0x00000000606078c8        0x0 ../build/output/libraries/libumm.a(mm_addfreechunk.o)
 .text          0x00000000606078c8        0x0 ../build/output/libraries/libumm.a(mm_size2ndx.o)
 .text          0x00000000606078c8        0x0 ../build/output/libraries/libumm.a(mm_shrinkchunk.o)
 .text          0x00000000606078c8        0x0 ../build/output/libraries/libuwque.a(uwork_thread.o)
 .text          0x00000000606078c8        0x0 ../build/output/libraries/libuwque.a(work_process.o)
 .text          0x00000000606078c8        0x0 ../build/output/libraries/libuwque.a(uwork_lock.o)
 .text          0x00000000606078c8        0x0 ../build/output/libraries/libframework.a(wifi_manager_msghandler.o)
 .text          0x00000000606078c8        0x0 ../build/output/libraries/libframework.a(security_common.o)
 .text          0x00000000606078c8        0x0 ../build/output/libraries/libframework.a(security_utils.o)
 .text          0x00000000606078c8        0x0 ../build/output/libraries/libframework.a(security_ss.o)
 .text          0x00000000606078c8        0x0 ../build/output/libraries/libframework.a(ble_manager_msghandler.o)
 .text          0x00000000606078c8        0x0 ../build/output/libraries/libframework.a(seclink.o)
 .text          0x00000000606078c8        0x0 ../build/output/libraries/libframework.a(wifi_manager_message.o)
 .text          0x00000000606078c8        0x0 ../build/output/libraries/libframework.a(wifi_manager_state.o)
 .text          0x00000000606078c8        0x0 ../build/output/libraries/libframework.a(wifi_manager_stats.o)
 .text          0x00000000606078c8        0x0 ../build/output/libraries/libframework.a(wifi_manager_event.o)
 .text          0x00000000606078c8        0x0 ../build/output/libraries/libframework.a(wifi_manager_utils.o)
 .text          0x00000000606078c8        0x0 ../build/output/libraries/libframework.a(wifi_manager_info.o)
 .text          0x00000000606078c8        0x0 ../build/output/libraries/libframework.a(wifi_manager_dhcpc.o)
 .text          0x00000000606078c8        0x0 ../build/output/libraries/libframework.a(wifi_manager_dhcps.o)
 .text          0x00000000606078c8        0x0 ../build/output/libraries/libframework.a(wifi_manager_lwnl.o)
 .text          0x00000000606078c8        0x0 ../build/output/libraries/libframework.a(wifi_manager_lwnl_listener.o)
 .text          0x00000000606078c8        0x0 ../build/output/libraries/libframework.a(ble_manager_message.o)
 .text          0x00000000606078c8        0x0 ../build/output/libraries/libframework.a(wifi_manager_cb.o)
 .text          0x00000000606078c8        0x0 ../build/output/libraries/libframework.a(ble_manager_lwnl_listener.o)
 .text          0x00000000606078c8        0x0 ../build/output/libraries/libframework.a(ble_manager_state.o)
 .text          0x00000000606078c8        0x0 ../build/output/libraries/libframework.a(ble_manager_autoconnect.o)
 .text          0x00000000606078c8        0x0 ../build/output/libraries/libframework.a(ble_queue.o)
 .text          0x00000000606078c8        0x0 ../build/output/libraries/libframework.a(ble_manager_api.o)
 .text          0x00000000606078c8        0x0 ../build/output/libraries/libframework.a(ble_manager_lwnl.o)
 .text          0x00000000606078c8        0x0 ../build/output/libraries/libcxx.a(libxx_newlib_impure.o)
 .text          0x00000000606078c8        0x0 ../build/output/libraries/libcxx.a(libxx_cxa_atexit.o)
 .text          0x00000000606078c8        0x0 ../build/output/libraries/libexternal.a(netlib.o)
 .text          0x00000000606078c8        0x0 ../build/output/libraries/libexternal.a(netlib_setifstatus.o)
 .text          0x00000000606078c8        0x0 ../build/output/libraries/libexternal.a(netlib_getifstatus.o)
 .text          0x00000000606078c8        0x0 ../build/output/libraries/libexternal.a(netlib_getifaddrs.o)
 .text          0x00000000606078c8        0x0 ../build/output/libraries/libexternal.a(netlib_getstats.o)
 .text          0x00000000606078c8        0x0 ../build/output/libraries/libexternal.a(netlib_netmon.o)
 .text          0x00000000606078c8        0x0 ../build/output/libraries/libexternal.a(netlib_setipv4addr.o)
 .text          0x00000000606078c8        0x0 ../build/output/libraries/libexternal.a(netlib_getipv4addr.o)
 .text          0x00000000606078c8        0x0 ../build/output/libraries/libexternal.a(netlib_setdripv4addr.o)
 .text          0x00000000606078c8        0x0 ../build/output/libraries/libexternal.a(netlib_setipv4netmask.o)
 .text          0x00000000606078c8        0x0 ../build/output/libraries/libexternal.a(netlib_setipv6addr.o)
 .text          0x00000000606078c8        0x0 ../build/output/libraries/libexternal.a(netlib_setmacaddr.o)
 .text          0x00000000606078c8        0x0 ../build/output/libraries/libexternal.a(netlib_getmacaddr.o)
 .text          0x00000000606078c8        0x0 ../build/output/libraries/libexternal.a(netlib_setdnsserver.o)
 .text          0x00000000606078c8        0x0 ../build/output/libraries/libexternal.a(dhcpd_lwip.o)
 .text          0x00000000606078c8        0x0 ../build/output/libraries/libexternal.a(dhcpc_lwip.o)
 .text          0x00000000606078c8        0x0 ../build/output/libraries/libproxies.a(PROXY_bind.o)
 .text          0x00000000606078c8        0x0 ../build/output/libraries/libproxies.a(PROXY_fs_ioctl.o)
 .text          0x00000000606078c8        0x0 ../build/output/libraries/libproxies.a(PROXY_gettimeofday.o)
 .text          0x00000000606078c8        0x0 ../build/output/libraries/libproxies.a(PROXY_mkfifo.o)
 .text          0x00000000606078c8        0x0 ../build/output/libraries/libproxies.a(PROXY_mq_getattr.o)
 .text          0x00000000606078c8        0x0 ../build/output/libraries/libproxies.a(PROXY_mq_timedreceive.o)
 .text          0x00000000606078c8        0x0 ../build/output/libraries/libproxies.a(PROXY_on_exit.o)
 .text          0x00000000606078c8        0x0 ../build/output/libraries/libproxies.a(PROXY_pthread_create.o)
 .text          0x00000000606078c8        0x0 ../build/output/libraries/libproxies.a(PROXY_pthread_detach.o)
 .text          0x00000000606078c8        0x0 ../build/output/libraries/libproxies.a(PROXY_pthread_join.o)
 .text          0x00000000606078c8        0x0 ../build/output/libraries/libproxies.a(PROXY_sched_lock.o)
 .text          0x00000000606078c8        0x0 ../build/output/libraries/libproxies.a(PROXY_sched_unlock.o)
 .text          0x00000000606078c8        0x0 ../build/output/libraries/libproxies.a(PROXY_sem_destroy.o)
 .text          0x00000000606078c8        0x0 ../build/output/libraries/libproxies.a(PROXY_sem_trywait.o)
 .text          0x00000000606078c8        0x0 ../build/output/libraries/libproxies.a(PROXY_setenv.o)
 .text          0x00000000606078c8        0x0 ../build/output/libraries/libproxies.a(PROXY_sigwaitinfo.o)
 .text          0x00000000606078c8        0x0 ../build/output/libraries/libuc.a(lib_lowsyslog.o)
 .text          0x00000000606078c8        0x0 ../build/output/libraries/libuc.a(pthread_attrinit.o)
 .text          0x00000000606078c8        0x0 ../build/output/libraries/libuc.a(pthread_attrsetstacksize.o)
 .text          0x00000000606078c8        0x0 ../build/output/libraries/libuc.a(pthread_attrsetschedparam.o)
 .text          0x00000000606078c8        0x0 ../build/output/libraries/libuc.a(sig_addset.o)
 .text          0x00000000606078c8        0x0 ../build/output/libraries/libuc.a(sig_emptyset.o)
 .text          0x00000000606078c8        0x0 ../build/output/libraries/libuc.a(dq_rem.o)
 .text          0x00000000606078c8        0x0 ../build/output/libraries/libuc.a(lib_lowoutstream.o)
 .text          0x00000000606078c8        0x0 ../build/output/libraries/libumm.a(umm_calloc.o)
 .text          0x00000000606078c8        0x0 ../build/output/libraries/libumm.a(mm_calloc.o)
 *(.text.*)
 .text.getpid   0x00000000606078c8        0xc ../build/output/libraries/libproxies.a(PROXY_getpid.o)
                0x00000000606078c8                getpid
 .text.sched_getstreams
                0x00000000606078d4        0xa ../build/output/libraries/libproxies.a(PROXY_sched_getstreams.o)
                0x00000000606078d4                sched_getstreams
 .text.printf   0x00000000606078de       0x24 ../build/output/libraries/libuc.a(lib_printf.o)
                0x00000000606078de                printf
 .text.fgetc    0x0000000060607902       0x20 ../build/output/libraries/libuc.a(lib_fgetc.o)
                0x0000000060607902                fgetc
 .text.vfprintf
                0x0000000060607922       0x36 ../build/output/libraries/libuc.a(lib_vfprintf.o)
                0x0000000060607922                vfprintf
 .text.stdoutstream_flush
                0x0000000060607958        0x8 ../build/output/libraries/libuc.a(lib_stdoutstream.o)
 .text.stdoutstream_putc
                0x0000000060607960       0x38 ../build/output/libraries/libuc.a(lib_stdoutstream.o)
 .text.lib_stdoutstream
                0x0000000060607998       0x28 ../build/output/libraries/libuc.a(lib_stdoutstream.o)
                0x0000000060607998                lib_stdoutstream
 .text.lib_noflush
                0x00000000606079c0        0x4 ../build/output/libraries/libuc.a(lib_libnoflush.o)
                0x00000000606079c0                lib_noflush
 .text.sleep    0x00000000606079c4       0x34 ../build/output/libraries/libuc.a(lib_sleep.o)
                0x00000000606079c4                sleep
 .text.task_startup
                0x00000000606079f8       0x20 ../build/output/libraries/libuc.a(task_startup.o)
                0x00000000606079f8                task_startup
 .text.pthread_startup
                0x0000000060607a18       0x1c ../build/output/libraries/libuc.a(pthread_startup.o)
                0x0000000060607a18                pthread_startup
 .text.lib_sem_initialize
                0x0000000060607a34       0x1a ../build/output/libraries/libuc.a(lib_filesem.o)
                0x0000000060607a34                lib_sem_initialize
 *fill*         0x0000000060607a4e        0x2 
 .text.lib_take_semaphore
                0x0000000060607a50       0x44 ../build/output/libraries/libuc.a(lib_filesem.o)
                0x0000000060607a50                lib_take_semaphore
 .text.lib_give_semaphore
                0x0000000060607a94       0x48 ../build/output/libraries/libuc.a(lib_filesem.o)
                0x0000000060607a94                lib_give_semaphore
 .text.lib_vsprintf
                0x0000000060607adc      0x7c0 ../build/output/libraries/libuc.a(lib_libvsprintf.o)
                0x0000000060607adc                lib_vsprintf
 .text.lib_fread
                0x000000006060829c       0xd8 ../build/output/libraries/libuc.a(lib_libfread.o)
                0x000000006060829c                lib_fread
 .text.lib_fflush
                0x0000000060608374       0x8e ../build/output/libraries/libuc.a(lib_libfflush.o)
                0x0000000060608374                lib_fflush
 .text.lib_wrflush
                0x0000000060608402       0x1a ../build/output/libraries/libuc.a(lib_wrflush.o)
                0x0000000060608402                lib_wrflush
 .text.fputc    0x000000006060841c       0x36 ../build/output/libraries/libuc.a(lib_fputc.o)
                0x000000006060841c                fputc
 .text.strnlen  0x0000000060608452       0x18 ../build/output/libraries/libuc.a(lib_strnlen.o)
                0x0000000060608452                strnlen
 .text.sem_init
                0x000000006060846a       0x2e ../build/output/libraries/libuc.a(sem_init.o)
                0x000000006060846a                sem_init
 .text.__dtoa_engine
                0x0000000060608498      0x1ac ../build/output/libraries/libuc.a(lib_dtoa_engine.o)
                0x0000000060608498                __dtoa_engine
 .text.__ultoa_invert
                0x0000000060608644       0x5a ../build/output/libraries/libuc.a(lib_ultoa_invert.o)
                0x0000000060608644                __ultoa_invert
 .text.lib_fwrite
                0x000000006060869e       0x92 ../build/output/libraries/libuc.a(lib_libfwrite.o)
                0x000000006060869e                lib_fwrite
 .text.lib_rdflush
                0x0000000060608730       0x50 ../build/output/libraries/libuc.a(lib_rdflush.o)
                0x0000000060608730                lib_rdflush
 .text.fseek    0x0000000060608780       0x3c ../build/output/libraries/libuc.a(lib_fseek.o)
                0x0000000060608780                fseek
 .text.binary_manager_notify_binary_started
                0x00000000606087bc       0x3c ../build/output/libraries/libframework.a(binary_manager_notify.o)
                0x00000000606087bc                binary_manager_notify_binary_started
 .text.binary_manager_set_request
                0x00000000606087f8       0x7c ../build/output/libraries/libframework.a(binary_manager_interface.o)
                0x00000000606087f8                binary_manager_set_request
 .text.binary_manager_send_request
                0x0000000060608874       0x70 ../build/output/libraries/libframework.a(binary_manager_interface.o)
                0x0000000060608874                binary_manager_send_request
 .text.binary_manager_receive_response
                0x00000000606088e4       0xc0 ../build/output/libraries/libframework.a(binary_manager_interface.o)
                0x00000000606088e4                binary_manager_receive_response
 .text.preapp_start
                0x00000000606089a4       0x54 ../build/output/libraries/libapps.a(init.o)
                0x00000000606089a4                preapp_start
 .text.register_examples_cmds
                0x00000000606089f8       0x20 ../build/output/libraries/libapps.a(builtin_list.o)
                0x00000000606089f8                register_examples_cmds
 .text.get_builtin_list_cnt
                0x0000000060608a18        0x4 ../build/output/libraries/libapps.a(builtin_list.o)
                0x0000000060608a18                get_builtin_list_cnt
 .text.tash_history
                0x0000000060608a1c       0x5c ../build/output/libraries/libapps.a(tash_command.o)
 .text.tash_clear
                0x0000000060608a78       0x10 ../build/output/libraries/libapps.a(tash_command.o)
 .text.tash_help
                0x0000000060608a88       0xf8 ../build/output/libraries/libapps.a(tash_command.o)
 .text.tash_exit
                0x0000000060608b80       0x24 ../build/output/libraries/libapps.a(tash_command.o)
 .text.tash_reboot
                0x0000000060608ba4       0x1a ../build/output/libraries/libapps.a(tash_command.o)
                0x0000000060608ba4                tash_reboot
 *fill*         0x0000000060608bbe        0x2 
 .text.tash_store_cmd
                0x0000000060608bc0       0x84 ../build/output/libraries/libapps.a(tash_command.o)
                0x0000000060608bc0                tash_store_cmd
 .text.tash_search_cmd
                0x0000000060608c44       0xe8 ../build/output/libraries/libapps.a(tash_command.o)
                0x0000000060608c44                tash_search_cmd
 .text.check_exclam_cmd
                0x0000000060608d2c       0xf4 ../build/output/libraries/libapps.a(tash_command.o)
                0x0000000060608d2c                check_exclam_cmd
 .text.tash_execute_cmd
                0x0000000060608e20      0x114 ../build/output/libraries/libapps.a(tash_command.o)
                0x0000000060608e20                tash_execute_cmd
 .text.tash_do_autocomplete
                0x0000000060608f34       0xe8 ../build/output/libraries/libapps.a(tash_command.o)
                0x0000000060608f34                tash_do_autocomplete
 .text.tash_cmd_install
                0x000000006060901c       0xb8 ../build/output/libraries/libapps.a(tash_command.o)
                0x000000006060901c                tash_cmd_install
 .text.tash_cmdlist_install
                0x00000000606090d4       0x1a ../build/output/libraries/libapps.a(tash_command.o)
                0x00000000606090d4                tash_cmdlist_install
 *fill*         0x00000000606090ee        0x2 
 .text.tash_register_basic_cmds
                0x00000000606090f0        0xc ../build/output/libraries/libapps.a(tash_command.o)
                0x00000000606090f0                tash_register_basic_cmds
 .text.tash_sleep
                0x00000000606090fc       0x2c ../build/output/libraries/libapps.a(tash_sleep.o)
                0x00000000606090fc                tash_sleep
 .text.tash_print_cmd
                0x0000000060609128       0x30 ../build/output/libraries/libapps.a(tash_main.o)
 .text.tash_remove_char
                0x0000000060609158       0x1a ../build/output/libraries/libapps.a(tash_main.o)
 *fill*         0x0000000060609172        0x2 
 .text.tash_read_input_line
                0x0000000060609174      0x260 ../build/output/libraries/libapps.a(tash_main.o)
                0x0000000060609174                tash_read_input_line
 .text.tash_start
                0x00000000606093d4       0x3c ../build/output/libraries/libapps.a(tash_main.o)
                0x00000000606093d4                tash_start
 .text.tash_stop
                0x0000000060609410       0x10 ../build/output/libraries/libapps.a(tash_main.o)
                0x0000000060609410                tash_stop
 .text.tash_execute_cmdline
                0x0000000060609420      0x188 ../build/output/libraries/libapps.a(tash_main.o)
                0x0000000060609420                tash_execute_cmdline
 .text.tash_main
                0x00000000606095a8       0x8c ../build/output/libraries/libapps.a(tash_main.o)
 .text.mem_leak_checker_main
                0x0000000060609634       0x28 ../build/output/libraries/libapps.a(mem_leak_checker_main.o)
                0x0000000060609634                mem_leak_checker_main
 .text.sysinfo  0x000000006060965c       0x78 ../build/output/libraries/libapps.a(sysinfo.o)
                0x000000006060965c                sysinfo
 .text.system_register_utilcmds
                0x00000000606096d4        0xc ../build/output/libraries/libapps.a(systemcmd.o)
                0x00000000606096d4                system_register_utilcmds
 .text.show_usage
                0x00000000606096e0       0x58 ../build/output/libraries/libapps.a(security_level_cmd.o)
 .text.tash_security_level
                0x0000000060609738      0x16c ../build/output/libraries/libapps.a(security_level_cmd.o)
 .text.security_level_register_utilcmds
                0x00000000606098a4       0x14 ../build/output/libraries/libapps.a(security_level_cmd.o)
                0x00000000606098a4                security_level_register_utilcmds
 .text.mount_handler
                0x00000000606098b8       0x60 ../build/output/libraries/libapps.a(fscmd.o)
 .text.df_handler
                0x0000000060609918       0x20 ../build/output/libraries/libapps.a(fscmd.o)
 .text.fscmd_free
                0x0000000060609938        0x8 ../build/output/libraries/libapps.a(fscmd.o)
 .text.tash_rmdir
                0x0000000060609940       0x38 ../build/output/libraries/libapps.a(fscmd.o)
 .text.delete_entry
                0x0000000060609978       0xd4 ../build/output/libraries/libapps.a(fscmd.o)
 .text.tash_rm  0x0000000060609a4c       0x90 ../build/output/libraries/libapps.a(fscmd.o)
 .text.tash_pwd
                0x0000000060609adc       0x1c ../build/output/libraries/libapps.a(fscmd.o)
 .text.tash_umount
                0x0000000060609af8       0x34 ../build/output/libraries/libapps.a(fscmd.o)
 .text.tash_mv  0x0000000060609b2c       0x80 ../build/output/libraries/libapps.a(fscmd.o)
 .text.tash_mkdir
                0x0000000060609bac       0x3c ../build/output/libraries/libapps.a(fscmd.o)
 .text.tash_cd  0x0000000060609be8       0x98 ../build/output/libraries/libapps.a(fscmd.o)
 .text.tash_cat
                0x0000000060609c80      0x1fc ../build/output/libraries/libapps.a(fscmd.o)
 .text.ls_specialdir
                0x0000000060609e7c       0x28 ../build/output/libraries/libapps.a(fscmd.o)
 .text.search_mountpoints
                0x0000000060609ea4       0xcc ../build/output/libraries/libapps.a(fscmd.o)
 .text.ls_handler
                0x0000000060609f70      0x15c ../build/output/libraries/libapps.a(fscmd.o)
 .text.tash_df  0x000000006060a0cc       0x50 ../build/output/libraries/libapps.a(fscmd.o)
 .text.format_filesystem.part.0
                0x000000006060a11c       0x6c ../build/output/libraries/libapps.a(fscmd.o)
 .text.tash_format
                0x000000006060a188       0x58 ../build/output/libraries/libapps.a(fscmd.o)
 .text.tash_echo.part.0
                0x000000006060a1e0      0x1c8 ../build/output/libraries/libapps.a(fscmd.o)
 .text.tash_echo
                0x000000006060a3a8       0x44 ../build/output/libraries/libapps.a(fscmd.o)
 .text.foreach_direntry.constprop.0
                0x000000006060a3ec       0x50 ../build/output/libraries/libapps.a(fscmd.o)
 .text.tash_ls  0x000000006060a43c      0x120 ../build/output/libraries/libapps.a(fscmd.o)
 .text.ls_recursive
                0x000000006060a55c       0x60 ../build/output/libraries/libapps.a(fscmd.o)
 .text.df_man_readable_handler
                0x000000006060a5bc       0xe4 ../build/output/libraries/libapps.a(fscmd.o)
 .text.mount_show
                0x000000006060a6a0       0x10 ../build/output/libraries/libapps.a(fscmd.o)
                0x000000006060a6a0                mount_show
 .text.tash_mount
                0x000000006060a6b0      0x124 ../build/output/libraries/libapps.a(fscmd.o)
 .text.fs_register_utilcmds
                0x000000006060a7d4        0xc ../build/output/libraries/libapps.a(fscmd.o)
                0x000000006060a7d4                fs_register_utilcmds
 .text.nic_display_state
                0x000000006060a7e0      0x270 ../build/output/libraries/libapps.a(netcmd.o)
 .text.cmd_ifconfig
                0x000000006060aa50      0x348 ../build/output/libraries/libapps.a(netcmd.o)
                0x000000006060aa50                cmd_ifconfig
 .text.cmd_ifup
                0x000000006060ad98       0x44 ../build/output/libraries/libapps.a(netcmd.o)
                0x000000006060ad98                cmd_ifup
 .text.cmd_ifdown
                0x000000006060addc       0x44 ../build/output/libraries/libapps.a(netcmd.o)
                0x000000006060addc                cmd_ifdown
 .text.net_register_utilcmds
                0x000000006060ae20        0xc ../build/output/libraries/libapps.a(netcmd.o)
                0x000000006060ae20                net_register_utilcmds
 .text.net_register_appcmds
                0x000000006060ae2c        0xc ../build/output/libraries/libapps.a(netcmd.o)
                0x000000006060ae2c                net_register_appcmds
 .text._set_icmp6_config
                0x000000006060ae38       0x1c ../build/output/libraries/libapps.a(netcmd_ping.o)
 .text._set_icmp4_config
                0x000000006060ae54       0x1c ../build/output/libraries/libapps.a(netcmd_ping.o)
 .text._ping_start
                0x000000006060ae70      0x510 ../build/output/libraries/libapps.a(netcmd_ping.o)
 .text.cmd_ping6
                0x000000006060b380        0xc ../build/output/libraries/libapps.a(netcmd_ping.o)
                0x000000006060b380                cmd_ping6
 .text.cmd_ping
                0x000000006060b38c        0xc ../build/output/libraries/libapps.a(netcmd_ping.o)
                0x000000006060b38c                cmd_ping
 .text.cmd_netmon
                0x000000006060b398      0x130 ../build/output/libraries/libapps.a(netcmd_netmon.o)
                0x000000006060b398                cmd_netmon
 .text.cmd_netstats
                0x000000006060b4c8        0xa ../build/output/libraries/libapps.a(netcmd_netmon.o)
                0x000000006060b4c8                cmd_netstats
 *fill*         0x000000006060b4d2        0x2 
 .text.show_usage
                0x000000006060b4d4       0x60 ../build/output/libraries/libapps.a(netcmd_dhcpd.o)
 .text.cmd_dhcpd
                0x000000006060b534      0x144 ../build/output/libraries/libapps.a(netcmd_dhcpd.o)
                0x000000006060b534                cmd_dhcpd
 .text.utils_date
                0x000000006060b678      0x280 ../build/output/libraries/libapps.a(utils_date.o)
                0x000000006060b678                utils_date
 .text.utils_free
                0x000000006060b8f8       0x74 ../build/output/libraries/libapps.a(utils_free.o)
                0x000000006060b8f8                utils_free
 .text.heapinfo_read_proc
                0x000000006060b96c       0x5c ../build/output/libraries/libapps.a(utils_heapinfo.o)
 .text.heapinfo_print_values
                0x000000006060b9c8       0x74 ../build/output/libraries/libapps.a(utils_heapinfo.o)
 .text.utils_heapinfo
                0x000000006060ba3c      0x318 ../build/output/libraries/libapps.a(utils_heapinfo.o)
                0x000000006060ba3c                utils_heapinfo
 .text.utils_prodconfig
                0x000000006060bd54       0x74 ../build/output/libraries/libapps.a(utils_prodconfig.o)
                0x000000006060bd54                utils_prodconfig
 .text.ps_read_proc
                0x000000006060bdc8       0x5c ../build/output/libraries/libapps.a(utils_ps.o)
 .text.ps_print_values
                0x000000006060be24       0xc8 ../build/output/libraries/libapps.a(utils_ps.o)
 .text.utils_ps
                0x000000006060beec       0x8c ../build/output/libraries/libapps.a(utils_ps.o)
                0x000000006060beec                utils_ps
 .text.utils_uptime
                0x000000006060bf78       0x34 ../build/output/libraries/libapps.a(utils_uptime.o)
                0x000000006060bf78                utils_uptime
 .text.utils_proc_pid_foreach
                0x000000006060bfac       0x68 ../build/output/libraries/libapps.a(utils_proc.o)
                0x000000006060bfac                utils_proc_pid_foreach
 .text.utils_readfile
                0x000000006060c014       0x9c ../build/output/libraries/libapps.a(utils_proc.o)
                0x000000006060c014                utils_readfile
 .text._ZN11CHelloWorldD2Ev
                0x000000006060c0b0        0x2 ../build/output/libraries/libapps.a(helloxx_main.o)
                0x000000006060c0b0                CHelloWorld::~CHelloWorld()
                0x000000006060c0b0                CHelloWorld::~CHelloWorld()
 *fill*         0x000000006060c0b2        0x2 
 .text._ZN11CHelloWorld10HelloWorldEv.isra.0
                0x000000006060c0b4       0x14 ../build/output/libraries/libapps.a(helloxx_main.o)
 .text.helloxx_main
                0x000000006060c0c8       0x60 ../build/output/libraries/libapps.a(helloxx_main.o)
                0x000000006060c0c8                helloxx_main
 .text.startup._GLOBAL__sub_I_helloxx_main
                0x000000006060c128       0x1c ../build/output/libraries/libapps.a(helloxx_main.o)
 .text.hello_main
                0x000000006060c144       0x10 ../build/output/libraries/libapps.a(hello_main.o)
                0x000000006060c144                hello_main
 .text.tash_init
                0x000000006060c154        0xa ../build/output/libraries/libapps.a(tash_init.o)
                0x000000006060c154                tash_init
 *fill*         0x000000006060c15e        0x2 
 .text.tash_pm_open_driver
                0x000000006060c160       0x20 ../build/output/libraries/libapps.a(tash_pm.o)
                0x000000006060c160                tash_pm_open_driver
 .text.tash_pm_close_driver
                0x000000006060c180       0x1c ../build/output/libraries/libapps.a(tash_pm.o)
                0x000000006060c180                tash_pm_close_driver
 .text.tash_pm_get_domain_id
                0x000000006060c19c       0x38 ../build/output/libraries/libapps.a(tash_pm.o)
                0x000000006060c19c                tash_pm_get_domain_id
 .text.tash_pm_timedsuspend
                0x000000006060c1d4       0x28 ../build/output/libraries/libapps.a(tash_pm.o)
                0x000000006060c1d4                tash_pm_timedsuspend
 .text.show_usage
                0x000000006060c1fc       0x2c ../build/output/libraries/libapps.a(netdb_main.o)
 .text.netdb_main
                0x000000006060c228      0x148 ../build/output/libraries/libapps.a(netdb_main.o)
                0x000000006060c228                netdb_main
 .text.getwd    0x000000006060c370       0x14 ../build/output/libraries/libapps.a(fs_getpath.o)
                0x000000006060c370                getwd
 .text.get_dirpath
                0x000000006060c384       0x74 ../build/output/libraries/libapps.a(fs_getpath.o)
                0x000000006060c384                get_dirpath
 .text.get_fullpath
                0x000000006060c3f8       0x48 ../build/output/libraries/libapps.a(fs_getpath.o)
                0x000000006060c3f8                get_fullpath
 .text.unlikely
                0x000000006060c440        0xc /bin/../lib/gcc/arm-none-eabi/10.3.1/thumb/v8-a+simd/hard/libgcc.a(pr-support.o)
                0x000000006060c440                _Unwind_GetDataRelBase
                0x000000006060c446                _Unwind_GetTextRelBase
 .text.__aeabi_atexit
                0x000000006060c44c        0xc /bin/../lib/gcc/arm-none-eabi/10.3.1/../../../../arm-none-eabi/lib/thumb/v8-a+simd/hard/libsupc++.a(atexit_arm.o)
                0x000000006060c44c                __aeabi_atexit
 .text._ZdlPv   0x000000006060c458        0x4 /bin/../lib/gcc/arm-none-eabi/10.3.1/../../../../arm-none-eabi/lib/thumb/v8-a+simd/hard/libsupc++.a(del_op.o)
                0x000000006060c458                operator delete(void*)
 .text._Znwj    0x000000006060c45c       0x40 /bin/../lib/gcc/arm-none-eabi/10.3.1/../../../../arm-none-eabi/lib/thumb/v8-a+simd/hard/libsupc++.a(new_op.o)
                0x000000006060c45c                operator new(unsigned int)
 .text._ZNKSt9bad_alloc4whatEv
                0x000000006060c49c        0xc /bin/../lib/gcc/arm-none-eabi/10.3.1/../../../../arm-none-eabi/lib/thumb/v8-a+simd/hard/libsupc++.a(bad_alloc.o)
                0x000000006060c49c                std::bad_alloc::what() const
 .text._ZNSt9bad_allocD2Ev
                0x000000006060c4a8       0x14 /bin/../lib/gcc/arm-none-eabi/10.3.1/../../../../arm-none-eabi/lib/thumb/v8-a+simd/hard/libsupc++.a(bad_alloc.o)
                0x000000006060c4a8                std::bad_alloc::~bad_alloc()
                0x000000006060c4a8                std::bad_alloc::~bad_alloc()
 .text._ZNSt9bad_allocD0Ev
                0x000000006060c4bc       0x1c /bin/../lib/gcc/arm-none-eabi/10.3.1/../../../../arm-none-eabi/lib/thumb/v8-a+simd/hard/libsupc++.a(bad_alloc.o)
                0x000000006060c4bc                std::bad_alloc::~bad_alloc()
 .text._ZdlPvj  0x000000006060c4d8        0x4 /bin/../lib/gcc/arm-none-eabi/10.3.1/../../../../arm-none-eabi/lib/thumb/v8-a+simd/hard/libsupc++.a(del_ops.o)
                0x000000006060c4d8                operator delete(void*, unsigned int)
 .text._ZN12_GLOBAL__N_14pool4freeEPv.constprop.0
                0x000000006060c4dc       0x80 /bin/../lib/gcc/arm-none-eabi/10.3.1/../../../../arm-none-eabi/lib/thumb/v8-a+simd/hard/libsupc++.a(eh_alloc.o)
 .text._ZN12_GLOBAL__N_14pool8allocateEj.constprop.0
                0x000000006060c55c       0x5c /bin/../lib/gcc/arm-none-eabi/10.3.1/../../../../arm-none-eabi/lib/thumb/v8-a+simd/hard/libsupc++.a(eh_alloc.o)
 .text._ZN9__gnu_cxx9__freeresEv
                0x000000006060c5b8       0x18 /bin/../lib/gcc/arm-none-eabi/10.3.1/../../../../arm-none-eabi/lib/thumb/v8-a+simd/hard/libsupc++.a(eh_alloc.o)
                0x000000006060c5b8                __gnu_cxx::__freeres()
 .text.__cxa_allocate_exception
                0x000000006060c5d0       0x30 /bin/../lib/gcc/arm-none-eabi/10.3.1/../../../../arm-none-eabi/lib/thumb/v8-a+simd/hard/libsupc++.a(eh_alloc.o)
                0x000000006060c5d0                __cxa_allocate_exception
 .text.__cxa_free_exception
                0x000000006060c600       0x20 /bin/../lib/gcc/arm-none-eabi/10.3.1/../../../../arm-none-eabi/lib/thumb/v8-a+simd/hard/libsupc++.a(eh_alloc.o)
                0x000000006060c600                __cxa_free_exception
 .text.__cxa_allocate_dependent_exception
                0x000000006060c620       0x28 /bin/../lib/gcc/arm-none-eabi/10.3.1/../../../../arm-none-eabi/lib/thumb/v8-a+simd/hard/libsupc++.a(eh_alloc.o)
                0x000000006060c620                __cxa_allocate_dependent_exception
 .text.__cxa_free_dependent_exception
                0x000000006060c648       0x24 /bin/../lib/gcc/arm-none-eabi/10.3.1/../../../../arm-none-eabi/lib/thumb/v8-a+simd/hard/libsupc++.a(eh_alloc.o)
                0x000000006060c648                __cxa_free_dependent_exception
 .text.startup._GLOBAL__sub_I__ZN9__gnu_cxx9__freeresEv
                0x000000006060c66c       0x2c /bin/../lib/gcc/arm-none-eabi/10.3.1/../../../../arm-none-eabi/lib/thumb/v8-a+simd/hard/libsupc++.a(eh_alloc.o)
 .text._ZNSt9exceptionD2Ev
                0x000000006060c698        0x4 /bin/../lib/gcc/arm-none-eabi/10.3.1/../../../../arm-none-eabi/lib/thumb/v8-a+simd/hard/libsupc++.a(eh_exception.o)
                0x000000006060c698                std::exception::~exception()
                0x000000006060c698                std::exception::~exception()
 .text._ZNSt13bad_exceptionD2Ev
                0x000000006060c69c        0x4 /bin/../lib/gcc/arm-none-eabi/10.3.1/../../../../arm-none-eabi/lib/thumb/v8-a+simd/hard/libsupc++.a(eh_exception.o)
                0x000000006060c69c                std::bad_exception::~bad_exception()
                0x000000006060c69c                std::bad_exception::~bad_exception()
 .text._ZNKSt9exception4whatEv
                0x000000006060c6a0        0xc /bin/../lib/gcc/arm-none-eabi/10.3.1/../../../../arm-none-eabi/lib/thumb/v8-a+simd/hard/libsupc++.a(eh_exception.o)
                0x000000006060c6a0                transaction clone for std::exception::what() const
                0x000000006060c6a0                std::exception::what() const
 .text._ZNKSt13bad_exception4whatEv
                0x000000006060c6ac        0xc /bin/../lib/gcc/arm-none-eabi/10.3.1/../../../../arm-none-eabi/lib/thumb/v8-a+simd/hard/libsupc++.a(eh_exception.o)
                0x000000006060c6ac                transaction clone for std::bad_exception::what() const
                0x000000006060c6ac                std::bad_exception::what() const
 .text._ZNSt9exceptionD0Ev
                0x000000006060c6b8       0x10 /bin/../lib/gcc/arm-none-eabi/10.3.1/../../../../arm-none-eabi/lib/thumb/v8-a+simd/hard/libsupc++.a(eh_exception.o)
                0x000000006060c6b8                std::exception::~exception()
 .text._ZNSt13bad_exceptionD0Ev
                0x000000006060c6c8       0x10 /bin/../lib/gcc/arm-none-eabi/10.3.1/../../../../arm-none-eabi/lib/thumb/v8-a+simd/hard/libsupc++.a(eh_exception.o)
                0x000000006060c6c8                std::bad_exception::~bad_exception()
 .text._ZN10__cxxabiv115__forced_unwindD2Ev
                0x000000006060c6d8        0x4 /bin/../lib/gcc/arm-none-eabi/10.3.1/../../../../arm-none-eabi/lib/thumb/v8-a+simd/hard/libsupc++.a(eh_exception.o)
                0x000000006060c6d8                __cxxabiv1::__forced_unwind::~__forced_unwind()
                0x000000006060c6d8                __cxxabiv1::__forced_unwind::~__forced_unwind()
 .text._ZN10__cxxabiv115__forced_unwindD0Ev
                0x000000006060c6dc       0x10 /bin/../lib/gcc/arm-none-eabi/10.3.1/../../../../arm-none-eabi/lib/thumb/v8-a+simd/hard/libsupc++.a(eh_exception.o)
                0x000000006060c6dc                __cxxabiv1::__forced_unwind::~__forced_unwind()
 .text._ZN10__cxxabiv119__foreign_exceptionD2Ev
                0x000000006060c6ec        0x4 /bin/../lib/gcc/arm-none-eabi/10.3.1/../../../../arm-none-eabi/lib/thumb/v8-a+simd/hard/libsupc++.a(eh_exception.o)
                0x000000006060c6ec                __cxxabiv1::__foreign_exception::~__foreign_exception()
                0x000000006060c6ec                __cxxabiv1::__foreign_exception::~__foreign_exception()
 .text._ZN10__cxxabiv119__foreign_exceptionD0Ev
                0x000000006060c6f0       0x10 /bin/../lib/gcc/arm-none-eabi/10.3.1/../../../../arm-none-eabi/lib/thumb/v8-a+simd/hard/libsupc++.a(eh_exception.o)
                0x000000006060c6f0                __cxxabiv1::__foreign_exception::~__foreign_exception()
 .text._ZGTtNKSt9exceptionD1Ev
                0x000000006060c700        0x4 /bin/../lib/gcc/arm-none-eabi/10.3.1/../../../../arm-none-eabi/lib/thumb/v8-a+simd/hard/libsupc++.a(eh_exception.o)
                0x000000006060c700                transaction clone for std::exception::~exception() const
 .text._ZGTtNKSt13bad_exceptionD1Ev
                0x000000006060c704        0x4 /bin/../lib/gcc/arm-none-eabi/10.3.1/../../../../arm-none-eabi/lib/thumb/v8-a+simd/hard/libsupc++.a(eh_exception.o)
                0x000000006060c704                transaction clone for std::bad_exception::~bad_exception() const
 .text._ZN10__cxxabiv111__terminateEPFvvE
                0x000000006060c708       0x28 /bin/../lib/gcc/arm-none-eabi/10.3.1/../../../../arm-none-eabi/lib/thumb/v8-a+simd/hard/libsupc++.a(eh_terminate.o)
                0x000000006060c708                __cxxabiv1::__terminate(void (*)())
 .text._ZSt9terminatev
                0x000000006060c730       0x14 /bin/../lib/gcc/arm-none-eabi/10.3.1/../../../../arm-none-eabi/lib/thumb/v8-a+simd/hard/libsupc++.a(eh_terminate.o)
                0x000000006060c730                std::terminate()
 .text._ZN10__cxxabiv112__unexpectedEPFvvE
                0x000000006060c744        0x8 /bin/../lib/gcc/arm-none-eabi/10.3.1/../../../../arm-none-eabi/lib/thumb/v8-a+simd/hard/libsupc++.a(eh_terminate.o)
                0x000000006060c744                __cxxabiv1::__unexpected(void (*)())
 .text._ZSt10unexpectedv
                0x000000006060c74c       0x14 /bin/../lib/gcc/arm-none-eabi/10.3.1/../../../../arm-none-eabi/lib/thumb/v8-a+simd/hard/libsupc++.a(eh_terminate.o)
                0x000000006060c74c                std::unexpected()
 .text._ZSt13set_terminatePFvvE
                0x000000006060c760       0x24 /bin/../lib/gcc/arm-none-eabi/10.3.1/../../../../arm-none-eabi/lib/thumb/v8-a+simd/hard/libsupc++.a(eh_terminate.o)
                0x000000006060c760                std::set_terminate(void (*)())
 .text._ZSt13get_terminatev
                0x000000006060c784       0x10 /bin/../lib/gcc/arm-none-eabi/10.3.1/../../../../arm-none-eabi/lib/thumb/v8-a+simd/hard/libsupc++.a(eh_terminate.o)
                0x000000006060c784                std::get_terminate()
 .text._ZSt14set_unexpectedPFvvE
                0x000000006060c794       0x24 /bin/../lib/gcc/arm-none-eabi/10.3.1/../../../../arm-none-eabi/lib/thumb/v8-a+simd/hard/libsupc++.a(eh_terminate.o)
                0x000000006060c794                std::set_unexpected(void (*)())
 .text._ZSt14get_unexpectedv
                0x000000006060c7b8       0x10 /bin/../lib/gcc/arm-none-eabi/10.3.1/../../../../arm-none-eabi/lib/thumb/v8-a+simd/hard/libsupc++.a(eh_terminate.o)
                0x000000006060c7b8                std::get_unexpected()
 .text._ZL23__gxx_exception_cleanup19_Unwind_Reason_CodeP21_Unwind_Control_Block
                0x000000006060c7c8       0x3c /bin/../lib/gcc/arm-none-eabi/10.3.1/../../../../arm-none-eabi/lib/thumb/v8-a+simd/hard/libsupc++.a(eh_throw.o)
 .text.__cxa_init_primary_exception
                0x000000006060c804       0x60 /bin/../lib/gcc/arm-none-eabi/10.3.1/../../../../arm-none-eabi/lib/thumb/v8-a+simd/hard/libsupc++.a(eh_throw.o)
                0x000000006060c804                __cxa_init_primary_exception
 .text.__cxa_throw
                0x000000006060c864       0x38 /bin/../lib/gcc/arm-none-eabi/10.3.1/../../../../arm-none-eabi/lib/thumb/v8-a+simd/hard/libsupc++.a(eh_throw.o)
                0x000000006060c864                __cxa_throw
 .text.__cxa_rethrow
                0x000000006060c89c       0x70 /bin/../lib/gcc/arm-none-eabi/10.3.1/../../../../arm-none-eabi/lib/thumb/v8-a+simd/hard/libsupc++.a(eh_throw.o)
                0x000000006060c89c                __cxa_rethrow
 .text._ZSt15set_new_handlerPFvvE
                0x000000006060c90c       0x18 /bin/../lib/gcc/arm-none-eabi/10.3.1/../../../../arm-none-eabi/lib/thumb/v8-a+simd/hard/libsupc++.a(new_handler.o)
                0x000000006060c90c                std::set_new_handler(void (*)())
 .text._ZSt15get_new_handlerv
                0x000000006060c924       0x10 /bin/../lib/gcc/arm-none-eabi/10.3.1/../../../../arm-none-eabi/lib/thumb/v8-a+simd/hard/libsupc++.a(new_handler.o)
                0x000000006060c924                std::get_new_handler()
 .text.__cxa_pure_virtual
                0x000000006060c934       0x18 /bin/../lib/gcc/arm-none-eabi/10.3.1/../../../../arm-none-eabi/lib/thumb/v8-a+simd/hard/libsupc++.a(pure.o)
                0x000000006060c934                __cxa_pure_virtual
 .text.__cxa_deleted_virtual
                0x000000006060c94c       0x18 /bin/../lib/gcc/arm-none-eabi/10.3.1/../../../../arm-none-eabi/lib/thumb/v8-a+simd/hard/libsupc++.a(pure.o)
                0x000000006060c94c                __cxa_deleted_virtual
 .text._ZN10__cxxabiv120__si_class_type_infoD2Ev
                0x000000006060c964       0x14 /bin/../lib/gcc/arm-none-eabi/10.3.1/../../../../arm-none-eabi/lib/thumb/v8-a+simd/hard/libsupc++.a(si_class_type_info.o)
                0x000000006060c964                __cxxabiv1::__si_class_type_info::~__si_class_type_info()
                0x000000006060c964                __cxxabiv1::__si_class_type_info::~__si_class_type_info()
 .text._ZN10__cxxabiv120__si_class_type_infoD0Ev
                0x000000006060c978       0x1c /bin/../lib/gcc/arm-none-eabi/10.3.1/../../../../arm-none-eabi/lib/thumb/v8-a+simd/hard/libsupc++.a(si_class_type_info.o)
                0x000000006060c978                __cxxabiv1::__si_class_type_info::~__si_class_type_info()
 .text._ZNK10__cxxabiv120__si_class_type_info20__do_find_public_srcEiPKvPKNS_17__class_type_infoES2_
                0x000000006060c994       0x3c /bin/../lib/gcc/arm-none-eabi/10.3.1/../../../../arm-none-eabi/lib/thumb/v8-a+simd/hard/libsupc++.a(si_class_type_info.o)
                0x000000006060c994                __cxxabiv1::__si_class_type_info::__do_find_public_src(int, void const*, __cxxabiv1::__class_type_info const*, void const*) const
 .text._ZNK10__cxxabiv120__si_class_type_info12__do_dyncastEiNS_17__class_type_info10__sub_kindEPKS1_PKvS4_S6_RNS1_16__dyncast_resultE
                0x000000006060c9d0       0x84 /bin/../lib/gcc/arm-none-eabi/10.3.1/../../../../arm-none-eabi/lib/thumb/v8-a+simd/hard/libsupc++.a(si_class_type_info.o)
                0x000000006060c9d0                __cxxabiv1::__si_class_type_info::__do_dyncast(int, __cxxabiv1::__class_type_info::__sub_kind, __cxxabiv1::__class_type_info const*, void const*, __cxxabiv1::__class_type_info const*, void const*, __cxxabiv1::__class_type_info::__dyncast_result&) const
 .text._ZNK10__cxxabiv120__si_class_type_info11__do_upcastEPKNS_17__class_type_infoEPKvRNS1_15__upcast_resultE
                0x000000006060ca54       0x2c /bin/../lib/gcc/arm-none-eabi/10.3.1/../../../../arm-none-eabi/lib/thumb/v8-a+simd/hard/libsupc++.a(si_class_type_info.o)
                0x000000006060ca54                __cxxabiv1::__si_class_type_info::__do_upcast(__cxxabiv1::__class_type_info const*, void const*, __cxxabiv1::__class_type_info::__upcast_result&) const
 .text._ZNSt9type_infoD2Ev
                0x000000006060ca80        0x4 /bin/../lib/gcc/arm-none-eabi/10.3.1/../../../../arm-none-eabi/lib/thumb/v8-a+simd/hard/libsupc++.a(tinfo.o)
                0x000000006060ca80                std::type_info::~type_info()
                0x000000006060ca80                std::type_info::~type_info()
 .text._ZNKSt9type_info14__is_pointer_pEv
                0x000000006060ca84        0x4 /bin/../lib/gcc/arm-none-eabi/10.3.1/../../../../arm-none-eabi/lib/thumb/v8-a+simd/hard/libsupc++.a(tinfo.o)
                0x000000006060ca84                std::type_info::__is_function_p() const
                0x000000006060ca84                std::type_info::__is_pointer_p() const
 .text._ZNKSt9type_info11__do_upcastEPKN10__cxxabiv117__class_type_infoEPPv
                0x000000006060ca88        0x4 /bin/../lib/gcc/arm-none-eabi/10.3.1/../../../../arm-none-eabi/lib/thumb/v8-a+simd/hard/libsupc++.a(tinfo.o)
                0x000000006060ca88                std::type_info::__do_upcast(__cxxabiv1::__class_type_info const*, void**) const
 .text._ZNSt9type_infoD0Ev
                0x000000006060ca8c       0x10 /bin/../lib/gcc/arm-none-eabi/10.3.1/../../../../arm-none-eabi/lib/thumb/v8-a+simd/hard/libsupc++.a(tinfo.o)
                0x000000006060ca8c                std::type_info::~type_info()
 .text._ZNKSt9type_info10__do_catchEPKS_PPvj
                0x000000006060ca9c       0x2c /bin/../lib/gcc/arm-none-eabi/10.3.1/../../../../arm-none-eabi/lib/thumb/v8-a+simd/hard/libsupc++.a(tinfo.o)
                0x000000006060ca9c                std::type_info::__do_catch(std::type_info const*, void**, unsigned int) const
 .text._ZNKSt9type_infoeqERKS_
                0x000000006060cac8       0x2c /bin/../lib/gcc/arm-none-eabi/10.3.1/../../../../arm-none-eabi/lib/thumb/v8-a+simd/hard/libsupc++.a(tinfo.o)
                0x000000006060cac8                std::type_info::operator==(std::type_info const&) const
 .text._ZN9__gnu_cxx27__verbose_terminate_handlerEv
                0x000000006060caf4      0x128 /bin/../lib/gcc/arm-none-eabi/10.3.1/../../../../arm-none-eabi/lib/thumb/v8-a+simd/hard/libsupc++.a(vterminate.o)
                0x000000006060caf4                __gnu_cxx::__verbose_terminate_handler()
 .text._ZNK10__cxxabiv117__class_type_info11__do_upcastEPKS0_PPv
                0x000000006060cc1c       0x38 /bin/../lib/gcc/arm-none-eabi/10.3.1/../../../../arm-none-eabi/lib/thumb/v8-a+simd/hard/libsupc++.a(class_type_info.o)
                0x000000006060cc1c                __cxxabiv1::__class_type_info::__do_upcast(__cxxabiv1::__class_type_info const*, void**) const
 .text._ZNK10__cxxabiv117__class_type_info20__do_find_public_srcEiPKvPKS0_S2_
                0x000000006060cc54       0x10 /bin/../lib/gcc/arm-none-eabi/10.3.1/../../../../arm-none-eabi/lib/thumb/v8-a+simd/hard/libsupc++.a(class_type_info.o)
                0x000000006060cc54                __cxxabiv1::__class_type_info::__do_find_public_src(int, void const*, __cxxabiv1::__class_type_info const*, void const*) const
 .text._ZN10__cxxabiv117__class_type_infoD2Ev
                0x000000006060cc64       0x14 /bin/../lib/gcc/arm-none-eabi/10.3.1/../../../../arm-none-eabi/lib/thumb/v8-a+simd/hard/libsupc++.a(class_type_info.o)
                0x000000006060cc64                __cxxabiv1::__class_type_info::~__class_type_info()
                0x000000006060cc64                __cxxabiv1::__class_type_info::~__class_type_info()
 .text._ZN10__cxxabiv117__class_type_infoD0Ev
                0x000000006060cc78       0x1c /bin/../lib/gcc/arm-none-eabi/10.3.1/../../../../arm-none-eabi/lib/thumb/v8-a+simd/hard/libsupc++.a(class_type_info.o)
                0x000000006060cc78                __cxxabiv1::__class_type_info::~__class_type_info()
 .text._ZNK10__cxxabiv117__class_type_info12__do_dyncastEiNS0_10__sub_kindEPKS0_PKvS3_S5_RNS0_16__dyncast_resultE
                0x000000006060cc94       0x44 /bin/../lib/gcc/arm-none-eabi/10.3.1/../../../../arm-none-eabi/lib/thumb/v8-a+simd/hard/libsupc++.a(class_type_info.o)
                0x000000006060cc94                __cxxabiv1::__class_type_info::__do_dyncast(int, __cxxabiv1::__class_type_info::__sub_kind, __cxxabiv1::__class_type_info const*, void const*, __cxxabiv1::__class_type_info const*, void const*, __cxxabiv1::__class_type_info::__dyncast_result&) const
 .text._ZNK10__cxxabiv117__class_type_info11__do_upcastEPKS0_PKvRNS0_15__upcast_resultE
                0x000000006060ccd8       0x1c /bin/../lib/gcc/arm-none-eabi/10.3.1/../../../../arm-none-eabi/lib/thumb/v8-a+simd/hard/libsupc++.a(class_type_info.o)
                0x000000006060ccd8                __cxxabiv1::__class_type_info::__do_upcast(__cxxabiv1::__class_type_info const*, void const*, __cxxabiv1::__class_type_info::__upcast_result&) const
 .text._ZNK10__cxxabiv117__class_type_info10__do_catchEPKSt9type_infoPPvj
                0x000000006060ccf4       0x2c /bin/../lib/gcc/arm-none-eabi/10.3.1/../../../../arm-none-eabi/lib/thumb/v8-a+simd/hard/libsupc++.a(class_type_info.o)
                0x000000006060ccf4                __cxxabiv1::__class_type_info::__do_catch(std::type_info const*, void**, unsigned int) const
 .text.__cxa_end_cleanup
                0x000000006060cd20        0xc /bin/../lib/gcc/arm-none-eabi/10.3.1/../../../../arm-none-eabi/lib/thumb/v8-a+simd/hard/libsupc++.a(eh_arm.o)
                0x000000006060cd20                __cxa_end_cleanup
 .text.__cxa_type_match
                0x000000006060cd2c       0xb4 /bin/../lib/gcc/arm-none-eabi/10.3.1/../../../../arm-none-eabi/lib/thumb/v8-a+simd/hard/libsupc++.a(eh_arm.o)
                0x000000006060cd2c                __cxa_type_match
 .text.__cxa_begin_cleanup
                0x000000006060cde0       0x64 /bin/../lib/gcc/arm-none-eabi/10.3.1/../../../../arm-none-eabi/lib/thumb/v8-a+simd/hard/libsupc++.a(eh_arm.o)
                0x000000006060cde0                __cxa_begin_cleanup
 .text.__gnu_end_cleanup
                0x000000006060ce44       0x70 /bin/../lib/gcc/arm-none-eabi/10.3.1/../../../../arm-none-eabi/lib/thumb/v8-a+simd/hard/libsupc++.a(eh_arm.o)
                0x000000006060ce44                __gnu_end_cleanup
 .text._ZN10__cxxabiv1L24__is_gxx_exception_classEPc
                0x000000006060ceb4       0x3c /bin/../lib/gcc/arm-none-eabi/10.3.1/../../../../arm-none-eabi/lib/thumb/v8-a+simd/hard/libsupc++.a(eh_call.o)
 .text.__cxa_call_terminate
                0x000000006060cef0       0x20 /bin/../lib/gcc/arm-none-eabi/10.3.1/../../../../arm-none-eabi/lib/thumb/v8-a+simd/hard/libsupc++.a(eh_call.o)
                0x000000006060cef0                __cxa_call_terminate
 .text.unlikely.__cxa_call_unexpected
                0x000000006060cf10       0xf0 /bin/../lib/gcc/arm-none-eabi/10.3.1/../../../../arm-none-eabi/lib/thumb/v8-a+simd/hard/libsupc++.a(eh_call.o)
                0x000000006060cf10                __cxa_call_unexpected
 .text.__cxa_get_exception_ptr
                0x000000006060d000        0x4 /bin/../lib/gcc/arm-none-eabi/10.3.1/../../../../arm-none-eabi/lib/thumb/v8-a+simd/hard/libsupc++.a(eh_catch.o)
                0x000000006060d000                __cxa_get_exception_ptr
 .text.__cxa_begin_catch
                0x000000006060d004       0x7c /bin/../lib/gcc/arm-none-eabi/10.3.1/../../../../arm-none-eabi/lib/thumb/v8-a+simd/hard/libsupc++.a(eh_catch.o)
                0x000000006060d004                __cxa_begin_catch
 .text.__cxa_end_catch
                0x000000006060d080       0x88 /bin/../lib/gcc/arm-none-eabi/10.3.1/../../../../arm-none-eabi/lib/thumb/v8-a+simd/hard/libsupc++.a(eh_catch.o)
                0x000000006060d080                __cxa_end_catch
 .text._ZSt18uncaught_exceptionv
                0x000000006060d108       0x10 /bin/../lib/gcc/arm-none-eabi/10.3.1/../../../../arm-none-eabi/lib/thumb/v8-a+simd/hard/libsupc++.a(eh_catch.o)
                0x000000006060d108                std::uncaught_exception()
 .text._ZSt19uncaught_exceptionsv
                0x000000006060d118        0xc /bin/../lib/gcc/arm-none-eabi/10.3.1/../../../../arm-none-eabi/lib/thumb/v8-a+simd/hard/libsupc++.a(eh_catch.o)
                0x000000006060d118                std::uncaught_exceptions()
 .text.__cxa_get_globals_fast
                0x000000006060d124        0xc /bin/../lib/gcc/arm-none-eabi/10.3.1/../../../../arm-none-eabi/lib/thumb/v8-a+simd/hard/libsupc++.a(eh_globals.o)
                0x000000006060d124                __cxa_get_globals_fast
 .text.__cxa_get_globals
                0x000000006060d130        0xc /bin/../lib/gcc/arm-none-eabi/10.3.1/../../../../arm-none-eabi/lib/thumb/v8-a+simd/hard/libsupc++.a(eh_globals.o)
                0x000000006060d130                __cxa_get_globals
 .text._ZL28read_encoded_value_with_basehjPKhPj
                0x000000006060d13c       0xc4 /bin/../lib/gcc/arm-none-eabi/10.3.1/../../../../arm-none-eabi/lib/thumb/v8-a+simd/hard/libsupc++.a(eh_personality.o)
 .text._ZL21base_of_encoded_valuehP15_Unwind_Context
                0x000000006060d200       0x48 /bin/../lib/gcc/arm-none-eabi/10.3.1/../../../../arm-none-eabi/lib/thumb/v8-a+simd/hard/libsupc++.a(eh_personality.o)
 .text._ZL17parse_lsda_headerP15_Unwind_ContextPKhP16lsda_header_info
                0x000000006060d248       0x94 /bin/../lib/gcc/arm-none-eabi/10.3.1/../../../../arm-none-eabi/lib/thumb/v8-a+simd/hard/libsupc++.a(eh_personality.o)
 .text.__gxx_personality_v0
                0x000000006060d2dc      0x4b8 /bin/../lib/gcc/arm-none-eabi/10.3.1/../../../../arm-none-eabi/lib/thumb/v8-a+simd/hard/libsupc++.a(eh_personality.o)
                0x000000006060d2dc                __gxx_personality_v0
 .text.__cxa_current_exception_type
                0x000000006060d794       0x1c /bin/../lib/gcc/arm-none-eabi/10.3.1/../../../../arm-none-eabi/lib/thumb/v8-a+simd/hard/libsupc++.a(eh_type.o)
                0x000000006060d794                __cxa_current_exception_type
 .text.boardctl
                0x000000006060d7b0       0x10 ../build/output/libraries/libproxies.a(PROXY_boardctl.o)
                0x000000006060d7b0                boardctl
 .text.clock    0x000000006060d7c0        0xc ../build/output/libraries/libproxies.a(PROXY_clock.o)
                0x000000006060d7c0                clock
 .text.clock_gettime
                0x000000006060d7cc       0x10 ../build/output/libraries/libproxies.a(PROXY_clock_gettime.o)
                0x000000006060d7cc                clock_gettime
 .text.clock_settime
                0x000000006060d7dc       0x10 ../build/output/libraries/libproxies.a(PROXY_clock_settime.o)
                0x000000006060d7dc                clock_settime
 .text.close    0x000000006060d7ec        0xc ../build/output/libraries/libproxies.a(PROXY_close.o)
                0x000000006060d7ec                close
 .text.closedir
                0x000000006060d7f8        0xc ../build/output/libraries/libproxies.a(PROXY_closedir.o)
                0x000000006060d7f8                closedir
 .text.exit     0x000000006060d804        0xa ../build/output/libraries/libproxies.a(PROXY_exit.o)
                0x000000006060d804                exit
 .text.get_errno
                0x000000006060d80e        0xa ../build/output/libraries/libproxies.a(PROXY_get_errno.o)
                0x000000006060d80e                get_errno
 .text.getenv   0x000000006060d818        0xc ../build/output/libraries/libproxies.a(PROXY_getenv.o)
                0x000000006060d818                getenv
 .text.lseek    0x000000006060d824       0x10 ../build/output/libraries/libproxies.a(PROXY_lseek.o)
                0x000000006060d824                lseek
 .text.mkdir    0x000000006060d834       0x10 ../build/output/libraries/libproxies.a(PROXY_mkdir.o)
                0x000000006060d834                mkdir
 .text.mount    0x000000006060d844       0x14 ../build/output/libraries/libproxies.a(PROXY_mount.o)
                0x000000006060d844                mount
 .text.mq_close
                0x000000006060d858        0xc ../build/output/libraries/libproxies.a(PROXY_mq_close.o)
                0x000000006060d858                mq_close
 .text.mq_open  0x000000006060d864       0x24 ../build/output/libraries/libproxies.a(PROXY_mq_open.o)
                0x000000006060d864                mq_open
 .text.mq_receive
                0x000000006060d888       0x12 ../build/output/libraries/libproxies.a(PROXY_mq_receive.o)
                0x000000006060d888                mq_receive
 .text.mq_send  0x000000006060d89a       0x12 ../build/output/libraries/libproxies.a(PROXY_mq_send.o)
                0x000000006060d89a                mq_send
 .text.mq_unlink
                0x000000006060d8ac        0xc ../build/output/libraries/libproxies.a(PROXY_mq_unlink.o)
                0x000000006060d8ac                mq_unlink
 .text.nanosleep
                0x000000006060d8b8       0x10 ../build/output/libraries/libproxies.a(PROXY_nanosleep.o)
                0x000000006060d8b8                nanosleep
 .text.open     0x000000006060d8c8       0x24 ../build/output/libraries/libproxies.a(PROXY_open.o)
                0x000000006060d8c8                open
 .text.opendir  0x000000006060d8ec        0xc ../build/output/libraries/libproxies.a(PROXY_opendir.o)
                0x000000006060d8ec                opendir
 .text.prctl    0x000000006060d8f8       0x24 ../build/output/libraries/libproxies.a(PROXY_prctl.o)
                0x000000006060d8f8                prctl
 .text.pthread_exit
                0x000000006060d91c        0xa ../build/output/libraries/libproxies.a(PROXY_pthread_exit.o)
                0x000000006060d91c                pthread_exit
 .text.pthread_mutex_lock
                0x000000006060d926        0xc ../build/output/libraries/libproxies.a(PROXY_pthread_mutex_lock.o)
                0x000000006060d926                pthread_mutex_lock
 .text.pthread_mutex_unlock
                0x000000006060d932        0xc ../build/output/libraries/libproxies.a(PROXY_pthread_mutex_unlock.o)
                0x000000006060d932                pthread_mutex_unlock
 .text.read     0x000000006060d93e       0x10 ../build/output/libraries/libproxies.a(PROXY_read.o)
                0x000000006060d93e                read
 .text.readdir  0x000000006060d94e        0xc ../build/output/libraries/libproxies.a(PROXY_readdir.o)
                0x000000006060d94e                readdir
 .text.recvfrom
                0x000000006060d95a       0x16 ../build/output/libraries/libproxies.a(PROXY_recvfrom.o)
                0x000000006060d95a                recvfrom
 .text.rename   0x000000006060d970       0x10 ../build/output/libraries/libproxies.a(PROXY_rename.o)
                0x000000006060d970                rename
 .text.rmdir    0x000000006060d980        0xc ../build/output/libraries/libproxies.a(PROXY_rmdir.o)
                0x000000006060d980                rmdir
 .text.select   0x000000006060d98c       0x14 ../build/output/libraries/libproxies.a(PROXY_select.o)
                0x000000006060d98c                select
 .text.sem_post
                0x000000006060d9a0        0xc ../build/output/libraries/libproxies.a(PROXY_sem_post.o)
                0x000000006060d9a0                sem_post
 .text.sem_wait
                0x000000006060d9ac        0xc ../build/output/libraries/libproxies.a(PROXY_sem_wait.o)
                0x000000006060d9ac                sem_wait
 .text.sendto   0x000000006060d9b8       0x16 ../build/output/libraries/libproxies.a(PROXY_sendto.o)
                0x000000006060d9b8                sendto
 .text.set_errno
                0x000000006060d9ce        0xc ../build/output/libraries/libproxies.a(PROXY_set_errno.o)
                0x000000006060d9ce                set_errno
 .text.setsockopt
                0x000000006060d9da       0x14 ../build/output/libraries/libproxies.a(PROXY_setsockopt.o)
                0x000000006060d9da                setsockopt
 .text.socket   0x000000006060d9ee       0x10 ../build/output/libraries/libproxies.a(PROXY_socket.o)
                0x000000006060d9ee                socket
 .text.stat     0x000000006060d9fe       0x10 ../build/output/libraries/libproxies.a(PROXY_stat.o)
                0x000000006060d9fe                stat
 .text.statfs   0x000000006060da0e       0x10 ../build/output/libraries/libproxies.a(PROXY_statfs.o)
                0x000000006060da0e                statfs
 .text.task_create
                0x000000006060da1e       0x14 ../build/output/libraries/libproxies.a(PROXY_task_create.o)
                0x000000006060da1e                task_create
 .text.umount   0x000000006060da32        0xc ../build/output/libraries/libproxies.a(PROXY_umount.o)
                0x000000006060da32                umount
 .text.unlink   0x000000006060da3e        0xc ../build/output/libraries/libproxies.a(PROXY_unlink.o)
                0x000000006060da3e                unlink
 .text.up_assert
                0x000000006060da4a       0x10 ../build/output/libraries/libproxies.a(PROXY_up_assert.o)
                0x000000006060da4a                up_assert
 .text.write    0x000000006060da5a       0x10 ../build/output/libraries/libproxies.a(PROXY_write.o)
                0x000000006060da5a                write
 .text.sprintf  0x000000006060da6a       0x2e ../build/output/libraries/libuc.a(lib_sprintf.o)
                0x000000006060da6a                sprintf
 .text.asprintf
                0x000000006060da98       0x2c ../build/output/libraries/libuc.a(lib_asprintf.o)
                0x000000006060da98                asprintf
 .text.snprintf
                0x000000006060dac4       0x2e ../build/output/libraries/libuc.a(lib_snprintf.o)
                0x000000006060dac4                snprintf
 *fill*         0x000000006060daf2        0x2 
 .text.vasprintf
                0x000000006060daf4       0x78 ../build/output/libraries/libuc.a(lib_vasprintf.o)
                0x000000006060daf4                vasprintf
 .text.memoutstream_putc
                0x000000006060db6c       0x30 ../build/output/libraries/libuc.a(lib_memoutstream.o)
 .text.lib_memoutstream
                0x000000006060db9c       0x20 ../build/output/libraries/libuc.a(lib_memoutstream.o)
                0x000000006060db9c                lib_memoutstream
 .text.nulloutstream_putc
                0x000000006060dbbc       0x1c ../build/output/libraries/libuc.a(lib_nulloutstream.o)
 .text.lib_nulloutstream
                0x000000006060dbd8       0x18 ../build/output/libraries/libuc.a(lib_nulloutstream.o)
                0x000000006060dbd8                lib_nulloutstream
 .text.fwrite   0x000000006060dbf0       0x1a ../build/output/libraries/libuc.a(lib_fwrite.o)
                0x000000006060dbf0                fwrite
 .text.fputs    0x000000006060dc0a       0x44 ../build/output/libraries/libuc.a(lib_fputs.o)
                0x000000006060dc0a                fputs
 .text.fprintf  0x000000006060dc4e       0x1a ../build/output/libraries/libuc.a(lib_fprintf.o)
                0x000000006060dc4e                fprintf
 .text.perror   0x000000006060dc68       0x28 ../build/output/libraries/libuc.a(lib_perror.o)
                0x000000006060dc68                perror
 .text.abort    0x000000006060dc90        0x8 ../build/output/libraries/libuc.a(lib_abort.o)
                0x000000006060dc90                abort
 .text.strtol   0x000000006060dc98       0x64 ../build/output/libraries/libuc.a(lib_strtol.o)
                0x000000006060dc98                strtol
 .text.strtoul  0x000000006060dcfc       0x64 ../build/output/libraries/libuc.a(lib_strtoul.o)
                0x000000006060dcfc                strtoul
 .text.lib_checkbase
                0x000000006060dd60       0x5e ../build/output/libraries/libuc.a(lib_checkbase.o)
                0x000000006060dd60                lib_checkbase
 *fill*         0x000000006060ddbe        0x2 
 .text.getopt   0x000000006060ddc0      0x12c ../build/output/libraries/libuc.a(lib_getopt.o)
                0x000000006060ddc0                getopt
 .text.chdir    0x000000006060deec       0x78 ../build/output/libraries/libuc.a(lib_chdir.o)
                0x000000006060deec                chdir
 .text.usleep   0x000000006060df64       0x2c ../build/output/libraries/libuc.a(lib_usleep.o)
                0x000000006060df64                usleep
 .text.vsyslog  0x000000006060df90       0x44 ../build/output/libraries/libuc.a(lib_syslog.o)
                0x000000006060df90                vsyslog
 .text.syslog   0x000000006060dfd4       0x1a ../build/output/libraries/libuc.a(lib_syslog.o)
                0x000000006060dfd4                syslog
 *fill*         0x000000006060dfee        0x2 
 .text.setlogmask
                0x000000006060dff0       0x10 ../build/output/libraries/libuc.a(lib_setlogmask.o)
                0x000000006060dff0                setlogmask
 .text.lib_isbasedigit
                0x000000006060e000       0x4c ../build/output/libraries/libuc.a(lib_isbasedigit.o)
                0x000000006060e000                lib_isbasedigit
 .text.memset   0x000000006060e04c       0x62 ../build/output/libraries/libuc.a(lib_memset.o)
                0x000000006060e04c                memset
 .text.memcmp   0x000000006060e0ae       0x28 ../build/output/libraries/libuc.a(lib_memcmp.o)
                0x000000006060e0ae                memcmp
 .text.memmove  0x000000006060e0d6       0x2e ../build/output/libraries/libuc.a(lib_memmove.o)
                0x000000006060e0d6                memmove
 .text.lib_skipspace
                0x000000006060e104       0x16 ../build/output/libraries/libuc.a(lib_skipspace.o)
                0x000000006060e104                lib_skipspace
 .text.strchr   0x000000006060e11a       0x18 ../build/output/libraries/libuc.a(lib_strchr.o)
                0x000000006060e11a                strchr
 .text.strcmp   0x000000006060e132       0x16 ../build/output/libraries/libuc.a(lib_strcmp.o)
                0x000000006060e132                strcmp
 .text.strdup   0x000000006060e148       0x30 ../build/output/libraries/libuc.a(lib_strdup.o)
                0x000000006060e148                strdup
 .text.strerror
                0x000000006060e178       0x34 ../build/output/libraries/libuc.a(lib_strerror.o)
                0x000000006060e178                strerror
 .text.strlen   0x000000006060e1ac       0x12 ../build/output/libraries/libuc.a(lib_strlen.o)
                0x000000006060e1ac                strlen
 .text.strncasecmp
                0x000000006060e1be       0x38 ../build/output/libraries/libuc.a(lib_strncasecmp.o)
                0x000000006060e1be                strncasecmp
 .text.strncmp  0x000000006060e1f6       0x20 ../build/output/libraries/libuc.a(lib_strncmp.o)
                0x000000006060e1f6                strncmp
 .text.strncpy  0x000000006060e216       0x24 ../build/output/libraries/libuc.a(lib_strncpy.o)
                0x000000006060e216                strncpy
 .text.strstr   0x000000006060e23a       0x3e ../build/output/libraries/libuc.a(lib_strstr.o)
                0x000000006060e23a                strstr
 .text.strtok_r
                0x000000006060e278       0x5a ../build/output/libraries/libuc.a(lib_strtokr.o)
                0x000000006060e278                strtok_r
 .text.memcpy   0x000000006060e2d2      0x364 ../build/output/libraries/libuc.a(lib_vikmemcpy.o)
                0x000000006060e2d2                memcpy
 *fill*         0x000000006060e636        0x2 
 .text.ether_ntoa
                0x000000006060e638       0x34 ../build/output/libraries/libuc.a(lib_etherntoa.o)
                0x000000006060e638                ether_ntoa
 .text.inet_addr
                0x000000006060e66c       0x44 ../build/output/libraries/libuc.a(lib_inetaddr.o)
                0x000000006060e66c                inet_addr
 .text.inet_ntoa
                0x000000006060e6b0       0x30 ../build/output/libraries/libuc.a(lib_inetntoa.o)
                0x000000006060e6b0                inet_ntoa
 .text.inet_ntop
                0x000000006060e6e0      0x150 ../build/output/libraries/libuc.a(lib_inetntop.o)
                0x000000006060e6e0                inet_ntop
 .text.inet_pton
                0x000000006060e830      0x180 ../build/output/libraries/libuc.a(lib_inetpton.o)
                0x000000006060e830                inet_pton
 .text.freeaddrinfo
                0x000000006060e9b0       0x80 ../build/output/libraries/libuc.a(lib_freeaddrinfo.o)
                0x000000006060e9b0                freeaddrinfo
 .text.getaddrinfo
                0x000000006060ea30       0x90 ../build/output/libraries/libuc.a(lib_getaddrinfo.o)
                0x000000006060ea30                getaddrinfo
 .text.gethostbyname
                0x000000006060eac0       0x80 ../build/output/libraries/libuc.a(lib_gethostbyname.o)
                0x000000006060eac0                gethostbyname
 .text.strftime
                0x000000006060eb40      0x1dc ../build/output/libraries/libuc.a(lib_strftime.o)
                0x000000006060eb40                strftime
 .text.clock_daysbeforemonth
                0x000000006060ed1c       0x18 ../build/output/libraries/libuc.a(lib_daysbeforemonth.o)
                0x000000006060ed1c                clock_daysbeforemonth
 .text.clock_isleapyear
                0x000000006060ed34       0x2c ../build/output/libraries/libuc.a(lib_isleapyear.o)
                0x000000006060ed34                clock_isleapyear
 .text.time     0x000000006060ed60       0x1e ../build/output/libraries/libuc.a(lib_time.o)
                0x000000006060ed60                time
 .text.detzcode
                0x000000006060ed7e       0x1a ../build/output/libraries/libuc.a(lib_localtime.o)
 .text.getzname
                0x000000006060ed98       0x1a ../build/output/libraries/libuc.a(lib_localtime.o)
 .text.getnum   0x000000006060edb2       0x32 ../build/output/libraries/libuc.a(lib_localtime.o)
 .text.getoffset
                0x000000006060ede4       0x76 ../build/output/libraries/libuc.a(lib_localtime.o)
 .text.getrule  0x000000006060ee5a       0x8e ../build/output/libraries/libuc.a(lib_localtime.o)
 .text.transtime
                0x000000006060eee8      0x114 ../build/output/libraries/libuc.a(lib_localtime.o)
 .text.increment_overflow
                0x000000006060effc       0x24 ../build/output/libraries/libuc.a(lib_localtime.o)
 .text.increment_overflow_time
                0x000000006060f020       0x1e ../build/output/libraries/libuc.a(lib_localtime.o)
 .text.normalize_overflow32
                0x000000006060f03e       0x22 ../build/output/libraries/libuc.a(lib_localtime.o)
 .text.settzname
                0x000000006060f060       0xf8 ../build/output/libraries/libuc.a(lib_localtime.o)
 .text.leaps_thru_end_of
                0x000000006060f158       0x28 ../build/output/libraries/libuc.a(lib_localtime.o)
 .text.tmcomp   0x000000006060f180       0x3e ../build/output/libraries/libuc.a(lib_localtime.o)
 *fill*         0x000000006060f1be        0x2 
 .text.timesub.isra.0
                0x000000006060f1c0      0x374 ../build/output/libraries/libuc.a(lib_localtime.o)
 .text.typesequiv.isra.0
                0x000000006060f534       0x72 ../build/output/libraries/libuc.a(lib_localtime.o)
 *fill*         0x000000006060f5a6        0x2 
 .text.tzload   0x000000006060f5a8      0x58c ../build/output/libraries/libuc.a(lib_localtime.o)
 .text.tzparse  0x000000006060fb34      0x3ec ../build/output/libraries/libuc.a(lib_localtime.o)
 .text.gmtload  0x000000006060ff20       0x24 ../build/output/libraries/libuc.a(lib_localtime.o)
 .text.gmtsub   0x000000006060ff44       0x50 ../build/output/libraries/libuc.a(lib_localtime.o)
 .text.localsub
                0x000000006060ff94       0xe4 ../build/output/libraries/libuc.a(lib_localtime.o)
 .text.time2sub.constprop.0
                0x0000000060610078      0x310 ../build/output/libraries/libuc.a(lib_localtime.o)
 .text.time2.constprop.0
                0x0000000060610388       0x20 ../build/output/libraries/libuc.a(lib_localtime.o)
 .text.tzset    0x00000000606103a8       0xf8 ../build/output/libraries/libuc.a(lib_localtime.o)
                0x00000000606103a8                tzset
 .text.localtime
                0x00000000606104a0       0x1c ../build/output/libraries/libuc.a(lib_localtime.o)
                0x00000000606104a0                localtime
 .text.localtime_r
                0x00000000606104bc        0x8 ../build/output/libraries/libuc.a(lib_localtime.o)
                0x00000000606104bc                localtime_r
 .text.gmtime   0x00000000606104c4        0xc ../build/output/libraries/libuc.a(lib_localtime.o)
                0x00000000606104c4                gmtime
 .text.gmtime_r
                0x00000000606104d0        0x8 ../build/output/libraries/libuc.a(lib_localtime.o)
                0x00000000606104d0                gmtime_r
 .text.mktime   0x00000000606104d8      0x118 ../build/output/libraries/libuc.a(lib_localtime.o)
                0x00000000606104d8                mktime
 .text.dirname  0x00000000606105f0       0x54 ../build/output/libraries/libuc.a(lib_dirname.o)
                0x00000000606105f0                dirname
 .text.ioctl    0x0000000060610644       0x1c ../build/output/libraries/libuc.a(lib_ioctl.o)
                0x0000000060610644                ioctl
 .text.isspace  0x0000000060610660       0x14 ../build/output/libraries/libuc.a(lib_sscanf.o)
 .text.findwidth
                0x0000000060610674       0x34 ../build/output/libraries/libuc.a(lib_sscanf.o)
 .text.vsscanf  0x00000000606106a8      0x580 ../build/output/libraries/libuc.a(lib_sscanf.o)
                0x00000000606106a8                vsscanf
 .text.sscanf   0x0000000060610c28       0x1a ../build/output/libraries/libuc.a(lib_sscanf.o)
                0x0000000060610c28                sscanf
 *fill*         0x0000000060610c42        0x2 
 .text.rawoutstream_putc
                0x0000000060610c44       0x54 ../build/output/libraries/libuc.a(lib_rawoutstream.o)
 .text.lib_rawoutstream
                0x0000000060610c98       0x18 ../build/output/libraries/libuc.a(lib_rawoutstream.o)
                0x0000000060610c98                lib_rawoutstream
 .text.strtoll  0x0000000060610cb0       0x7e ../build/output/libraries/libuc.a(lib_strtoll.o)
                0x0000000060610cb0                strtoll
 .text.strtoull
                0x0000000060610d2e       0x88 ../build/output/libraries/libuc.a(lib_strtoull.o)
                0x0000000060610d2e                strtoull
 .text.strtod   0x0000000060610db6      0x15a ../build/output/libraries/libuc.a(lib_strtod.o)
                0x0000000060610db6                strtod
 .text.strtof   0x0000000060610f10      0x158 ../build/output/libraries/libuc.a(lib_strtof.o)
                0x0000000060610f10                strtof
 .text.access   0x0000000060611068        0x4 ../build/output/libraries/libuc.a(lib_access.o)
                0x0000000060611068                access
 .text.strcspn  0x000000006061106c       0x1c ../build/output/libraries/libuc.a(lib_strcspn.o)
                0x000000006061106c                strcspn
 .text.strncat  0x0000000060611088       0x2a ../build/output/libraries/libuc.a(lib_strncat.o)
                0x0000000060611088                strncat
 .text.strrchr  0x00000000606110b2       0x24 ../build/output/libraries/libuc.a(lib_strrchr.o)
                0x00000000606110b2                strrchr
 .text.htons    0x00000000606110d6        0x6 ../build/output/libraries/libuc.a(lib_htons.o)
                0x00000000606110d6                htons
 .text.ntohs    0x00000000606110dc        0x6 ../build/output/libraries/libuc.a(lib_htons.o)
                0x00000000606110dc                ntohs
 .text.heapinfo_add_size
                0x00000000606110e2       0x34 ../build/output/libraries/libumm.a(mm_heapinfo_utils.o)
                0x00000000606110e2                heapinfo_add_size
 .text.heapinfo_subtract_size
                0x0000000060611116       0x1c ../build/output/libraries/libumm.a(mm_heapinfo_utils.o)
                0x0000000060611116                heapinfo_subtract_size
 *fill*         0x0000000060611132        0x2 
 .text.heapinfo_update_total_size
                0x0000000060611134       0x24 ../build/output/libraries/libumm.a(mm_heapinfo_utils.o)
                0x0000000060611134                heapinfo_update_total_size
 .text.heapinfo_update_node
                0x0000000060611158       0x24 ../build/output/libraries/libumm.a(mm_heapinfo_utils.o)
                0x0000000060611158                heapinfo_update_node
 .text.heapinfo_set_caller_addr
                0x000000006061117c       0x38 ../build/output/libraries/libumm.a(mm_heapinfo_utils.o)
                0x000000006061117c                heapinfo_set_caller_addr
 .text.heapinfo_set_stack_node
                0x00000000606111b4       0x1c ../build/output/libraries/libumm.a(mm_heapinfo_utils.o)
                0x00000000606111b4                heapinfo_set_stack_node
 .text.heapinfo_exclude_stacksize
                0x00000000606111d0       0x22 ../build/output/libraries/libumm.a(mm_heapinfo_utils.o)
                0x00000000606111d0                heapinfo_exclude_stacksize
 *fill*         0x00000000606111f2        0x2 
 .text.heapinfo_peak_init
                0x00000000606111f4       0x24 ../build/output/libraries/libumm.a(mm_heapinfo_utils.o)
                0x00000000606111f4                heapinfo_peak_init
 .text.heapinfo_dealloc_tcbinfo
                0x0000000060611218       0x28 ../build/output/libraries/libumm.a(mm_heapinfo_utils.o)
                0x0000000060611218                heapinfo_dealloc_tcbinfo
 .text.heapinfo_dump_heap
                0x0000000060611240       0x30 ../build/output/libraries/libumm.a(mm_heapinfo_utils.o)
                0x0000000060611240                heapinfo_dump_heap
 .text.free     0x0000000060611270       0x16 ../build/output/libraries/libumm.a(umm_free.o)
                0x0000000060611270                free
 *fill*         0x0000000060611286        0x2 
 .text.malloc   0x0000000060611288       0x2c ../build/output/libraries/libumm.a(umm_malloc.o)
                0x0000000060611288                malloc
 .text.realloc  0x00000000606112b4       0x34 ../build/output/libraries/libumm.a(umm_realloc.o)
                0x00000000606112b4                realloc
 .text.zalloc   0x00000000606112e8       0x2c ../build/output/libraries/libumm.a(umm_zalloc.o)
                0x00000000606112e8                zalloc
 .text.mm_seminitialize
                0x0000000060611314       0x18 ../build/output/libraries/libumm.a(mm_sem.o)
                0x0000000060611314                mm_seminitialize
 .text.mm_trysemaphore
                0x000000006061132c       0x34 ../build/output/libraries/libumm.a(mm_sem.o)
                0x000000006061132c                mm_trysemaphore
 .text.mm_takesemaphore
                0x0000000060611360       0x44 ../build/output/libraries/libumm.a(mm_sem.o)
                0x0000000060611360                mm_takesemaphore
 .text.mm_givesemaphore
                0x00000000606113a4       0x48 ../build/output/libraries/libumm.a(mm_sem.o)
                0x00000000606113a4                mm_givesemaphore
 .text.mm_is_sem_available
                0x00000000606113ec       0x28 ../build/output/libraries/libumm.a(mm_sem.o)
                0x00000000606113ec                mm_is_sem_available
 .text.mm_free  0x0000000060611414       0xe8 ../build/output/libraries/libumm.a(mm_free.o)
                0x0000000060611414                mm_free
 .text.mm_malloc
                0x00000000606114fc       0xe0 ../build/output/libraries/libumm.a(mm_malloc.o)
                0x00000000606114fc                mm_malloc
 .text.mm_realloc
                0x00000000606115dc      0x290 ../build/output/libraries/libumm.a(mm_realloc.o)
                0x00000000606115dc                mm_realloc
 .text.mm_zalloc
                0x000000006061186c       0x18 ../build/output/libraries/libumm.a(mm_zalloc.o)
                0x000000006061186c                mm_zalloc
 .text.mm_get_heap
                0x0000000060611884        0xc ../build/output/libraries/libumm.a(mm_getheap.o)
                0x0000000060611884                mm_get_heap
 .text.mm_get_heap_with_index
                0x0000000060611890       0x1c ../build/output/libraries/libumm.a(mm_getheap.o)
                0x0000000060611890                mm_get_heap_with_index
 .text.mm_get_index_of_heap
                0x00000000606118ac       0x44 ../build/output/libraries/libumm.a(mm_getheap.o)
                0x00000000606118ac                mm_get_index_of_heap
 .text.mm_ioctl_alloc_fail
                0x00000000606118f0       0x2c ../build/output/libraries/libumm.a(mm_manage_allocfail.o)
                0x00000000606118f0                mm_ioctl_alloc_fail
 .text.heap_dbg
                0x000000006061191c       0x26 ../build/output/libraries/libumm.a(mm_heap_dbg.o)
                0x000000006061191c                heap_dbg
 *fill*         0x0000000060611942        0x2 
 .text.mm_dump_heap_region
                0x0000000060611944       0x64 ../build/output/libraries/libumm.a(mm_heap_dbg.o)
                0x0000000060611944                mm_dump_heap_region
 .text.umm_initialize
                0x00000000606119a8       0x10 ../build/output/libraries/libumm.a(umm_initialize.o)
                0x00000000606119a8                umm_initialize
 .text.mm_addregion
                0x00000000606119b8       0xb0 ../build/output/libraries/libumm.a(mm_initialize.o)
                0x00000000606119b8                mm_addregion
 .text.mm_initialize
                0x0000000060611a68       0x4a ../build/output/libraries/libumm.a(mm_initialize.o)
                0x0000000060611a68                mm_initialize
 .text.mm_addfreechunk
                0x0000000060611ab2       0x38 ../build/output/libraries/libumm.a(mm_addfreechunk.o)
                0x0000000060611ab2                mm_addfreechunk
 .text.mm_size2ndx
                0x0000000060611aea       0x26 ../build/output/libraries/libumm.a(mm_size2ndx.o)
                0x0000000060611aea                mm_size2ndx
 .text.mm_shrinkchunk
                0x0000000060611b10       0x80 ../build/output/libraries/libumm.a(mm_shrinkchunk.o)
                0x0000000060611b10                mm_shrinkchunk
 .text.work_usrthread
                0x0000000060611b90       0x14 ../build/output/libraries/libuwque.a(uwork_thread.o)
 .text.get_usrwork
                0x0000000060611ba4        0x8 ../build/output/libraries/libuwque.a(uwork_thread.o)
                0x0000000060611ba4                get_usrwork
 .text.get_usrsem
                0x0000000060611bac        0x8 ../build/output/libraries/libuwque.a(uwork_thread.o)
                0x0000000060611bac                get_usrsem
 .text.work_usrstart
                0x0000000060611bb4       0x6c ../build/output/libraries/libuwque.a(uwork_thread.o)
                0x0000000060611bb4                work_usrstart
 .text.work_process
                0x0000000060611c20       0xe0 ../build/output/libraries/libuwque.a(work_process.o)
                0x0000000060611c20                work_process
 .text.work_lock
                0x0000000060611d00       0x28 ../build/output/libraries/libuwque.a(uwork_lock.o)
                0x0000000060611d00                work_lock
 .text.work_unlock
                0x0000000060611d28        0xe ../build/output/libraries/libuwque.a(uwork_lock.o)
                0x0000000060611d28                work_unlock
 *fill*         0x0000000060611d36        0x2 
 .text._process_msg
                0x0000000060611d38       0x30 ../build/output/libraries/libframework.a(wifi_manager_msghandler.o)
 .text.wifimgr_run_msghandler
                0x0000000060611d68       0x3c ../build/output/libraries/libframework.a(wifi_manager_msghandler.o)
                0x0000000060611d68                wifimgr_run_msghandler
 .text.wifimgr_post_message
                0x0000000060611da4       0x64 ../build/output/libraries/libframework.a(wifi_manager_msghandler.o)
                0x0000000060611da4                wifimgr_post_message
 .text.security_init
                0x0000000060611e08       0x6e ../build/output/libraries/libframework.a(security_common.o)
                0x0000000060611e08                security_init
 .text.security_deinit
                0x0000000060611e76       0x26 ../build/output/libraries/libframework.a(security_common.o)
                0x0000000060611e76                security_deinit
 .text.security_free_data
                0x0000000060611e9c       0x1a ../build/output/libraries/libframework.a(security_common.o)
                0x0000000060611e9c                security_free_data
 .text.security_get_status
                0x0000000060611eb6        0xe ../build/output/libraries/libframework.a(security_common.o)
                0x0000000060611eb6                security_get_status
 .text.secutils_convert_key_s2h
                0x0000000060611ec4       0x10 ../build/output/libraries/libframework.a(security_utils.o)
                0x0000000060611ec4                secutils_convert_key_s2h
 .text.secutils_convert_hashmode_s2h
                0x0000000060611ed4        0x8 ../build/output/libraries/libframework.a(security_utils.o)
                0x0000000060611ed4                secutils_convert_hashmode_s2h
 .text.secutils_convert_hmacmode_s2h
                0x0000000060611edc        0x8 ../build/output/libraries/libframework.a(security_utils.o)
                0x0000000060611edc                secutils_convert_hmacmode_s2h
 .text.secutils_convert_error_h2s
                0x0000000060611ee4       0x14 ../build/output/libraries/libframework.a(security_utils.o)
                0x0000000060611ee4                secutils_convert_error_h2s
 .text.secutils_convert_aesmode_s2h
                0x0000000060611ef8       0x10 ../build/output/libraries/libframework.a(security_utils.o)
                0x0000000060611ef8                secutils_convert_aesmode_s2h
 .text.secutils_convert_rsamode_s2h
                0x0000000060611f08        0xa ../build/output/libraries/libframework.a(security_utils.o)
                0x0000000060611f08                secutils_convert_rsamode_s2h
 .text.secutils_convert_ecdsamode_s2h
                0x0000000060611f12        0x8 ../build/output/libraries/libframework.a(security_utils.o)
                0x0000000060611f12                secutils_convert_ecdsamode_s2h
 .text.secutils_convert_dhmode_s2h
                0x0000000060611f1a        0x8 ../build/output/libraries/libframework.a(security_utils.o)
                0x0000000060611f1a                secutils_convert_dhmode_s2h
 *fill*         0x0000000060611f22        0x2 
 .text.secutils_convert_path_s2h
                0x0000000060611f24       0x30 ../build/output/libraries/libframework.a(security_utils.o)
                0x0000000060611f24                secutils_convert_path_s2h
 .text.secutils_convert_aesparam_s2h
                0x0000000060611f54       0x28 ../build/output/libraries/libframework.a(security_utils.o)
                0x0000000060611f54                secutils_convert_aesparam_s2h
 .text.secutils_convert_rsaparam_s2h
                0x0000000060611f7c       0x40 ../build/output/libraries/libframework.a(security_utils.o)
                0x0000000060611f7c                secutils_convert_rsaparam_s2h
 .text.secutils_convert_ecdsaparam_s2h
                0x0000000060611fbc       0x22 ../build/output/libraries/libframework.a(security_utils.o)
                0x0000000060611fbc                secutils_convert_ecdsaparam_s2h
 .text.secutils_convert_dhparam_s2h
                0x0000000060611fde       0x58 ../build/output/libraries/libframework.a(security_utils.o)
                0x0000000060611fde                secutils_convert_dhparam_s2h
 .text.secutils_convert_ecdhparam_s2h
                0x0000000060612036       0x42 ../build/output/libraries/libframework.a(security_utils.o)
                0x0000000060612036                secutils_convert_ecdhparam_s2h
 .text.ss_read_secure_storage
                0x0000000060612078       0x66 ../build/output/libraries/libframework.a(security_ss.o)
                0x0000000060612078                ss_read_secure_storage
 .text.ss_write_secure_storage
                0x00000000606120de       0x46 ../build/output/libraries/libframework.a(security_ss.o)
                0x00000000606120de                ss_write_secure_storage
 .text.ss_delete_secure_storage
                0x0000000060612124       0x30 ../build/output/libraries/libframework.a(security_ss.o)
                0x0000000060612124                ss_delete_secure_storage
 .text.ss_get_size_secure_storage
                0x0000000060612154        0x4 ../build/output/libraries/libframework.a(security_ss.o)
                0x0000000060612154                ss_get_size_secure_storage
 .text.ss_get_list_secure_storage
                0x0000000060612158        0x4 ../build/output/libraries/libframework.a(security_ss.o)
                0x0000000060612158                ss_get_list_secure_storage
 .text._process_msg
                0x000000006061215c       0x44 ../build/output/libraries/libframework.a(ble_manager_msghandler.o)
 .text.blemgr_run_msghandler
                0x00000000606121a0       0x48 ../build/output/libraries/libframework.a(ble_manager_msghandler.o)
                0x00000000606121a0                blemgr_run_msghandler
 .text.blemgr_post_message
                0x00000000606121e8       0x7c ../build/output/libraries/libframework.a(ble_manager_msghandler.o)
                0x00000000606121e8                blemgr_post_message
 .text._sl_convert_res
                0x0000000060612264       0x38 ../build/output/libraries/libframework.a(seclink.o)
 .text.sl_init  0x000000006061229c       0x70 ../build/output/libraries/libframework.a(seclink.o)
                0x000000006061229c                sl_init
 .text.sl_deinit
                0x000000006061230c       0x40 ../build/output/libraries/libframework.a(seclink.o)
                0x000000006061230c                sl_deinit
 .text.sl_set_key
                0x000000006061234c       0x46 ../build/output/libraries/libframework.a(seclink.o)
                0x000000006061234c                sl_set_key
 .text.sl_get_key
                0x0000000060612392       0x46 ../build/output/libraries/libframework.a(seclink.o)
                0x0000000060612392                sl_get_key
 .text.sl_remove_key
                0x00000000606123d8       0x46 ../build/output/libraries/libframework.a(seclink.o)
                0x00000000606123d8                sl_remove_key
 .text.sl_generate_key
                0x000000006061241e       0x46 ../build/output/libraries/libframework.a(seclink.o)
                0x000000006061241e                sl_generate_key
 .text.sl_generate_random
                0x0000000060612464       0x4e ../build/output/libraries/libframework.a(seclink.o)
                0x0000000060612464                sl_generate_random
 .text.sl_get_hash
                0x00000000606124b2       0x4c ../build/output/libraries/libframework.a(seclink.o)
                0x00000000606124b2                sl_get_hash
 .text.sl_get_hmac
                0x00000000606124fe       0x4a ../build/output/libraries/libframework.a(seclink.o)
                0x00000000606124fe                sl_get_hmac
 .text.sl_rsa_sign_md
                0x0000000060612548       0x52 ../build/output/libraries/libframework.a(seclink.o)
                0x0000000060612548                sl_rsa_sign_md
 .text.sl_rsa_verify_md
                0x000000006061259a       0x52 ../build/output/libraries/libframework.a(seclink.o)
                0x000000006061259a                sl_rsa_verify_md
 .text.sl_ecdsa_sign_md
                0x00000000606125ec       0x4e ../build/output/libraries/libframework.a(seclink.o)
                0x00000000606125ec                sl_ecdsa_sign_md
 .text.sl_ecdsa_verify_md
                0x000000006061263a       0x4e ../build/output/libraries/libframework.a(seclink.o)
                0x000000006061263a                sl_ecdsa_verify_md
 .text.sl_dh_generate_param
                0x0000000060612688       0x46 ../build/output/libraries/libframework.a(seclink.o)
                0x0000000060612688                sl_dh_generate_param
 .text.sl_dh_compute_shared_secret
                0x00000000606126ce       0x44 ../build/output/libraries/libframework.a(seclink.o)
                0x00000000606126ce                sl_dh_compute_shared_secret
 .text.sl_ecdh_compute_shared_secret
                0x0000000060612712       0x44 ../build/output/libraries/libframework.a(seclink.o)
                0x0000000060612712                sl_ecdh_compute_shared_secret
 .text.sl_set_certificate
                0x0000000060612756       0x4a ../build/output/libraries/libframework.a(seclink.o)
                0x0000000060612756                sl_set_certificate
 .text.sl_get_certificate
                0x00000000606127a0       0x4a ../build/output/libraries/libframework.a(seclink.o)
                0x00000000606127a0                sl_get_certificate
 .text.sl_remove_certificate
                0x00000000606127ea       0x48 ../build/output/libraries/libframework.a(seclink.o)
                0x00000000606127ea                sl_remove_certificate
 .text.sl_get_factory_key
                0x0000000060612832       0x4a ../build/output/libraries/libframework.a(seclink.o)
                0x0000000060612832                sl_get_factory_key
 .text.sl_get_factory_cert
                0x000000006061287c       0x4a ../build/output/libraries/libframework.a(seclink.o)
                0x000000006061287c                sl_get_factory_cert
 .text.sl_get_factory_data
                0x00000000606128c6       0x4a ../build/output/libraries/libframework.a(seclink.o)
                0x00000000606128c6                sl_get_factory_data
 .text.sl_aes_encrypt
                0x0000000060612910       0x48 ../build/output/libraries/libframework.a(seclink.o)
                0x0000000060612910                sl_aes_encrypt
 .text.sl_aes_decrypt
                0x0000000060612958       0x48 ../build/output/libraries/libframework.a(seclink.o)
                0x0000000060612958                sl_aes_decrypt
 .text.sl_rsa_encrypt
                0x00000000606129a0       0x48 ../build/output/libraries/libframework.a(seclink.o)
                0x00000000606129a0                sl_rsa_encrypt
 .text.sl_rsa_decrypt
                0x00000000606129e8       0x48 ../build/output/libraries/libframework.a(seclink.o)
                0x00000000606129e8                sl_rsa_decrypt
 .text.sl_write_storage
                0x0000000060612a30       0x48 ../build/output/libraries/libframework.a(seclink.o)
                0x0000000060612a30                sl_write_storage
 .text.sl_read_storage
                0x0000000060612a78       0x48 ../build/output/libraries/libframework.a(seclink.o)
                0x0000000060612a78                sl_read_storage
 .text.sl_delete_storage
                0x0000000060612ac0       0x3e ../build/output/libraries/libframework.a(seclink.o)
                0x0000000060612ac0                sl_delete_storage
 *fill*         0x0000000060612afe        0x2 
 .text.sl_strerror
                0x0000000060612b00       0x18 ../build/output/libraries/libframework.a(seclink.o)
                0x0000000060612b00                sl_strerror
 .text.wifimgr_message_in
                0x0000000060612b18       0x6c ../build/output/libraries/libframework.a(wifi_manager_message.o)
                0x0000000060612b18                wifimgr_message_in
 .text.wifimgr_message_out
                0x0000000060612b84      0x108 ../build/output/libraries/libframework.a(wifi_manager_message.o)
                0x0000000060612b84                wifimgr_message_out
 .text.wifimgr_create_msgqueue
                0x0000000060612c8c       0xf8 ../build/output/libraries/libframework.a(wifi_manager_message.o)
                0x0000000060612c8c                wifimgr_create_msgqueue
 .text.WIFIMGR_SET_STATE
                0x0000000060612d84       0x1c ../build/output/libraries/libframework.a(wifi_manager_state.o)
 .text._wifimgr_scan
                0x0000000060612da0       0x88 ../build/output/libraries/libframework.a(wifi_manager_state.o)
 .text._wifimgr_scan_multi_aps
                0x0000000060612e28       0xa8 ../build/output/libraries/libframework.a(wifi_manager_state.o)
 .text._wifimgr_deinit
                0x0000000060612ed0       0x28 ../build/output/libraries/libframework.a(wifi_manager_state.o)
 .text.WIFIMGR_SEND_API_SIGNAL
                0x0000000060612ef8        0x8 ../build/output/libraries/libframework.a(wifi_manager_state.o)
 .text._wifimgr_disconnect_ap
                0x0000000060612f00       0x24 ../build/output/libraries/libframework.a(wifi_manager_state.o)
 .text._handler_on_connected_state
                0x0000000060612f24       0xf0 ../build/output/libraries/libframework.a(wifi_manager_state.o)
 .text._wifimgr_run_softap
                0x0000000060613014       0xb4 ../build/output/libraries/libframework.a(wifi_manager_state.o)
 .text._handler_on_disconnecting_state
                0x00000000606130c8       0xc4 ../build/output/libraries/libframework.a(wifi_manager_state.o)
 .text._handler_on_disconnected_state
                0x000000006061318c       0xf0 ../build/output/libraries/libframework.a(wifi_manager_state.o)
 .text._wifimgr_stop_softap
                0x000000006061327c       0x38 ../build/output/libraries/libframework.a(wifi_manager_state.o)
 .text._handler_on_softap_state
                0x00000000606132b4       0xe4 ../build/output/libraries/libframework.a(wifi_manager_state.o)
 .text._handler_on_connecting_state
                0x0000000060613398       0x74 ../build/output/libraries/libframework.a(wifi_manager_state.o)
 .text._handler_on_uninitialized_state
                0x000000006061340c       0x60 ../build/output/libraries/libframework.a(wifi_manager_state.o)
 .text._handler_on_scanning_state
                0x000000006061346c       0x60 ../build/output/libraries/libframework.a(wifi_manager_state.o)
 .text._handler_get_stats
                0x00000000606134cc       0x6a ../build/output/libraries/libframework.a(wifi_manager_state.o)
                0x00000000606134cc                _handler_get_stats
 .text._handler_set_powermode
                0x0000000060613536       0x28 ../build/output/libraries/libframework.a(wifi_manager_state.o)
                0x0000000060613536                _handler_set_powermode
 *fill*         0x000000006061355e        0x2 
 .text.wifimgr_handle_request
                0x0000000060613560       0x5c ../build/output/libraries/libframework.a(wifi_manager_state.o)
                0x0000000060613560                wifimgr_handle_request
 .text.wifimgr_inc_stats
                0x00000000606135bc       0x14 ../build/output/libraries/libframework.a(wifi_manager_stats.o)
                0x00000000606135bc                wifimgr_inc_stats
 .text.wifimgr_get_stats
                0x00000000606135d0       0x28 ../build/output/libraries/libframework.a(wifi_manager_stats.o)
                0x00000000606135d0                wifimgr_get_stats
 .text.wifimgr_get_evt_str
                0x00000000606135f8        0xc ../build/output/libraries/libframework.a(wifi_manager_event.o)
                0x00000000606135f8                wifimgr_get_evt_str
 .text.wifimgr_convert2wifimgr_res
                0x0000000060613604       0x14 ../build/output/libraries/libframework.a(wifi_manager_utils.o)
                0x0000000060613604                wifimgr_convert2wifimgr_res
 .text.wifimgr_convert2trwifi_auth
                0x0000000060613618        0x8 ../build/output/libraries/libframework.a(wifi_manager_utils.o)
                0x0000000060613618                wifimgr_convert2trwifi_auth
 .text.wifimgr_convert2trwifi_crypto
                0x0000000060613620        0x8 ../build/output/libraries/libframework.a(wifi_manager_utils.o)
                0x0000000060613620                wifimgr_convert2trwifi_crypto
 .text.wifimgr_convert2wifimgr_auth
                0x0000000060613628        0x8 ../build/output/libraries/libframework.a(wifi_manager_utils.o)
                0x0000000060613628                wifimgr_convert2wifimgr_auth
 .text.wifimgr_convert2wifimgr_crypto
                0x0000000060613630        0x8 ../build/output/libraries/libframework.a(wifi_manager_utils.o)
                0x0000000060613630                wifimgr_convert2wifimgr_crypto
 .text.wifimgr_get_info
                0x0000000060613638       0x6c ../build/output/libraries/libframework.a(wifi_manager_info.o)
                0x0000000060613638                wifimgr_get_info
 .text.wifimgr_set_info
                0x00000000606136a4       0x5c ../build/output/libraries/libframework.a(wifi_manager_info.o)
                0x00000000606136a4                wifimgr_set_info
 .text.dhcpc_get_ipaddr
                0x0000000060613700       0x30 ../build/output/libraries/libframework.a(wifi_manager_dhcpc.o)
                0x0000000060613700                dhcpc_get_ipaddr
 .text.dhcpc_close_ipaddr
                0x0000000060613730       0x5c ../build/output/libraries/libframework.a(wifi_manager_dhcpc.o)
                0x0000000060613730                dhcpc_close_ipaddr
 .text._wifi_dhcps_event
                0x000000006061378c       0x2c ../build/output/libraries/libframework.a(wifi_manager_dhcps.o)
                0x000000006061378c                _wifi_dhcps_event
 .text.dhcps_inc_num
                0x00000000606137b8       0x1c ../build/output/libraries/libframework.a(wifi_manager_dhcps.o)
                0x00000000606137b8                dhcps_inc_num
 .text.dhcps_dec_num
                0x00000000606137d4       0x1c ../build/output/libraries/libframework.a(wifi_manager_dhcps.o)
                0x00000000606137d4                dhcps_dec_num
 .text.dhcps_reset_num
                0x00000000606137f0        0xc ../build/output/libraries/libframework.a(wifi_manager_dhcps.o)
                0x00000000606137f0                dhcps_reset_num
 .text.dhcps_get_num
                0x00000000606137fc        0xc ../build/output/libraries/libframework.a(wifi_manager_dhcps.o)
                0x00000000606137fc                dhcps_get_num
 .text.dhcps_add_node
                0x0000000060613808       0x44 ../build/output/libraries/libframework.a(wifi_manager_dhcps.o)
                0x0000000060613808                dhcps_add_node
 .text.dhcps_del_node
                0x000000006061384c       0x10 ../build/output/libraries/libframework.a(wifi_manager_dhcps.o)
                0x000000006061384c                dhcps_del_node
 .text.wm_dhcps_start
                0x000000006061385c       0x80 ../build/output/libraries/libframework.a(wifi_manager_dhcps.o)
                0x000000006061385c                wm_dhcps_start
 .text.wm_dhcps_stop
                0x00000000606138dc       0x6c ../build/output/libraries/libframework.a(wifi_manager_dhcps.o)
                0x00000000606138dc                wm_dhcps_stop
 .text._send_msg
                0x0000000060613948       0x4c ../build/output/libraries/libframework.a(wifi_manager_lwnl.o)
 .text.wifi_utils_init
                0x0000000060613994       0x44 ../build/output/libraries/libframework.a(wifi_manager_lwnl.o)
                0x0000000060613994                wifi_utils_init
 .text.wifi_utils_deinit
                0x00000000606139d8       0x44 ../build/output/libraries/libframework.a(wifi_manager_lwnl.o)
                0x00000000606139d8                wifi_utils_deinit
 .text.wifi_utils_scan_ap
                0x0000000060613a1c       0x48 ../build/output/libraries/libframework.a(wifi_manager_lwnl.o)
                0x0000000060613a1c                wifi_utils_scan_ap
 .text.wifi_utils_connect_ap
                0x0000000060613a64       0x48 ../build/output/libraries/libframework.a(wifi_manager_lwnl.o)
                0x0000000060613a64                wifi_utils_connect_ap
 .text.wifi_utils_disconnect_ap
                0x0000000060613aac       0x44 ../build/output/libraries/libframework.a(wifi_manager_lwnl.o)
                0x0000000060613aac                wifi_utils_disconnect_ap
 .text.wifi_utils_start_softap
                0x0000000060613af0       0x48 ../build/output/libraries/libframework.a(wifi_manager_lwnl.o)
                0x0000000060613af0                wifi_utils_start_softap
 .text.wifi_utils_start_sta
                0x0000000060613b38       0x44 ../build/output/libraries/libframework.a(wifi_manager_lwnl.o)
                0x0000000060613b38                wifi_utils_start_sta
 .text.wifi_utils_stop_softap
                0x0000000060613b7c       0x44 ../build/output/libraries/libframework.a(wifi_manager_lwnl.o)
                0x0000000060613b7c                wifi_utils_stop_softap
 .text.wifi_utils_set_autoconnect
                0x0000000060613bc0       0x50 ../build/output/libraries/libframework.a(wifi_manager_lwnl.o)
                0x0000000060613bc0                wifi_utils_set_autoconnect
 .text.wifi_utils_ioctl
                0x0000000060613c10       0x48 ../build/output/libraries/libframework.a(wifi_manager_lwnl.o)
                0x0000000060613c10                wifi_utils_ioctl
 .text.wifi_utils_scan_multi_aps
                0x0000000060613c58       0x4c ../build/output/libraries/libframework.a(wifi_manager_lwnl.o)
                0x0000000060613c58                wifi_utils_scan_multi_aps
 .text.wifi_utils_get_info
                0x0000000060613ca4       0x48 ../build/output/libraries/libframework.a(wifi_manager_lwnl.o)
                0x0000000060613ca4                wifi_utils_get_info
 .text.lwnl_fetch_event
                0x0000000060613cec      0x19c ../build/output/libraries/libframework.a(wifi_manager_lwnl_listener.o)
                0x0000000060613cec                lwnl_fetch_event
 .text.blemgr_message_in
                0x0000000060613e88       0xa0 ../build/output/libraries/libframework.a(ble_manager_message.o)
                0x0000000060613e88                blemgr_message_in
 .text.blemgr_message_out
                0x0000000060613f28      0x148 ../build/output/libraries/libframework.a(ble_manager_message.o)
                0x0000000060613f28                blemgr_message_out
 .text.blemgr_create_msgqueue
                0x0000000060614070      0x10c ../build/output/libraries/libframework.a(ble_manager_message.o)
                0x0000000060614070                blemgr_create_msgqueue
 .text.wifimgr_register_cb
                0x000000006061417c       0x38 ../build/output/libraries/libframework.a(wifi_manager_cb.o)
                0x000000006061417c                wifimgr_register_cb
 .text.wifimgr_unregister_cb
                0x00000000606141b4       0x48 ../build/output/libraries/libframework.a(wifi_manager_cb.o)
                0x00000000606141b4                wifimgr_unregister_cb
 .text.wifimgr_call_cb
                0x00000000606141fc      0x16c ../build/output/libraries/libframework.a(wifi_manager_cb.o)
                0x00000000606141fc                wifimgr_call_cb
 .text.wifimgr_unregister_all
                0x0000000060614368       0x38 ../build/output/libraries/libframework.a(wifi_manager_cb.o)
                0x0000000060614368                wifimgr_unregister_all
 .text.lwnl_fetch_ble_event
                0x00000000606143a0      0x130 ../build/output/libraries/libframework.a(ble_manager_lwnl_listener.o)
                0x00000000606143a0                lwnl_fetch_ble_event
 .text._whitelist_is_exist
                0x00000000606144d0       0x3c ../build/output/libraries/libframework.a(ble_manager_state.o)
 .text._event_caller
                0x000000006061450c       0xa8 ../build/output/libraries/libframework.a(ble_manager_state.o)
 .text.blemgr_handle_request
                0x00000000606145b4      0xdd0 ../build/output/libraries/libframework.a(ble_manager_state.o)
                0x00000000606145b4                blemgr_handle_request
 .text._autocon_process
                0x0000000060615384      0x184 ../build/output/libraries/libframework.a(ble_manager_autoconnect.o)
 .text.ble_auto_device_scanned_cb
                0x0000000060615508       0x54 ../build/output/libraries/libframework.a(ble_manager_autoconnect.o)
 .text.ble_auto_scan_state_changed_cb
                0x000000006061555c       0x48 ../build/output/libraries/libframework.a(ble_manager_autoconnect.o)
 .text.ble_manager_autoconnect
                0x00000000606155a4       0x70 ../build/output/libraries/libframework.a(ble_manager_autoconnect.o)
                0x00000000606155a4                ble_manager_autoconnect
 .text._ble_evt_handler
                0x0000000060615614       0xe0 ../build/output/libraries/libframework.a(ble_queue.o)
 .text.ble_queue_init
                0x00000000606156f4       0xb4 ../build/output/libraries/libframework.a(ble_queue.o)
                0x00000000606156f4                ble_queue_init
 .text.ble_queue_deinit
                0x00000000606157a8       0x54 ../build/output/libraries/libframework.a(ble_queue.o)
                0x00000000606157a8                ble_queue_deinit
 .text.ble_queue_pri_set
                0x00000000606157fc       0x84 ../build/output/libraries/libframework.a(ble_queue.o)
                0x00000000606157fc                ble_queue_pri_set
 .text.ble_queue_enque
                0x0000000060615880       0x54 ../build/output/libraries/libframework.a(ble_queue.o)
                0x0000000060615880                ble_queue_enque
 .text.ble_queue_get_pri_queue
                0x00000000606158d4       0x14 ../build/output/libraries/libframework.a(ble_queue.o)
                0x00000000606158d4                ble_queue_get_pri_queue
 .text.ble_manager_init
                0x00000000606158e8       0x26 ../build/output/libraries/libframework.a(ble_manager_api.o)
                0x00000000606158e8                ble_manager_init
 .text.ble_manager_deinit
                0x000000006061590e       0x28 ../build/output/libraries/libframework.a(ble_manager_api.o)
                0x000000006061590e                ble_manager_deinit
 .text.ble_manager_get_mac_addr
                0x0000000060615936       0x2a ../build/output/libraries/libframework.a(ble_manager_api.o)
                0x0000000060615936                ble_manager_get_mac_addr
 .text.ble_manager_get_bonded_device
                0x0000000060615960       0x42 ../build/output/libraries/libframework.a(ble_manager_api.o)
                0x0000000060615960                ble_manager_get_bonded_device
 .text.ble_manager_delete_bonded
                0x00000000606159a2       0x2a ../build/output/libraries/libframework.a(ble_manager_api.o)
                0x00000000606159a2                ble_manager_delete_bonded
 .text.ble_manager_delete_bonded_all
                0x00000000606159cc       0x28 ../build/output/libraries/libframework.a(ble_manager_api.o)
                0x00000000606159cc                ble_manager_delete_bonded_all
 .text.ble_manager_conn_is_active
                0x00000000606159f4       0x4a ../build/output/libraries/libframework.a(ble_manager_api.o)
                0x00000000606159f4                ble_manager_conn_is_active
 .text.ble_manager_conn_is_any_active
                0x0000000060615a3e       0x2a ../build/output/libraries/libframework.a(ble_manager_api.o)
                0x0000000060615a3e                ble_manager_conn_is_any_active
 .text.ble_manager_get_version
                0x0000000060615a68       0x2a ../build/output/libraries/libframework.a(ble_manager_api.o)
                0x0000000060615a68                ble_manager_get_version
 .text.ble_manager_conn_param_update
                0x0000000060615a92       0x42 ../build/output/libraries/libframework.a(ble_manager_api.o)
                0x0000000060615a92                ble_manager_conn_param_update
 .text.ble_client_start_scan
                0x0000000060615ad4       0x42 ../build/output/libraries/libframework.a(ble_manager_api.o)
                0x0000000060615ad4                ble_client_start_scan
 .text.ble_client_stop_scan
                0x0000000060615b16       0x28 ../build/output/libraries/libframework.a(ble_manager_api.o)
                0x0000000060615b16                ble_client_stop_scan
 .text.ble_scan_whitelist_add
                0x0000000060615b3e       0x2a ../build/output/libraries/libframework.a(ble_manager_api.o)
                0x0000000060615b3e                ble_scan_whitelist_add
 .text.ble_scan_whitelist_delete
                0x0000000060615b68       0x2a ../build/output/libraries/libframework.a(ble_manager_api.o)
                0x0000000060615b68                ble_scan_whitelist_delete
 .text.ble_scan_whitelist_clear_all
                0x0000000060615b92       0x28 ../build/output/libraries/libframework.a(ble_manager_api.o)
                0x0000000060615b92                ble_scan_whitelist_clear_all
 .text.ble_scan_whitelist_list
                0x0000000060615bba       0x52 ../build/output/libraries/libframework.a(ble_manager_api.o)
                0x0000000060615bba                ble_scan_whitelist_list
 .text.ble_client_create_ctx
                0x0000000060615c0c       0x30 ../build/output/libraries/libframework.a(ble_manager_api.o)
                0x0000000060615c0c                ble_client_create_ctx
 .text.ble_client_destroy_ctx
                0x0000000060615c3c       0x2a ../build/output/libraries/libframework.a(ble_manager_api.o)
                0x0000000060615c3c                ble_client_destroy_ctx
 .text.ble_client_get_state
                0x0000000060615c66       0x32 ../build/output/libraries/libframework.a(ble_manager_api.o)
                0x0000000060615c66                ble_client_get_state
 .text.ble_client_connect
                0x0000000060615c98       0x42 ../build/output/libraries/libframework.a(ble_manager_api.o)
                0x0000000060615c98                ble_client_connect
 .text.ble_client_autoconnect
                0x0000000060615cda       0x32 ../build/output/libraries/libframework.a(ble_manager_api.o)
                0x0000000060615cda                ble_client_autoconnect
 .text.ble_client_reconnect
                0x0000000060615d0c       0x2a ../build/output/libraries/libframework.a(ble_manager_api.o)
                0x0000000060615d0c                ble_client_reconnect
 .text.ble_client_disconnect
                0x0000000060615d36       0x2a ../build/output/libraries/libframework.a(ble_manager_api.o)
                0x0000000060615d36                ble_client_disconnect
 .text.ble_client_disconnect_all
                0x0000000060615d60       0x28 ../build/output/libraries/libframework.a(ble_manager_api.o)
                0x0000000060615d60                ble_client_disconnect_all
 .text.ble_client_connected_device_list
                0x0000000060615d88       0x2a ../build/output/libraries/libframework.a(ble_manager_api.o)
                0x0000000060615d88                ble_client_connected_device_list
 .text.ble_client_connected_info
                0x0000000060615db2       0x42 ../build/output/libraries/libframework.a(ble_manager_api.o)
                0x0000000060615db2                ble_client_connected_info
 .text.ble_client_operation_enable_notification
                0x0000000060615df4       0x4a ../build/output/libraries/libframework.a(ble_manager_api.o)
                0x0000000060615df4                ble_client_operation_enable_notification
 .text.ble_client_operation_enable_indication
                0x0000000060615e3e       0x4a ../build/output/libraries/libframework.a(ble_manager_api.o)
                0x0000000060615e3e                ble_client_operation_enable_indication
 .text.ble_client_operation_enable_notification_and_indication
                0x0000000060615e88       0x4a ../build/output/libraries/libframework.a(ble_manager_api.o)
                0x0000000060615e88                ble_client_operation_enable_notification_and_indication
 .text.ble_client_operation_read
                0x0000000060615ed2       0x4c ../build/output/libraries/libframework.a(ble_manager_api.o)
                0x0000000060615ed2                ble_client_operation_read
 .text.ble_client_operation_write
                0x0000000060615f1e       0x4c ../build/output/libraries/libframework.a(ble_manager_api.o)
                0x0000000060615f1e                ble_client_operation_write
 .text.ble_client_operation_write_no_response
                0x0000000060615f6a       0x4c ../build/output/libraries/libframework.a(ble_manager_api.o)
                0x0000000060615f6a                ble_client_operation_write_no_response
 .text.ble_server_get_profile_count
                0x0000000060615fb6       0x2a ../build/output/libraries/libframework.a(ble_manager_api.o)
                0x0000000060615fb6                ble_server_get_profile_count
 .text.ble_server_charact_notify
                0x0000000060615fe0       0x52 ../build/output/libraries/libframework.a(ble_manager_api.o)
                0x0000000060615fe0                ble_server_charact_notify
 .text.ble_server_charact_indicate
                0x0000000060616032       0x52 ../build/output/libraries/libframework.a(ble_manager_api.o)
                0x0000000060616032                ble_server_charact_indicate
 .text.ble_server_get_indicate_pending_count
                0x0000000060616084       0x52 ../build/output/libraries/libframework.a(ble_manager_api.o)
                0x0000000060616084                ble_server_get_indicate_pending_count
 .text.ble_server_attr_set_data
                0x00000000606160d6       0x4a ../build/output/libraries/libframework.a(ble_manager_api.o)
                0x00000000606160d6                ble_server_attr_set_data
 .text.ble_server_attr_get_data
                0x0000000060616120       0x4a ../build/output/libraries/libframework.a(ble_manager_api.o)
                0x0000000060616120                ble_server_attr_get_data
 .text.ble_server_reject
                0x000000006061616a       0x52 ../build/output/libraries/libframework.a(ble_manager_api.o)
                0x000000006061616a                ble_server_reject
 .text.ble_server_disconnect
                0x00000000606161bc       0x34 ../build/output/libraries/libframework.a(ble_manager_api.o)
                0x00000000606161bc                ble_server_disconnect
 .text.ble_server_get_mac_addr_by_conn_handle
                0x00000000606161f0       0x4a ../build/output/libraries/libframework.a(ble_manager_api.o)
                0x00000000606161f0                ble_server_get_mac_addr_by_conn_handle
 .text.ble_server_get_conn_handle_by_addr
                0x000000006061623a       0x42 ../build/output/libraries/libframework.a(ble_manager_api.o)
                0x000000006061623a                ble_server_get_conn_handle_by_addr
 .text.ble_server_set_adv_data
                0x000000006061627c       0x2a ../build/output/libraries/libframework.a(ble_manager_api.o)
                0x000000006061627c                ble_server_set_adv_data
 .text.ble_server_set_adv_resp
                0x00000000606162a6       0x2a ../build/output/libraries/libframework.a(ble_manager_api.o)
                0x00000000606162a6                ble_server_set_adv_resp
 .text.ble_server_set_adv_type
                0x00000000606162d0       0x4a ../build/output/libraries/libframework.a(ble_manager_api.o)
                0x00000000606162d0                ble_server_set_adv_type
 .text.ble_server_set_adv_interval
                0x000000006061631a       0x30 ../build/output/libraries/libframework.a(ble_manager_api.o)
                0x000000006061631a                ble_server_set_adv_interval
 .text.ble_server_set_adv_tx_power
                0x000000006061634a       0x34 ../build/output/libraries/libframework.a(ble_manager_api.o)
                0x000000006061634a                ble_server_set_adv_tx_power
 .text.ble_server_start_adv
                0x000000006061637e       0x28 ../build/output/libraries/libframework.a(ble_manager_api.o)
                0x000000006061637e                ble_server_start_adv
 .text.ble_server_one_shot_adv_init
                0x00000000606163a6       0x28 ../build/output/libraries/libframework.a(ble_manager_api.o)
                0x00000000606163a6                ble_server_one_shot_adv_init
 .text.ble_server_one_shot_adv_deinit
                0x00000000606163ce       0x28 ../build/output/libraries/libframework.a(ble_manager_api.o)
                0x00000000606163ce                ble_server_one_shot_adv_deinit
 .text.ble_server_one_shot_adv
                0x00000000606163f6       0x4c ../build/output/libraries/libframework.a(ble_manager_api.o)
                0x00000000606163f6                ble_server_one_shot_adv
 .text.ble_server_stop_adv
                0x0000000060616442       0x28 ../build/output/libraries/libframework.a(ble_manager_api.o)
                0x0000000060616442                ble_server_stop_adv
 .text.ble_server_set_device_name
                0x000000006061646a       0x2a ../build/output/libraries/libframework.a(ble_manager_api.o)
                0x000000006061646a                ble_server_set_device_name
 .text._send_msg
                0x0000000060616494       0x58 ../build/output/libraries/libframework.a(ble_manager_lwnl.o)
 .text.ble_drv_init
                0x00000000606164ec       0x5c ../build/output/libraries/libframework.a(ble_manager_lwnl.o)
                0x00000000606164ec                ble_drv_init
 .text.ble_drv_deinit
                0x0000000060616548       0x48 ../build/output/libraries/libframework.a(ble_manager_lwnl.o)
                0x0000000060616548                ble_drv_deinit
 .text.ble_drv_get_mac_addr
                0x0000000060616590       0x4c ../build/output/libraries/libframework.a(ble_manager_lwnl.o)
                0x0000000060616590                ble_drv_get_mac_addr
 .text.ble_drv_get_bonded_device
                0x00000000606165dc       0x60 ../build/output/libraries/libframework.a(ble_manager_lwnl.o)
                0x00000000606165dc                ble_drv_get_bonded_device
 .text.ble_drv_delete_bonded
                0x000000006061663c       0x4c ../build/output/libraries/libframework.a(ble_manager_lwnl.o)
                0x000000006061663c                ble_drv_delete_bonded
 .text.ble_drv_delete_bonded_all
                0x0000000060616688       0x48 ../build/output/libraries/libframework.a(ble_manager_lwnl.o)
                0x0000000060616688                ble_drv_delete_bonded_all
 .text.ble_drv_conn_is_active
                0x00000000606166d0       0x68 ../build/output/libraries/libframework.a(ble_manager_lwnl.o)
                0x00000000606166d0                ble_drv_conn_is_active
 .text.ble_drv_conn_is_any_active
                0x0000000060616738       0x48 ../build/output/libraries/libframework.a(ble_manager_lwnl.o)
                0x0000000060616738                ble_drv_conn_is_any_active
 .text.ble_drv_ioctl
                0x0000000060616780       0x4c ../build/output/libraries/libframework.a(ble_manager_lwnl.o)
                0x0000000060616780                ble_drv_ioctl
 .text.ble_drv_start_scan
                0x00000000606167cc       0x4c ../build/output/libraries/libframework.a(ble_manager_lwnl.o)
                0x00000000606167cc                ble_drv_start_scan
 .text.ble_drv_stop_scan
                0x0000000060616818       0x48 ../build/output/libraries/libframework.a(ble_manager_lwnl.o)
                0x0000000060616818                ble_drv_stop_scan
 .text.ble_drv_scan_whitelist_add
                0x0000000060616860       0x48 ../build/output/libraries/libframework.a(ble_manager_lwnl.o)
                0x0000000060616860                ble_drv_scan_whitelist_add
 .text.ble_drv_scan_whitelist_delete
                0x00000000606168a8       0x48 ../build/output/libraries/libframework.a(ble_manager_lwnl.o)
                0x00000000606168a8                ble_drv_scan_whitelist_delete
 .text.ble_drv_scan_whitelist_clear_all
                0x00000000606168f0       0x48 ../build/output/libraries/libframework.a(ble_manager_lwnl.o)
                0x00000000606168f0                ble_drv_scan_whitelist_clear_all
 .text.ble_drv_client_connect
                0x0000000060616938       0x4c ../build/output/libraries/libframework.a(ble_manager_lwnl.o)
                0x0000000060616938                ble_drv_client_connect
 .text.ble_drv_client_disconnect
                0x0000000060616984       0x50 ../build/output/libraries/libframework.a(ble_manager_lwnl.o)
                0x0000000060616984                ble_drv_client_disconnect
 .text.ble_drv_client_disconnect_all
                0x00000000606169d4       0x48 ../build/output/libraries/libframework.a(ble_manager_lwnl.o)
                0x00000000606169d4                ble_drv_client_disconnect_all
 .text.ble_drv_connected_device_list
                0x0000000060616a1c       0x4c ../build/output/libraries/libframework.a(ble_manager_lwnl.o)
                0x0000000060616a1c                ble_drv_connected_device_list
 .text.ble_drv_connected_info
                0x0000000060616a68       0x68 ../build/output/libraries/libframework.a(ble_manager_lwnl.o)
                0x0000000060616a68                ble_drv_connected_info
 .text.ble_drv_operation_enable_notification
                0x0000000060616ad0       0x4c ../build/output/libraries/libframework.a(ble_manager_lwnl.o)
                0x0000000060616ad0                ble_drv_operation_enable_notification
 .text.ble_drv_operation_enable_indication
                0x0000000060616b1c       0x60 ../build/output/libraries/libframework.a(ble_manager_lwnl.o)
                0x0000000060616b1c                ble_drv_operation_enable_indication
 .text.ble_drv_operation_enable_notification_and_indication
                0x0000000060616b7c       0x60 ../build/output/libraries/libframework.a(ble_manager_lwnl.o)
                0x0000000060616b7c                ble_drv_operation_enable_notification_and_indication
 .text.ble_drv_operation_read
                0x0000000060616bdc       0x60 ../build/output/libraries/libframework.a(ble_manager_lwnl.o)
                0x0000000060616bdc                ble_drv_operation_read
 .text.ble_drv_operation_write
                0x0000000060616c3c       0x60 ../build/output/libraries/libframework.a(ble_manager_lwnl.o)
                0x0000000060616c3c                ble_drv_operation_write
 .text.ble_drv_operation_write_no_response
                0x0000000060616c9c       0x60 ../build/output/libraries/libframework.a(ble_manager_lwnl.o)
                0x0000000060616c9c                ble_drv_operation_write_no_response
 .text.ble_drv_get_profile_count
                0x0000000060616cfc       0x4c ../build/output/libraries/libframework.a(ble_manager_lwnl.o)
                0x0000000060616cfc                ble_drv_get_profile_count
 .text.ble_drv_charact_notify
                0x0000000060616d48       0x70 ../build/output/libraries/libframework.a(ble_manager_lwnl.o)
                0x0000000060616d48                ble_drv_charact_notify
 .text.ble_drv_charact_indicate
                0x0000000060616db8       0x70 ../build/output/libraries/libframework.a(ble_manager_lwnl.o)
                0x0000000060616db8                ble_drv_charact_indicate
 .text.ble_drv_get_indicate_pending_cnt
                0x0000000060616e28       0x60 ../build/output/libraries/libframework.a(ble_manager_lwnl.o)
                0x0000000060616e28                ble_drv_get_indicate_pending_cnt
 .text.ble_drv_attr_set_data
                0x0000000060616e88       0x68 ../build/output/libraries/libframework.a(ble_manager_lwnl.o)
                0x0000000060616e88                ble_drv_attr_set_data
 .text.ble_drv_attr_get_data
                0x0000000060616ef0       0x68 ../build/output/libraries/libframework.a(ble_manager_lwnl.o)
                0x0000000060616ef0                ble_drv_attr_get_data
 .text.ble_drv_attr_reject
                0x0000000060616f58       0x70 ../build/output/libraries/libframework.a(ble_manager_lwnl.o)
                0x0000000060616f58                ble_drv_attr_reject
 .text.ble_drv_conn_param_update
                0x0000000060616fc8       0x60 ../build/output/libraries/libframework.a(ble_manager_lwnl.o)
                0x0000000060616fc8                ble_drv_conn_param_update
 .text.ble_drv_server_disconnect
                0x0000000060617028       0x50 ../build/output/libraries/libframework.a(ble_manager_lwnl.o)
                0x0000000060617028                ble_drv_server_disconnect
 .text.ble_drv_get_mac_addr_by_conn_handle
                0x0000000060617078       0x68 ../build/output/libraries/libframework.a(ble_manager_lwnl.o)
                0x0000000060617078                ble_drv_get_mac_addr_by_conn_handle
 .text.ble_drv_get_conn_handle_by_addr
                0x00000000606170e0       0x60 ../build/output/libraries/libframework.a(ble_manager_lwnl.o)
                0x00000000606170e0                ble_drv_get_conn_handle_by_addr
 .text.ble_drv_set_adv_data
                0x0000000060617140       0x4c ../build/output/libraries/libframework.a(ble_manager_lwnl.o)
                0x0000000060617140                ble_drv_set_adv_data
 .text.ble_drv_set_adv_resp
                0x000000006061718c       0x4c ../build/output/libraries/libframework.a(ble_manager_lwnl.o)
                0x000000006061718c                ble_drv_set_adv_resp
 .text.ble_drv_set_adv_type
                0x00000000606171d8       0x68 ../build/output/libraries/libframework.a(ble_manager_lwnl.o)
                0x00000000606171d8                ble_drv_set_adv_type
 .text.ble_drv_set_adv_interval
                0x0000000060617240       0x50 ../build/output/libraries/libframework.a(ble_manager_lwnl.o)
                0x0000000060617240                ble_drv_set_adv_interval
 .text.ble_drv_set_adv_txpower
                0x0000000060617290       0x50 ../build/output/libraries/libframework.a(ble_manager_lwnl.o)
                0x0000000060617290                ble_drv_set_adv_txpower
 .text.ble_drv_start_adv
                0x00000000606172e0       0x48 ../build/output/libraries/libframework.a(ble_manager_lwnl.o)
                0x00000000606172e0                ble_drv_start_adv
 .text.ble_drv_stop_adv
                0x0000000060617328       0x48 ../build/output/libraries/libframework.a(ble_manager_lwnl.o)
                0x0000000060617328                ble_drv_stop_adv
 .text.ble_drv_one_shot_adv_init
                0x0000000060617370       0x48 ../build/output/libraries/libframework.a(ble_manager_lwnl.o)
                0x0000000060617370                ble_drv_one_shot_adv_init
 .text.ble_drv_one_shot_adv_deinit
                0x00000000606173b8       0x48 ../build/output/libraries/libframework.a(ble_manager_lwnl.o)
                0x00000000606173b8                ble_drv_one_shot_adv_deinit
 .text.ble_drv_one_shot_adv
                0x0000000060617400       0x60 ../build/output/libraries/libframework.a(ble_manager_lwnl.o)
                0x0000000060617400                ble_drv_one_shot_adv
 .text.ble_drv_set_device_name
                0x0000000060617460       0x4c ../build/output/libraries/libframework.a(ble_manager_lwnl.o)
                0x0000000060617460                ble_drv_set_device_name
 .text.__cxa_callback
                0x00000000606174ac       0x30 ../build/output/libraries/libcxx.a(libxx_cxa_atexit.o)
 .text.__cxa_atexit
                0x00000000606174dc       0x24 ../build/output/libraries/libcxx.a(libxx_cxa_atexit.o)
                0x00000000606174dc                __cxa_atexit
 .text.netlib_ipaddrconv
                0x0000000060617500       0x50 ../build/output/libraries/libexternal.a(netlib.o)
                0x0000000060617500                netlib_ipaddrconv
 .text.netlib_hwmacconv
                0x0000000060617550       0x84 ../build/output/libraries/libexternal.a(netlib.o)
                0x0000000060617550                netlib_hwmacconv
 .text.netlib_ifup
                0x00000000606175d4       0x56 ../build/output/libraries/libexternal.a(netlib_setifstatus.o)
                0x00000000606175d4                netlib_ifup
 .text.netlib_ifdown
                0x000000006061762a       0x56 ../build/output/libraries/libexternal.a(netlib_setifstatus.o)
                0x000000006061762a                netlib_ifdown
 .text.netlib_getifstatus
                0x0000000060617680       0x54 ../build/output/libraries/libexternal.a(netlib_getifstatus.o)
                0x0000000060617680                netlib_getifstatus
 .text.netlib_getifaddrs
                0x00000000606176d4       0x94 ../build/output/libraries/libexternal.a(netlib_getifaddrs.o)
                0x00000000606176d4                netlib_getifaddrs
 .text.netlib_freeifaddrs
                0x0000000060617768       0x32 ../build/output/libraries/libexternal.a(netlib_getifaddrs.o)
                0x0000000060617768                netlib_freeifaddrs
 *fill*         0x000000006061779a        0x2 
 .text.netlib_getstats
                0x000000006061779c       0x6c ../build/output/libraries/libexternal.a(netlib_getstats.o)
                0x000000006061779c                netlib_getstats
 .text.netlib_netmon_sock
                0x0000000060617808       0x6c ../build/output/libraries/libexternal.a(netlib_netmon.o)
                0x0000000060617808                netlib_netmon_sock
 .text.netlib_netmon_devstats
                0x0000000060617874       0x80 ../build/output/libraries/libexternal.a(netlib_netmon.o)
                0x0000000060617874                netlib_netmon_devstats
 .text.netlib_set_ipv4addr
                0x00000000606178f4       0x5c ../build/output/libraries/libexternal.a(netlib_setipv4addr.o)
                0x00000000606178f4                netlib_set_ipv4addr
 .text.netlib_get_ipv4addr
                0x0000000060617950       0x62 ../build/output/libraries/libexternal.a(netlib_getipv4addr.o)
                0x0000000060617950                netlib_get_ipv4addr
 .text.netlib_set_dripv4addr
                0x00000000606179b2       0x5c ../build/output/libraries/libexternal.a(netlib_setdripv4addr.o)
                0x00000000606179b2                netlib_set_dripv4addr
 .text.netlib_set_ipv4netmask
                0x0000000060617a0e       0x5c ../build/output/libraries/libexternal.a(netlib_setipv4netmask.o)
                0x0000000060617a0e                netlib_set_ipv4netmask
 .text.netlib_set_ipv6addr
                0x0000000060617a6a       0x5c ../build/output/libraries/libexternal.a(netlib_setipv6addr.o)
                0x0000000060617a6a                netlib_set_ipv6addr
 *fill*         0x0000000060617ac6        0x2 
 .text.print_mac_addr
                0x0000000060617ac8       0x2c ../build/output/libraries/libexternal.a(netlib_setmacaddr.o)
                0x0000000060617ac8                print_mac_addr
 .text.netlib_setmacaddr
                0x0000000060617af4       0x68 ../build/output/libraries/libexternal.a(netlib_setmacaddr.o)
                0x0000000060617af4                netlib_setmacaddr
 .text.netlib_getmacaddr
                0x0000000060617b5c       0x8c ../build/output/libraries/libexternal.a(netlib_getmacaddr.o)
                0x0000000060617b5c                netlib_getmacaddr
 .text.netlib_setdnsserver
                0x0000000060617be8       0x74 ../build/output/libraries/libexternal.a(netlib_setdnsserver.o)
                0x0000000060617be8                netlib_setdnsserver
 .text._delete_mq
                0x0000000060617c5c       0x28 ../build/output/libraries/libexternal.a(dhcpd_lwip.o)
 .text._create_mq
                0x0000000060617c84       0x64 ../build/output/libraries/libexternal.a(dhcpd_lwip.o)
 .text._dhcpd_join_handler
                0x0000000060617ce8      0x214 ../build/output/libraries/libexternal.a(dhcpd_lwip.o)
                0x0000000060617ce8                _dhcpd_join_handler
 .text.dhcp_server_status
                0x0000000060617efc       0x70 ../build/output/libraries/libexternal.a(dhcpd_lwip.o)
                0x0000000060617efc                dhcp_server_status
 .text.dhcp_server_start
                0x0000000060617f6c       0xe4 ../build/output/libraries/libexternal.a(dhcpd_lwip.o)
                0x0000000060617f6c                dhcp_server_start
 .text.dhcp_server_stop
                0x0000000060618050      0x118 ../build/output/libraries/libexternal.a(dhcpd_lwip.o)
                0x0000000060618050                dhcp_server_stop
 .text.dhcp_client_start
                0x0000000060618168       0x70 ../build/output/libraries/libexternal.a(dhcpc_lwip.o)
                0x0000000060618168                dhcp_client_start
 .text.dhcp_client_stop
                0x00000000606181d8       0x54 ../build/output/libraries/libexternal.a(dhcpc_lwip.o)
                0x00000000606181d8                dhcp_client_stop
 .text.dhcp_client_sethostname
                0x000000006061822c       0x7c ../build/output/libraries/libexternal.a(dhcpc_lwip.o)
                0x000000006061822c                dhcp_client_sethostname
 .text.bind     0x00000000606182a8       0x10 ../build/output/libraries/libproxies.a(PROXY_bind.o)
                0x00000000606182a8                bind
 .text.fs_ioctl
                0x00000000606182b8       0x10 ../build/output/libraries/libproxies.a(PROXY_fs_ioctl.o)
                0x00000000606182b8                fs_ioctl
 .text.gettimeofday
                0x00000000606182c8       0x10 ../build/output/libraries/libproxies.a(PROXY_gettimeofday.o)
                0x00000000606182c8                gettimeofday
 .text.mkfifo   0x00000000606182d8       0x10 ../build/output/libraries/libproxies.a(PROXY_mkfifo.o)
                0x00000000606182d8                mkfifo
 .text.mq_getattr
                0x00000000606182e8       0x10 ../build/output/libraries/libproxies.a(PROXY_mq_getattr.o)
                0x00000000606182e8                mq_getattr
 .text.mq_timedreceive
                0x00000000606182f8       0x14 ../build/output/libraries/libproxies.a(PROXY_mq_timedreceive.o)
                0x00000000606182f8                mq_timedreceive
 .text.on_exit  0x000000006061830c       0x10 ../build/output/libraries/libproxies.a(PROXY_on_exit.o)
                0x000000006061830c                on_exit
 .text.pthread_create
                0x000000006061831c       0x12 ../build/output/libraries/libproxies.a(PROXY_pthread_create.o)
                0x000000006061831c                pthread_create
 .text.pthread_detach
                0x000000006061832e        0xc ../build/output/libraries/libproxies.a(PROXY_pthread_detach.o)
                0x000000006061832e                pthread_detach
 .text.pthread_join
                0x000000006061833a       0x10 ../build/output/libraries/libproxies.a(PROXY_pthread_join.o)
                0x000000006061833a                pthread_join
 .text.sched_lock
                0x000000006061834a        0xa ../build/output/libraries/libproxies.a(PROXY_sched_lock.o)
                0x000000006061834a                sched_lock
 .text.sched_unlock
                0x0000000060618354        0xa ../build/output/libraries/libproxies.a(PROXY_sched_unlock.o)
                0x0000000060618354                sched_unlock
 .text.sem_destroy
                0x000000006061835e        0xc ../build/output/libraries/libproxies.a(PROXY_sem_destroy.o)
                0x000000006061835e                sem_destroy
 .text.sem_trywait
                0x000000006061836a        0xc ../build/output/libraries/libproxies.a(PROXY_sem_trywait.o)
                0x000000006061836a                sem_trywait
 .text.setenv   0x0000000060618376       0x10 ../build/output/libraries/libproxies.a(PROXY_setenv.o)
                0x0000000060618376                setenv
 .text.sigwaitinfo
                0x0000000060618386       0x10 ../build/output/libraries/libproxies.a(PROXY_sigwaitinfo.o)
                0x0000000060618386                sigwaitinfo
 *fill*         0x0000000060618396        0x2 
 .text.lowvsyslog
                0x0000000060618398       0x30 ../build/output/libraries/libuc.a(lib_lowsyslog.o)
                0x0000000060618398                lowvsyslog
 .text.lowsyslog
                0x00000000606183c8       0x1a ../build/output/libraries/libuc.a(lib_lowsyslog.o)
                0x00000000606183c8                lowsyslog
 *fill*         0x00000000606183e2        0x2 
 .text.pthread_attr_init
                0x00000000606183e4       0x18 ../build/output/libraries/libuc.a(pthread_attrinit.o)
                0x00000000606183e4                pthread_attr_init
 .text.pthread_attr_setstacksize
                0x00000000606183fc       0x10 ../build/output/libraries/libuc.a(pthread_attrsetstacksize.o)
                0x00000000606183fc                pthread_attr_setstacksize
 .text.pthread_attr_setschedparam
                0x000000006061840c       0x10 ../build/output/libraries/libuc.a(pthread_attrsetschedparam.o)
                0x000000006061840c                pthread_attr_setschedparam
 .text.sigaddset
                0x000000006061841c       0x1a ../build/output/libraries/libuc.a(sig_addset.o)
                0x000000006061841c                sigaddset
 .text.sigemptyset
                0x0000000060618436        0x8 ../build/output/libraries/libuc.a(sig_emptyset.o)
                0x0000000060618436                sigemptyset
 .text.dq_rem   0x000000006061843e       0x1c ../build/output/libraries/libuc.a(dq_rem.o)
                0x000000006061843e                dq_rem
 *fill*         0x000000006061845a        0x2 
 .text.lowoutstream_putc
                0x000000006061845c       0x10 ../build/output/libraries/libuc.a(lib_lowoutstream.o)
 .text.lib_lowoutstream
                0x000000006061846c       0x18 ../build/output/libraries/libuc.a(lib_lowoutstream.o)
                0x000000006061846c                lib_lowoutstream
 .text.calloc   0x0000000060618484       0x38 ../build/output/libraries/libumm.a(umm_calloc.o)
                0x0000000060618484                calloc
 .text.mm_calloc
                0x00000000606184bc       0x1e ../build/output/libraries/libumm.a(mm_calloc.o)
                0x00000000606184bc                mm_calloc
 *(.gnu.warning)
 *(.stub)
 *(.glue_7)
 .glue_7        0x00000000606184da        0x0 linker stubs
 *(.glue_7t)
 .glue_7t       0x00000000606184da        0x0 linker stubs
 *(.jcr)
 *(.gnu.linkonce.t.*)
 *(.init)
 *(.fini)
                0x00000000606184da                _etext = .

.vfp11_veneer   0x00000000606184dc        0x0 load address 0x000000000e17a4ea
 .vfp11_veneer  0x00000000606184dc        0x0 linker stubs

.v4_bx          0x00000000606184dc        0x0 load address 0x000000000e17a4ea
 .v4_bx         0x00000000606184dc        0x0 linker stubs

.iplt           0x00000000606184dc        0x0 load address 0x000000000e17a4ea
 .iplt          0x00000000606184dc        0x0 /root/tizenrt/os/userspace/up_userspace_common.o

.ARM.extab      0x00000000606184dc      0x108 load address 0x000000000e17a4ea
 *(.ARM.extab*)
 .ARM.extab.text._ZN11CHelloWorldD2Ev
                0x00000000606184dc        0x0 ../build/output/libraries/libapps.a(helloxx_main.o)
 .ARM.extab.text._ZN11CHelloWorld10HelloWorldEv.isra.0
                0x00000000606184dc        0x0 ../build/output/libraries/libapps.a(helloxx_main.o)
 .ARM.extab.text.helloxx_main
                0x00000000606184dc        0x0 ../build/output/libraries/libapps.a(helloxx_main.o)
 .ARM.extab.text.startup._GLOBAL__sub_I_helloxx_main
                0x00000000606184dc        0x0 ../build/output/libraries/libapps.a(helloxx_main.o)
 .ARM.extab     0x00000000606184dc        0x0 /bin/../lib/gcc/arm-none-eabi/10.3.1/thumb/v8-a+simd/hard/libgcc.a(_udivmoddi4.o)
 .ARM.extab     0x00000000606184dc        0x0 /bin/../lib/gcc/arm-none-eabi/10.3.1/thumb/v8-a+simd/hard/libgcc.a(unwind-arm.o)
 .ARM.extab     0x00000000606184dc       0x18 /bin/../lib/gcc/arm-none-eabi/10.3.1/thumb/v8-a+simd/hard/libgcc.a(pr-support.o)
 .ARM.extab.text.unlikely
                0x00000000606184f4        0x0 /bin/../lib/gcc/arm-none-eabi/10.3.1/thumb/v8-a+simd/hard/libgcc.a(pr-support.o)
 .ARM.extab.text.__aeabi_atexit
                0x00000000606184f4        0x0 /bin/../lib/gcc/arm-none-eabi/10.3.1/../../../../arm-none-eabi/lib/thumb/v8-a+simd/hard/libsupc++.a(atexit_arm.o)
 .ARM.extab.text._ZdlPv
                0x00000000606184f4        0x0 /bin/../lib/gcc/arm-none-eabi/10.3.1/../../../../arm-none-eabi/lib/thumb/v8-a+simd/hard/libsupc++.a(del_op.o)
 .ARM.extab.text._Znwj
                0x00000000606184f4        0x0 /bin/../lib/gcc/arm-none-eabi/10.3.1/../../../../arm-none-eabi/lib/thumb/v8-a+simd/hard/libsupc++.a(new_op.o)
 .ARM.extab.text._ZNKSt9bad_alloc4whatEv
                0x00000000606184f4        0x0 /bin/../lib/gcc/arm-none-eabi/10.3.1/../../../../arm-none-eabi/lib/thumb/v8-a+simd/hard/libsupc++.a(bad_alloc.o)
 .ARM.extab.text._ZNSt9bad_allocD2Ev
                0x00000000606184f4        0x0 /bin/../lib/gcc/arm-none-eabi/10.3.1/../../../../arm-none-eabi/lib/thumb/v8-a+simd/hard/libsupc++.a(bad_alloc.o)
 .ARM.extab.text._ZNSt9bad_allocD0Ev
                0x00000000606184f4        0x0 /bin/../lib/gcc/arm-none-eabi/10.3.1/../../../../arm-none-eabi/lib/thumb/v8-a+simd/hard/libsupc++.a(bad_alloc.o)
 .ARM.extab.text._ZdlPvj
                0x00000000606184f4        0x0 /bin/../lib/gcc/arm-none-eabi/10.3.1/../../../../arm-none-eabi/lib/thumb/v8-a+simd/hard/libsupc++.a(del_ops.o)
 .ARM.extab.text._ZN12_GLOBAL__N_14pool4freeEPv.constprop.0
                0x00000000606184f4        0x0 /bin/../lib/gcc/arm-none-eabi/10.3.1/../../../../arm-none-eabi/lib/thumb/v8-a+simd/hard/libsupc++.a(eh_alloc.o)
 .ARM.extab.text._ZN12_GLOBAL__N_14pool8allocateEj.constprop.0
                0x00000000606184f4        0x0 /bin/../lib/gcc/arm-none-eabi/10.3.1/../../../../arm-none-eabi/lib/thumb/v8-a+simd/hard/libsupc++.a(eh_alloc.o)
 .ARM.extab.text._ZN9__gnu_cxx9__freeresEv
                0x00000000606184f4        0x0 /bin/../lib/gcc/arm-none-eabi/10.3.1/../../../../arm-none-eabi/lib/thumb/v8-a+simd/hard/libsupc++.a(eh_alloc.o)
 .ARM.extab.text.__cxa_allocate_exception
                0x00000000606184f4        0x0 /bin/../lib/gcc/arm-none-eabi/10.3.1/../../../../arm-none-eabi/lib/thumb/v8-a+simd/hard/libsupc++.a(eh_alloc.o)
 .ARM.extab.text.__cxa_free_exception
                0x00000000606184f4        0x0 /bin/../lib/gcc/arm-none-eabi/10.3.1/../../../../arm-none-eabi/lib/thumb/v8-a+simd/hard/libsupc++.a(eh_alloc.o)
 .ARM.extab.text.__cxa_allocate_dependent_exception
                0x00000000606184f4        0x0 /bin/../lib/gcc/arm-none-eabi/10.3.1/../../../../arm-none-eabi/lib/thumb/v8-a+simd/hard/libsupc++.a(eh_alloc.o)
 .ARM.extab.text.__cxa_free_dependent_exception
                0x00000000606184f4        0x0 /bin/../lib/gcc/arm-none-eabi/10.3.1/../../../../arm-none-eabi/lib/thumb/v8-a+simd/hard/libsupc++.a(eh_alloc.o)
 .ARM.extab.text.startup._GLOBAL__sub_I__ZN9__gnu_cxx9__freeresEv
                0x00000000606184f4        0x0 /bin/../lib/gcc/arm-none-eabi/10.3.1/../../../../arm-none-eabi/lib/thumb/v8-a+simd/hard/libsupc++.a(eh_alloc.o)
 .ARM.extab.text._ZNSt9exceptionD2Ev
                0x00000000606184f4        0x0 /bin/../lib/gcc/arm-none-eabi/10.3.1/../../../../arm-none-eabi/lib/thumb/v8-a+simd/hard/libsupc++.a(eh_exception.o)
 .ARM.extab.text._ZNSt13bad_exceptionD2Ev
                0x00000000606184f4        0x0 /bin/../lib/gcc/arm-none-eabi/10.3.1/../../../../arm-none-eabi/lib/thumb/v8-a+simd/hard/libsupc++.a(eh_exception.o)
 .ARM.extab.text._ZNKSt9exception4whatEv
                0x00000000606184f4        0x0 /bin/../lib/gcc/arm-none-eabi/10.3.1/../../../../arm-none-eabi/lib/thumb/v8-a+simd/hard/libsupc++.a(eh_exception.o)
 .ARM.extab.text._ZNKSt13bad_exception4whatEv
                0x00000000606184f4        0x0 /bin/../lib/gcc/arm-none-eabi/10.3.1/../../../../arm-none-eabi/lib/thumb/v8-a+simd/hard/libsupc++.a(eh_exception.o)
 .ARM.extab.text._ZNSt9exceptionD0Ev
                0x00000000606184f4        0x0 /bin/../lib/gcc/arm-none-eabi/10.3.1/../../../../arm-none-eabi/lib/thumb/v8-a+simd/hard/libsupc++.a(eh_exception.o)
 .ARM.extab.text._ZNSt13bad_exceptionD0Ev
                0x00000000606184f4        0x0 /bin/../lib/gcc/arm-none-eabi/10.3.1/../../../../arm-none-eabi/lib/thumb/v8-a+simd/hard/libsupc++.a(eh_exception.o)
 .ARM.extab.text._ZN10__cxxabiv115__forced_unwindD2Ev
                0x00000000606184f4        0x0 /bin/../lib/gcc/arm-none-eabi/10.3.1/../../../../arm-none-eabi/lib/thumb/v8-a+simd/hard/libsupc++.a(eh_exception.o)
 .ARM.extab.text._ZN10__cxxabiv115__forced_unwindD0Ev
                0x00000000606184f4        0x0 /bin/../lib/gcc/arm-none-eabi/10.3.1/../../../../arm-none-eabi/lib/thumb/v8-a+simd/hard/libsupc++.a(eh_exception.o)
 .ARM.extab.text._ZN10__cxxabiv119__foreign_exceptionD2Ev
                0x00000000606184f4        0x0 /bin/../lib/gcc/arm-none-eabi/10.3.1/../../../../arm-none-eabi/lib/thumb/v8-a+simd/hard/libsupc++.a(eh_exception.o)
 .ARM.extab.text._ZN10__cxxabiv119__foreign_exceptionD0Ev
                0x00000000606184f4        0x0 /bin/../lib/gcc/arm-none-eabi/10.3.1/../../../../arm-none-eabi/lib/thumb/v8-a+simd/hard/libsupc++.a(eh_exception.o)
 .ARM.extab.text._ZGTtNKSt9exceptionD1Ev
                0x00000000606184f4        0x0 /bin/../lib/gcc/arm-none-eabi/10.3.1/../../../../arm-none-eabi/lib/thumb/v8-a+simd/hard/libsupc++.a(eh_exception.o)
 .ARM.extab.text._ZGTtNKSt13bad_exceptionD1Ev
                0x00000000606184f4        0x0 /bin/../lib/gcc/arm-none-eabi/10.3.1/../../../../arm-none-eabi/lib/thumb/v8-a+simd/hard/libsupc++.a(eh_exception.o)
 .ARM.extab.text._ZN10__cxxabiv111__terminateEPFvvE
                0x00000000606184f4       0x2c /bin/../lib/gcc/arm-none-eabi/10.3.1/../../../../arm-none-eabi/lib/thumb/v8-a+simd/hard/libsupc++.a(eh_terminate.o)
 .ARM.extab.text._ZSt9terminatev
                0x0000000060618520        0x0 /bin/../lib/gcc/arm-none-eabi/10.3.1/../../../../arm-none-eabi/lib/thumb/v8-a+simd/hard/libsupc++.a(eh_terminate.o)
 .ARM.extab.text._ZN10__cxxabiv112__unexpectedEPFvvE
                0x0000000060618520        0xc /bin/../lib/gcc/arm-none-eabi/10.3.1/../../../../arm-none-eabi/lib/thumb/v8-a+simd/hard/libsupc++.a(eh_terminate.o)
 .ARM.extab.text._ZSt10unexpectedv
                0x000000006061852c        0xc /bin/../lib/gcc/arm-none-eabi/10.3.1/../../../../arm-none-eabi/lib/thumb/v8-a+simd/hard/libsupc++.a(eh_terminate.o)
 .ARM.extab.text._ZSt13set_terminatePFvvE
                0x0000000060618538        0x0 /bin/../lib/gcc/arm-none-eabi/10.3.1/../../../../arm-none-eabi/lib/thumb/v8-a+simd/hard/libsupc++.a(eh_terminate.o)
 .ARM.extab.text._ZSt13get_terminatev
                0x0000000060618538        0x0 /bin/../lib/gcc/arm-none-eabi/10.3.1/../../../../arm-none-eabi/lib/thumb/v8-a+simd/hard/libsupc++.a(eh_terminate.o)
 .ARM.extab.text._ZSt14set_unexpectedPFvvE
                0x0000000060618538        0x0 /bin/../lib/gcc/arm-none-eabi/10.3.1/../../../../arm-none-eabi/lib/thumb/v8-a+simd/hard/libsupc++.a(eh_terminate.o)
 .ARM.extab.text._ZSt14get_unexpectedv
                0x0000000060618538        0x0 /bin/../lib/gcc/arm-none-eabi/10.3.1/../../../../arm-none-eabi/lib/thumb/v8-a+simd/hard/libsupc++.a(eh_terminate.o)
 .ARM.extab.text._ZL23__gxx_exception_cleanup19_Unwind_Reason_CodeP21_Unwind_Control_Block
                0x0000000060618538        0x0 /bin/../lib/gcc/arm-none-eabi/10.3.1/../../../../arm-none-eabi/lib/thumb/v8-a+simd/hard/libsupc++.a(eh_throw.o)
 .ARM.extab.text.__cxa_init_primary_exception
                0x0000000060618538        0x0 /bin/../lib/gcc/arm-none-eabi/10.3.1/../../../../arm-none-eabi/lib/thumb/v8-a+simd/hard/libsupc++.a(eh_throw.o)
 .ARM.extab.text.__cxa_throw
                0x0000000060618538        0x0 /bin/../lib/gcc/arm-none-eabi/10.3.1/../../../../arm-none-eabi/lib/thumb/v8-a+simd/hard/libsupc++.a(eh_throw.o)
 .ARM.extab.text.__cxa_rethrow
                0x0000000060618538        0x0 /bin/../lib/gcc/arm-none-eabi/10.3.1/../../../../arm-none-eabi/lib/thumb/v8-a+simd/hard/libsupc++.a(eh_throw.o)
 .ARM.extab.text._ZSt15set_new_handlerPFvvE
                0x0000000060618538        0x0 /bin/../lib/gcc/arm-none-eabi/10.3.1/../../../../arm-none-eabi/lib/thumb/v8-a+simd/hard/libsupc++.a(new_handler.o)
 .ARM.extab.text._ZSt15get_new_handlerv
                0x0000000060618538        0x0 /bin/../lib/gcc/arm-none-eabi/10.3.1/../../../../arm-none-eabi/lib/thumb/v8-a+simd/hard/libsupc++.a(new_handler.o)
 .ARM.extab.text.__cxa_pure_virtual
                0x0000000060618538        0xc /bin/../lib/gcc/arm-none-eabi/10.3.1/../../../../arm-none-eabi/lib/thumb/v8-a+simd/hard/libsupc++.a(pure.o)
 .ARM.extab.text.__cxa_deleted_virtual
                0x0000000060618544        0xc /bin/../lib/gcc/arm-none-eabi/10.3.1/../../../../arm-none-eabi/lib/thumb/v8-a+simd/hard/libsupc++.a(pure.o)
 .ARM.extab.text._ZN10__cxxabiv120__si_class_type_infoD2Ev
                0x0000000060618550        0x0 /bin/../lib/gcc/arm-none-eabi/10.3.1/../../../../arm-none-eabi/lib/thumb/v8-a+simd/hard/libsupc++.a(si_class_type_info.o)
 .ARM.extab.text._ZN10__cxxabiv120__si_class_type_infoD0Ev
                0x0000000060618550        0x0 /bin/../lib/gcc/arm-none-eabi/10.3.1/../../../../arm-none-eabi/lib/thumb/v8-a+simd/hard/libsupc++.a(si_class_type_info.o)
 .ARM.extab.text._ZNK10__cxxabiv120__si_class_type_info20__do_find_public_srcEiPKvPKNS_17__class_type_infoES2_
                0x0000000060618550        0x0 /bin/../lib/gcc/arm-none-eabi/10.3.1/../../../../arm-none-eabi/lib/thumb/v8-a+simd/hard/libsupc++.a(si_class_type_info.o)
 .ARM.extab.text._ZNK10__cxxabiv120__si_class_type_info12__do_dyncastEiNS_17__class_type_info10__sub_kindEPKS1_PKvS4_S6_RNS1_16__dyncast_resultE
                0x0000000060618550        0x0 /bin/../lib/gcc/arm-none-eabi/10.3.1/../../../../arm-none-eabi/lib/thumb/v8-a+simd/hard/libsupc++.a(si_class_type_info.o)
 .ARM.extab.text._ZNK10__cxxabiv120__si_class_type_info11__do_upcastEPKNS_17__class_type_infoEPKvRNS1_15__upcast_resultE
                0x0000000060618550        0x0 /bin/../lib/gcc/arm-none-eabi/10.3.1/../../../../arm-none-eabi/lib/thumb/v8-a+simd/hard/libsupc++.a(si_class_type_info.o)
 .ARM.extab.text._ZNSt9type_infoD2Ev
                0x0000000060618550        0x0 /bin/../lib/gcc/arm-none-eabi/10.3.1/../../../../arm-none-eabi/lib/thumb/v8-a+simd/hard/libsupc++.a(tinfo.o)
 .ARM.extab.text._ZNKSt9type_info14__is_pointer_pEv
                0x0000000060618550        0x0 /bin/../lib/gcc/arm-none-eabi/10.3.1/../../../../arm-none-eabi/lib/thumb/v8-a+simd/hard/libsupc++.a(tinfo.o)
 .ARM.extab.text._ZNKSt9type_info11__do_upcastEPKN10__cxxabiv117__class_type_infoEPPv
                0x0000000060618550        0x0 /bin/../lib/gcc/arm-none-eabi/10.3.1/../../../../arm-none-eabi/lib/thumb/v8-a+simd/hard/libsupc++.a(tinfo.o)
 .ARM.extab.text._ZNSt9type_infoD0Ev
                0x0000000060618550        0x0 /bin/../lib/gcc/arm-none-eabi/10.3.1/../../../../arm-none-eabi/lib/thumb/v8-a+simd/hard/libsupc++.a(tinfo.o)
 .ARM.extab.text._ZNKSt9type_info10__do_catchEPKS_PPvj
                0x0000000060618550        0x0 /bin/../lib/gcc/arm-none-eabi/10.3.1/../../../../arm-none-eabi/lib/thumb/v8-a+simd/hard/libsupc++.a(tinfo.o)
 .ARM.extab.text._ZNKSt9type_infoeqERKS_
                0x0000000060618550        0x0 /bin/../lib/gcc/arm-none-eabi/10.3.1/../../../../arm-none-eabi/lib/thumb/v8-a+simd/hard/libsupc++.a(tinfo.o)
 .ARM.extab.text._ZN9__gnu_cxx27__verbose_terminate_handlerEv
                0x0000000060618550       0x34 /bin/../lib/gcc/arm-none-eabi/10.3.1/../../../../arm-none-eabi/lib/thumb/v8-a+simd/hard/libsupc++.a(vterminate.o)
 .ARM.extab.text._ZNK10__cxxabiv117__class_type_info11__do_upcastEPKS0_PPv
                0x0000000060618584        0x0 /bin/../lib/gcc/arm-none-eabi/10.3.1/../../../../arm-none-eabi/lib/thumb/v8-a+simd/hard/libsupc++.a(class_type_info.o)
 .ARM.extab.text._ZNK10__cxxabiv117__class_type_info20__do_find_public_srcEiPKvPKS0_S2_
                0x0000000060618584        0x0 /bin/../lib/gcc/arm-none-eabi/10.3.1/../../../../arm-none-eabi/lib/thumb/v8-a+simd/hard/libsupc++.a(class_type_info.o)
 .ARM.extab.text._ZN10__cxxabiv117__class_type_infoD2Ev
                0x0000000060618584        0x0 /bin/../lib/gcc/arm-none-eabi/10.3.1/../../../../arm-none-eabi/lib/thumb/v8-a+simd/hard/libsupc++.a(class_type_info.o)
 .ARM.extab.text._ZN10__cxxabiv117__class_type_infoD0Ev
                0x0000000060618584        0x0 /bin/../lib/gcc/arm-none-eabi/10.3.1/../../../../arm-none-eabi/lib/thumb/v8-a+simd/hard/libsupc++.a(class_type_info.o)
 .ARM.extab.text._ZNK10__cxxabiv117__class_type_info12__do_dyncastEiNS0_10__sub_kindEPKS0_PKvS3_S5_RNS0_16__dyncast_resultE
                0x0000000060618584        0x0 /bin/../lib/gcc/arm-none-eabi/10.3.1/../../../../arm-none-eabi/lib/thumb/v8-a+simd/hard/libsupc++.a(class_type_info.o)
 .ARM.extab.text._ZNK10__cxxabiv117__class_type_info11__do_upcastEPKS0_PKvRNS0_15__upcast_resultE
                0x0000000060618584        0x0 /bin/../lib/gcc/arm-none-eabi/10.3.1/../../../../arm-none-eabi/lib/thumb/v8-a+simd/hard/libsupc++.a(class_type_info.o)
 .ARM.extab.text._ZNK10__cxxabiv117__class_type_info10__do_catchEPKSt9type_infoPPvj
                0x0000000060618584        0x0 /bin/../lib/gcc/arm-none-eabi/10.3.1/../../../../arm-none-eabi/lib/thumb/v8-a+simd/hard/libsupc++.a(class_type_info.o)
 .ARM.extab.text.__cxa_type_match
                0x0000000060618584        0x0 /bin/../lib/gcc/arm-none-eabi/10.3.1/../../../../arm-none-eabi/lib/thumb/v8-a+simd/hard/libsupc++.a(eh_arm.o)
 .ARM.extab.text.__cxa_begin_cleanup
                0x0000000060618584        0x0 /bin/../lib/gcc/arm-none-eabi/10.3.1/../../../../arm-none-eabi/lib/thumb/v8-a+simd/hard/libsupc++.a(eh_arm.o)
 .ARM.extab.text.__gnu_end_cleanup
                0x0000000060618584        0x0 /bin/../lib/gcc/arm-none-eabi/10.3.1/../../../../arm-none-eabi/lib/thumb/v8-a+simd/hard/libsupc++.a(eh_arm.o)
 .ARM.extab.text._ZN10__cxxabiv1L24__is_gxx_exception_classEPc
                0x0000000060618584        0x0 /bin/../lib/gcc/arm-none-eabi/10.3.1/../../../../arm-none-eabi/lib/thumb/v8-a+simd/hard/libsupc++.a(eh_call.o)
 .ARM.extab.text.__cxa_call_terminate
                0x0000000060618584        0x0 /bin/../lib/gcc/arm-none-eabi/10.3.1/../../../../arm-none-eabi/lib/thumb/v8-a+simd/hard/libsupc++.a(eh_call.o)
 .ARM.extab.text.unlikely.__cxa_call_unexpected
                0x0000000060618584       0x24 /bin/../lib/gcc/arm-none-eabi/10.3.1/../../../../arm-none-eabi/lib/thumb/v8-a+simd/hard/libsupc++.a(eh_call.o)
 .ARM.extab.text.__cxa_get_exception_ptr
                0x00000000606185a8        0x0 /bin/../lib/gcc/arm-none-eabi/10.3.1/../../../../arm-none-eabi/lib/thumb/v8-a+simd/hard/libsupc++.a(eh_catch.o)
 .ARM.extab.text.__cxa_begin_catch
                0x00000000606185a8        0xc /bin/../lib/gcc/arm-none-eabi/10.3.1/../../../../arm-none-eabi/lib/thumb/v8-a+simd/hard/libsupc++.a(eh_catch.o)
 .ARM.extab.text.__cxa_end_catch
                0x00000000606185b4        0x0 /bin/../lib/gcc/arm-none-eabi/10.3.1/../../../../arm-none-eabi/lib/thumb/v8-a+simd/hard/libsupc++.a(eh_catch.o)
 .ARM.extab.text._ZSt18uncaught_exceptionv
                0x00000000606185b4        0x0 /bin/../lib/gcc/arm-none-eabi/10.3.1/../../../../arm-none-eabi/lib/thumb/v8-a+simd/hard/libsupc++.a(eh_catch.o)
 .ARM.extab.text._ZSt19uncaught_exceptionsv
                0x00000000606185b4        0x0 /bin/../lib/gcc/arm-none-eabi/10.3.1/../../../../arm-none-eabi/lib/thumb/v8-a+simd/hard/libsupc++.a(eh_catch.o)
 .ARM.extab.text.__cxa_get_globals_fast
                0x00000000606185b4        0x0 /bin/../lib/gcc/arm-none-eabi/10.3.1/../../../../arm-none-eabi/lib/thumb/v8-a+simd/hard/libsupc++.a(eh_globals.o)
 .ARM.extab.text.__cxa_get_globals
                0x00000000606185b4        0x0 /bin/../lib/gcc/arm-none-eabi/10.3.1/../../../../arm-none-eabi/lib/thumb/v8-a+simd/hard/libsupc++.a(eh_globals.o)
 .ARM.extab.text._ZL28read_encoded_value_with_basehjPKhPj
                0x00000000606185b4        0x0 /bin/../lib/gcc/arm-none-eabi/10.3.1/../../../../arm-none-eabi/lib/thumb/v8-a+simd/hard/libsupc++.a(eh_personality.o)
 .ARM.extab.text._ZL21base_of_encoded_valuehP15_Unwind_Context
                0x00000000606185b4        0xc /bin/../lib/gcc/arm-none-eabi/10.3.1/../../../../arm-none-eabi/lib/thumb/v8-a+simd/hard/libsupc++.a(eh_personality.o)
 .ARM.extab.text._ZL17parse_lsda_headerP15_Unwind_ContextPKhP16lsda_header_info
                0x00000000606185c0        0x0 /bin/../lib/gcc/arm-none-eabi/10.3.1/../../../../arm-none-eabi/lib/thumb/v8-a+simd/hard/libsupc++.a(eh_personality.o)
 .ARM.extab.text.__gxx_personality_v0
                0x00000000606185c0       0x24 /bin/../lib/gcc/arm-none-eabi/10.3.1/../../../../arm-none-eabi/lib/thumb/v8-a+simd/hard/libsupc++.a(eh_personality.o)
 .ARM.extab.text.__cxa_current_exception_type
                0x00000000606185e4        0x0 /bin/../lib/gcc/arm-none-eabi/10.3.1/../../../../arm-none-eabi/lib/thumb/v8-a+simd/hard/libsupc++.a(eh_type.o)
 .ARM.extab.text.__cxa_callback
                0x00000000606185e4        0x0 ../build/output/libraries/libcxx.a(libxx_cxa_atexit.o)
 .ARM.extab.text.__cxa_atexit
                0x00000000606185e4        0x0 ../build/output/libraries/libcxx.a(libxx_cxa_atexit.o)
                0x00000000606185e4                __fexidx_start = ABSOLUTE (.)

.ARM.exidx      0x00000000606185e4      0x1d0 load address 0x000000000e17a5f2
                0x00000000606185e4                __exidx_start = .
 *(.ARM.exidx*)
 .ARM.exidx.text._ZN11CHelloWorldD2Ev
                0x000000006061869c        0x0 ../build/output/libraries/libapps.a(helloxx_main.o)
                                          0x8 (size before relaxing)
 .ARM.exidx.text._ZN11CHelloWorld10HelloWorldEv.isra.0
                0x000000006061869c        0x0 ../build/output/libraries/libapps.a(helloxx_main.o)
                                          0x8 (size before relaxing)
 .ARM.exidx.text.helloxx_main
                0x000000006061869c        0x8 ../build/output/libraries/libapps.a(helloxx_main.o)
 .ARM.exidx.text.startup._GLOBAL__sub_I_helloxx_main
                0x00000000606186a4        0x8 ../build/output/libraries/libapps.a(helloxx_main.o)
 .ARM.exidx     0x00000000606185e4        0x8 /bin/../lib/gcc/arm-none-eabi/10.3.1/thumb/v8-a+simd/hard/libgcc.a(_udivmoddi4.o)
 .ARM.exidx     0x00000000606185ec       0x78 /bin/../lib/gcc/arm-none-eabi/10.3.1/thumb/v8-a+simd/hard/libgcc.a(unwind-arm.o)
                                         0xd8 (size before relaxing)
 .ARM.exidx     0x0000000060618664       0x38 /bin/../lib/gcc/arm-none-eabi/10.3.1/thumb/v8-a+simd/hard/libgcc.a(pr-support.o)
 .ARM.exidx.text.unlikely
                0x00000000606186ac        0x0 /bin/../lib/gcc/arm-none-eabi/10.3.1/thumb/v8-a+simd/hard/libgcc.a(pr-support.o)
                                         0x10 (size before relaxing)
 .ARM.exidx.text.__aeabi_atexit
                0x00000000606186ac        0x0 /bin/../lib/gcc/arm-none-eabi/10.3.1/../../../../arm-none-eabi/lib/thumb/v8-a+simd/hard/libsupc++.a(atexit_arm.o)
                                          0x8 (size before relaxing)
 .ARM.exidx.text._ZdlPv
                0x00000000606186ac        0x0 /bin/../lib/gcc/arm-none-eabi/10.3.1/../../../../arm-none-eabi/lib/thumb/v8-a+simd/hard/libsupc++.a(del_op.o)
                                          0x8 (size before relaxing)
 .ARM.exidx.text._Znwj
                0x00000000606186ac        0x8 /bin/../lib/gcc/arm-none-eabi/10.3.1/../../../../arm-none-eabi/lib/thumb/v8-a+simd/hard/libsupc++.a(new_op.o)
 .ARM.exidx.text._ZNKSt9bad_alloc4whatEv
                0x00000000606186b4        0x8 /bin/../lib/gcc/arm-none-eabi/10.3.1/../../../../arm-none-eabi/lib/thumb/v8-a+simd/hard/libsupc++.a(bad_alloc.o)
 .ARM.exidx.text._ZNSt9bad_allocD2Ev
                0x00000000606186bc        0x0 /bin/../lib/gcc/arm-none-eabi/10.3.1/../../../../arm-none-eabi/lib/thumb/v8-a+simd/hard/libsupc++.a(bad_alloc.o)
                                          0x8 (size before relaxing)
 .ARM.exidx.text._ZNSt9bad_allocD0Ev
                0x00000000606186bc        0x0 /bin/../lib/gcc/arm-none-eabi/10.3.1/../../../../arm-none-eabi/lib/thumb/v8-a+simd/hard/libsupc++.a(bad_alloc.o)
                                          0x8 (size before relaxing)
 .ARM.exidx.text._ZdlPvj
                0x00000000606186bc        0x0 /bin/../lib/gcc/arm-none-eabi/10.3.1/../../../../arm-none-eabi/lib/thumb/v8-a+simd/hard/libsupc++.a(del_ops.o)
                                          0x8 (size before relaxing)
 .ARM.exidx.text._ZN12_GLOBAL__N_14pool4freeEPv.constprop.0
                0x00000000606186bc        0x0 /bin/../lib/gcc/arm-none-eabi/10.3.1/../../../../arm-none-eabi/lib/thumb/v8-a+simd/hard/libsupc++.a(eh_alloc.o)
                                          0x8 (size before relaxing)
 .ARM.exidx.text._ZN12_GLOBAL__N_14pool8allocateEj.constprop.0
                0x00000000606186bc        0x0 /bin/../lib/gcc/arm-none-eabi/10.3.1/../../../../arm-none-eabi/lib/thumb/v8-a+simd/hard/libsupc++.a(eh_alloc.o)
                                          0x8 (size before relaxing)
 .ARM.exidx.text._ZN9__gnu_cxx9__freeresEv
                0x00000000606186bc        0x0 /bin/../lib/gcc/arm-none-eabi/10.3.1/../../../../arm-none-eabi/lib/thumb/v8-a+simd/hard/libsupc++.a(eh_alloc.o)
                                          0x8 (size before relaxing)
 .ARM.exidx.text.__cxa_allocate_exception
                0x00000000606186bc        0x0 /bin/../lib/gcc/arm-none-eabi/10.3.1/../../../../arm-none-eabi/lib/thumb/v8-a+simd/hard/libsupc++.a(eh_alloc.o)
                                          0x8 (size before relaxing)
 .ARM.exidx.text.__cxa_free_exception
                0x00000000606186bc        0x0 /bin/../lib/gcc/arm-none-eabi/10.3.1/../../../../arm-none-eabi/lib/thumb/v8-a+simd/hard/libsupc++.a(eh_alloc.o)
                                          0x8 (size before relaxing)
 .ARM.exidx.text.__cxa_allocate_dependent_exception
                0x00000000606186bc        0x0 /bin/../lib/gcc/arm-none-eabi/10.3.1/../../../../arm-none-eabi/lib/thumb/v8-a+simd/hard/libsupc++.a(eh_alloc.o)
                                          0x8 (size before relaxing)
 .ARM.exidx.text.__cxa_free_dependent_exception
                0x00000000606186bc        0x0 /bin/../lib/gcc/arm-none-eabi/10.3.1/../../../../arm-none-eabi/lib/thumb/v8-a+simd/hard/libsupc++.a(eh_alloc.o)
                                          0x8 (size before relaxing)
 .ARM.exidx.text.startup._GLOBAL__sub_I__ZN9__gnu_cxx9__freeresEv
                0x00000000606186bc        0x0 /bin/../lib/gcc/arm-none-eabi/10.3.1/../../../../arm-none-eabi/lib/thumb/v8-a+simd/hard/libsupc++.a(eh_alloc.o)
                                          0x8 (size before relaxing)
 .ARM.exidx.text._ZNSt9exceptionD2Ev
                0x00000000606186bc        0x0 /bin/../lib/gcc/arm-none-eabi/10.3.1/../../../../arm-none-eabi/lib/thumb/v8-a+simd/hard/libsupc++.a(eh_exception.o)
                                          0x8 (size before relaxing)
 .ARM.exidx.text._ZNSt13bad_exceptionD2Ev
                0x00000000606186bc        0x0 /bin/../lib/gcc/arm-none-eabi/10.3.1/../../../../arm-none-eabi/lib/thumb/v8-a+simd/hard/libsupc++.a(eh_exception.o)
                                          0x8 (size before relaxing)
 .ARM.exidx.text._ZNKSt9exception4whatEv
                0x00000000606186bc        0x0 /bin/../lib/gcc/arm-none-eabi/10.3.1/../../../../arm-none-eabi/lib/thumb/v8-a+simd/hard/libsupc++.a(eh_exception.o)
                                          0x8 (size before relaxing)
 .ARM.exidx.text._ZNKSt13bad_exception4whatEv
                0x00000000606186bc        0x0 /bin/../lib/gcc/arm-none-eabi/10.3.1/../../../../arm-none-eabi/lib/thumb/v8-a+simd/hard/libsupc++.a(eh_exception.o)
                                          0x8 (size before relaxing)
 .ARM.exidx.text._ZNSt9exceptionD0Ev
                0x00000000606186bc        0x0 /bin/../lib/gcc/arm-none-eabi/10.3.1/../../../../arm-none-eabi/lib/thumb/v8-a+simd/hard/libsupc++.a(eh_exception.o)
                                          0x8 (size before relaxing)
 .ARM.exidx.text._ZNSt13bad_exceptionD0Ev
                0x00000000606186bc        0x0 /bin/../lib/gcc/arm-none-eabi/10.3.1/../../../../arm-none-eabi/lib/thumb/v8-a+simd/hard/libsupc++.a(eh_exception.o)
                                          0x8 (size before relaxing)
 .ARM.exidx.text._ZN10__cxxabiv115__forced_unwindD2Ev
                0x00000000606186bc        0x0 /bin/../lib/gcc/arm-none-eabi/10.3.1/../../../../arm-none-eabi/lib/thumb/v8-a+simd/hard/libsupc++.a(eh_exception.o)
                                          0x8 (size before relaxing)
 .ARM.exidx.text._ZN10__cxxabiv115__forced_unwindD0Ev
                0x00000000606186bc        0x0 /bin/../lib/gcc/arm-none-eabi/10.3.1/../../../../arm-none-eabi/lib/thumb/v8-a+simd/hard/libsupc++.a(eh_exception.o)
                                          0x8 (size before relaxing)
 .ARM.exidx.text._ZN10__cxxabiv119__foreign_exceptionD2Ev
                0x00000000606186bc        0x0 /bin/../lib/gcc/arm-none-eabi/10.3.1/../../../../arm-none-eabi/lib/thumb/v8-a+simd/hard/libsupc++.a(eh_exception.o)
                                          0x8 (size before relaxing)
 .ARM.exidx.text._ZN10__cxxabiv119__foreign_exceptionD0Ev
                0x00000000606186bc        0x0 /bin/../lib/gcc/arm-none-eabi/10.3.1/../../../../arm-none-eabi/lib/thumb/v8-a+simd/hard/libsupc++.a(eh_exception.o)
                                          0x8 (size before relaxing)
 .ARM.exidx.text._ZGTtNKSt9exceptionD1Ev
                0x00000000606186bc        0x0 /bin/../lib/gcc/arm-none-eabi/10.3.1/../../../../arm-none-eabi/lib/thumb/v8-a+simd/hard/libsupc++.a(eh_exception.o)
                                          0x8 (size before relaxing)
 .ARM.exidx.text._ZGTtNKSt13bad_exceptionD1Ev
                0x00000000606186bc        0x0 /bin/../lib/gcc/arm-none-eabi/10.3.1/../../../../arm-none-eabi/lib/thumb/v8-a+simd/hard/libsupc++.a(eh_exception.o)
                                          0x8 (size before relaxing)
 .ARM.exidx.text._ZN10__cxxabiv111__terminateEPFvvE
                0x00000000606186bc        0x8 /bin/../lib/gcc/arm-none-eabi/10.3.1/../../../../arm-none-eabi/lib/thumb/v8-a+simd/hard/libsupc++.a(eh_terminate.o)
 .ARM.exidx.text._ZSt9terminatev
                0x00000000606186c4        0x8 /bin/../lib/gcc/arm-none-eabi/10.3.1/../../../../arm-none-eabi/lib/thumb/v8-a+simd/hard/libsupc++.a(eh_terminate.o)
 .ARM.exidx.text._ZN10__cxxabiv112__unexpectedEPFvvE
                0x00000000606186cc        0x8 /bin/../lib/gcc/arm-none-eabi/10.3.1/../../../../arm-none-eabi/lib/thumb/v8-a+simd/hard/libsupc++.a(eh_terminate.o)
 .ARM.exidx.text._ZSt10unexpectedv
                0x00000000606186d4        0x8 /bin/../lib/gcc/arm-none-eabi/10.3.1/../../../../arm-none-eabi/lib/thumb/v8-a+simd/hard/libsupc++.a(eh_terminate.o)
 .ARM.exidx.text._ZSt13set_terminatePFvvE
                0x00000000606186dc        0x8 /bin/../lib/gcc/arm-none-eabi/10.3.1/../../../../arm-none-eabi/lib/thumb/v8-a+simd/hard/libsupc++.a(eh_terminate.o)
 .ARM.exidx.text._ZSt13get_terminatev
                0x00000000606186e4        0x0 /bin/../lib/gcc/arm-none-eabi/10.3.1/../../../../arm-none-eabi/lib/thumb/v8-a+simd/hard/libsupc++.a(eh_terminate.o)
                                          0x8 (size before relaxing)
 .ARM.exidx.text._ZSt14set_unexpectedPFvvE
                0x00000000606186e4        0x0 /bin/../lib/gcc/arm-none-eabi/10.3.1/../../../../arm-none-eabi/lib/thumb/v8-a+simd/hard/libsupc++.a(eh_terminate.o)
                                          0x8 (size before relaxing)
 .ARM.exidx.text._ZSt14get_unexpectedv
                0x00000000606186e4        0x0 /bin/../lib/gcc/arm-none-eabi/10.3.1/../../../../arm-none-eabi/lib/thumb/v8-a+simd/hard/libsupc++.a(eh_terminate.o)
                                          0x8 (size before relaxing)
 .ARM.exidx.text._ZL23__gxx_exception_cleanup19_Unwind_Reason_CodeP21_Unwind_Control_Block
                0x00000000606186e4        0x8 /bin/../lib/gcc/arm-none-eabi/10.3.1/../../../../arm-none-eabi/lib/thumb/v8-a+simd/hard/libsupc++.a(eh_throw.o)
 .ARM.exidx.text.__cxa_init_primary_exception
                0x00000000606186ec        0x8 /bin/../lib/gcc/arm-none-eabi/10.3.1/../../../../arm-none-eabi/lib/thumb/v8-a+simd/hard/libsupc++.a(eh_throw.o)
 .ARM.exidx.text.__cxa_throw
                0x00000000606186f4        0x8 /bin/../lib/gcc/arm-none-eabi/10.3.1/../../../../arm-none-eabi/lib/thumb/v8-a+simd/hard/libsupc++.a(eh_throw.o)
 .ARM.exidx.text.__cxa_rethrow
                0x00000000606186fc        0x8 /bin/../lib/gcc/arm-none-eabi/10.3.1/../../../../arm-none-eabi/lib/thumb/v8-a+simd/hard/libsupc++.a(eh_throw.o)
 .ARM.exidx.text._ZSt15set_new_handlerPFvvE
                0x0000000060618704        0x8 /bin/../lib/gcc/arm-none-eabi/10.3.1/../../../../arm-none-eabi/lib/thumb/v8-a+simd/hard/libsupc++.a(new_handler.o)
 .ARM.exidx.text._ZSt15get_new_handlerv
                0x000000006061870c        0x0 /bin/../lib/gcc/arm-none-eabi/10.3.1/../../../../arm-none-eabi/lib/thumb/v8-a+simd/hard/libsupc++.a(new_handler.o)
                                          0x8 (size before relaxing)
 .ARM.exidx.text.__cxa_pure_virtual
                0x000000006061870c        0x8 /bin/../lib/gcc/arm-none-eabi/10.3.1/../../../../arm-none-eabi/lib/thumb/v8-a+simd/hard/libsupc++.a(pure.o)
 .ARM.exidx.text.__cxa_deleted_virtual
                0x0000000060618714        0x8 /bin/../lib/gcc/arm-none-eabi/10.3.1/../../../../arm-none-eabi/lib/thumb/v8-a+simd/hard/libsupc++.a(pure.o)
 .ARM.exidx.text._ZN10__cxxabiv120__si_class_type_infoD2Ev
                0x000000006061871c        0x8 /bin/../lib/gcc/arm-none-eabi/10.3.1/../../../../arm-none-eabi/lib/thumb/v8-a+simd/hard/libsupc++.a(si_class_type_info.o)
 .ARM.exidx.text._ZN10__cxxabiv120__si_class_type_infoD0Ev
                0x0000000060618724        0x0 /bin/../lib/gcc/arm-none-eabi/10.3.1/../../../../arm-none-eabi/lib/thumb/v8-a+simd/hard/libsupc++.a(si_class_type_info.o)
                                          0x8 (size before relaxing)
 .ARM.exidx.text._ZNK10__cxxabiv120__si_class_type_info20__do_find_public_srcEiPKvPKNS_17__class_type_infoES2_
                0x0000000060618724        0x0 /bin/../lib/gcc/arm-none-eabi/10.3.1/../../../../arm-none-eabi/lib/thumb/v8-a+simd/hard/libsupc++.a(si_class_type_info.o)
                                          0x8 (size before relaxing)
 .ARM.exidx.text._ZNK10__cxxabiv120__si_class_type_info12__do_dyncastEiNS_17__class_type_info10__sub_kindEPKS1_PKvS4_S6_RNS1_16__dyncast_resultE
                0x0000000060618724        0x0 /bin/../lib/gcc/arm-none-eabi/10.3.1/../../../../arm-none-eabi/lib/thumb/v8-a+simd/hard/libsupc++.a(si_class_type_info.o)
                                          0x8 (size before relaxing)
 .ARM.exidx.text._ZNK10__cxxabiv120__si_class_type_info11__do_upcastEPKNS_17__class_type_infoEPKvRNS1_15__upcast_resultE
                0x0000000060618724        0x8 /bin/../lib/gcc/arm-none-eabi/10.3.1/../../../../arm-none-eabi/lib/thumb/v8-a+simd/hard/libsupc++.a(si_class_type_info.o)
 .ARM.exidx.text._ZNSt9type_infoD2Ev
                0x000000006061872c        0x8 /bin/../lib/gcc/arm-none-eabi/10.3.1/../../../../arm-none-eabi/lib/thumb/v8-a+simd/hard/libsupc++.a(tinfo.o)
 .ARM.exidx.text._ZNKSt9type_info14__is_pointer_pEv
                0x0000000060618734        0x0 /bin/../lib/gcc/arm-none-eabi/10.3.1/../../../../arm-none-eabi/lib/thumb/v8-a+simd/hard/libsupc++.a(tinfo.o)
                                          0x8 (size before relaxing)
 .ARM.exidx.text._ZNKSt9type_info11__do_upcastEPKN10__cxxabiv117__class_type_infoEPPv
                0x0000000060618734        0x0 /bin/../lib/gcc/arm-none-eabi/10.3.1/../../../../arm-none-eabi/lib/thumb/v8-a+simd/hard/libsupc++.a(tinfo.o)
                                          0x8 (size before relaxing)
 .ARM.exidx.text._ZNSt9type_infoD0Ev
                0x0000000060618734        0x0 /bin/../lib/gcc/arm-none-eabi/10.3.1/../../../../arm-none-eabi/lib/thumb/v8-a+simd/hard/libsupc++.a(tinfo.o)
                                          0x8 (size before relaxing)
 .ARM.exidx.text._ZNKSt9type_info10__do_catchEPKS_PPvj
                0x0000000060618734        0x0 /bin/../lib/gcc/arm-none-eabi/10.3.1/../../../../arm-none-eabi/lib/thumb/v8-a+simd/hard/libsupc++.a(tinfo.o)
                                          0x8 (size before relaxing)
 .ARM.exidx.text._ZNKSt9type_infoeqERKS_
                0x0000000060618734        0x0 /bin/../lib/gcc/arm-none-eabi/10.3.1/../../../../arm-none-eabi/lib/thumb/v8-a+simd/hard/libsupc++.a(tinfo.o)
                                          0x8 (size before relaxing)
 .ARM.exidx.text._ZN9__gnu_cxx27__verbose_terminate_handlerEv
                0x0000000060618734        0x8 /bin/../lib/gcc/arm-none-eabi/10.3.1/../../../../arm-none-eabi/lib/thumb/v8-a+simd/hard/libsupc++.a(vterminate.o)
 .ARM.exidx.text._ZNK10__cxxabiv117__class_type_info11__do_upcastEPKS0_PPv
                0x000000006061873c        0x8 /bin/../lib/gcc/arm-none-eabi/10.3.1/../../../../arm-none-eabi/lib/thumb/v8-a+simd/hard/libsupc++.a(class_type_info.o)
 .ARM.exidx.text._ZNK10__cxxabiv117__class_type_info20__do_find_public_srcEiPKvPKS0_S2_
                0x0000000060618744        0x8 /bin/../lib/gcc/arm-none-eabi/10.3.1/../../../../arm-none-eabi/lib/thumb/v8-a+simd/hard/libsupc++.a(class_type_info.o)
 .ARM.exidx.text._ZN10__cxxabiv117__class_type_infoD2Ev
                0x000000006061874c        0x0 /bin/../lib/gcc/arm-none-eabi/10.3.1/../../../../arm-none-eabi/lib/thumb/v8-a+simd/hard/libsupc++.a(class_type_info.o)
                                          0x8 (size before relaxing)
 .ARM.exidx.text._ZN10__cxxabiv117__class_type_infoD0Ev
                0x000000006061874c        0x0 /bin/../lib/gcc/arm-none-eabi/10.3.1/../../../../arm-none-eabi/lib/thumb/v8-a+simd/hard/libsupc++.a(class_type_info.o)
                                          0x8 (size before relaxing)
 .ARM.exidx.text._ZNK10__cxxabiv117__class_type_info12__do_dyncastEiNS0_10__sub_kindEPKS0_PKvS3_S5_RNS0_16__dyncast_resultE
                0x000000006061874c        0x0 /bin/../lib/gcc/arm-none-eabi/10.3.1/../../../../arm-none-eabi/lib/thumb/v8-a+simd/hard/libsupc++.a(class_type_info.o)
                                          0x8 (size before relaxing)
 .ARM.exidx.text._ZNK10__cxxabiv117__class_type_info11__do_upcastEPKS0_PKvRNS0_15__upcast_resultE
                0x000000006061874c        0x0 /bin/../lib/gcc/arm-none-eabi/10.3.1/../../../../arm-none-eabi/lib/thumb/v8-a+simd/hard/libsupc++.a(class_type_info.o)
                                          0x8 (size before relaxing)
 .ARM.exidx.text._ZNK10__cxxabiv117__class_type_info10__do_catchEPKSt9type_infoPPvj
                0x000000006061874c        0x0 /bin/../lib/gcc/arm-none-eabi/10.3.1/../../../../arm-none-eabi/lib/thumb/v8-a+simd/hard/libsupc++.a(class_type_info.o)
                                          0x8 (size before relaxing)
 .ARM.exidx.text.__cxa_type_match
                0x000000006061874c        0x8 /bin/../lib/gcc/arm-none-eabi/10.3.1/../../../../arm-none-eabi/lib/thumb/v8-a+simd/hard/libsupc++.a(eh_arm.o)
 .ARM.exidx.text.__cxa_begin_cleanup
                0x0000000060618754        0x8 /bin/../lib/gcc/arm-none-eabi/10.3.1/../../../../arm-none-eabi/lib/thumb/v8-a+simd/hard/libsupc++.a(eh_arm.o)
 .ARM.exidx.text.__gnu_end_cleanup
                0x000000006061875c        0x0 /bin/../lib/gcc/arm-none-eabi/10.3.1/../../../../arm-none-eabi/lib/thumb/v8-a+simd/hard/libsupc++.a(eh_arm.o)
                                          0x8 (size before relaxing)
 .ARM.exidx.text._ZN10__cxxabiv1L24__is_gxx_exception_classEPc
                0x000000006061875c        0x0 /bin/../lib/gcc/arm-none-eabi/10.3.1/../../../../arm-none-eabi/lib/thumb/v8-a+simd/hard/libsupc++.a(eh_call.o)
                                          0x8 (size before relaxing)
 .ARM.exidx.text.__cxa_call_terminate
                0x000000006061875c        0x0 /bin/../lib/gcc/arm-none-eabi/10.3.1/../../../../arm-none-eabi/lib/thumb/v8-a+simd/hard/libsupc++.a(eh_call.o)
                                          0x8 (size before relaxing)
 .ARM.exidx.text.unlikely.__cxa_call_unexpected
                0x000000006061875c        0x8 /bin/../lib/gcc/arm-none-eabi/10.3.1/../../../../arm-none-eabi/lib/thumb/v8-a+simd/hard/libsupc++.a(eh_call.o)
 .ARM.exidx.text.__cxa_get_exception_ptr
                0x0000000060618764        0x8 /bin/../lib/gcc/arm-none-eabi/10.3.1/../../../../arm-none-eabi/lib/thumb/v8-a+simd/hard/libsupc++.a(eh_catch.o)
 .ARM.exidx.text.__cxa_begin_catch
                0x000000006061876c        0x8 /bin/../lib/gcc/arm-none-eabi/10.3.1/../../../../arm-none-eabi/lib/thumb/v8-a+simd/hard/libsupc++.a(eh_catch.o)
 .ARM.exidx.text.__cxa_end_catch
                0x0000000060618774        0x8 /bin/../lib/gcc/arm-none-eabi/10.3.1/../../../../arm-none-eabi/lib/thumb/v8-a+simd/hard/libsupc++.a(eh_catch.o)
 .ARM.exidx.text._ZSt18uncaught_exceptionv
                0x000000006061877c        0x0 /bin/../lib/gcc/arm-none-eabi/10.3.1/../../../../arm-none-eabi/lib/thumb/v8-a+simd/hard/libsupc++.a(eh_catch.o)
                                          0x8 (size before relaxing)
 .ARM.exidx.text._ZSt19uncaught_exceptionsv
                0x000000006061877c        0x0 /bin/../lib/gcc/arm-none-eabi/10.3.1/../../../../arm-none-eabi/lib/thumb/v8-a+simd/hard/libsupc++.a(eh_catch.o)
                                          0x8 (size before relaxing)
 .ARM.exidx.text.__cxa_get_globals_fast
                0x000000006061877c        0x0 /bin/../lib/gcc/arm-none-eabi/10.3.1/../../../../arm-none-eabi/lib/thumb/v8-a+simd/hard/libsupc++.a(eh_globals.o)
                                          0x8 (size before relaxing)
 .ARM.exidx.text.__cxa_get_globals
                0x000000006061877c        0x0 /bin/../lib/gcc/arm-none-eabi/10.3.1/../../../../arm-none-eabi/lib/thumb/v8-a+simd/hard/libsupc++.a(eh_globals.o)
                                          0x8 (size before relaxing)
 .ARM.exidx.text._ZL28read_encoded_value_with_basehjPKhPj
                0x000000006061877c        0x8 /bin/../lib/gcc/arm-none-eabi/10.3.1/../../../../arm-none-eabi/lib/thumb/v8-a+simd/hard/libsupc++.a(eh_personality.o)
 .ARM.exidx.text._ZL21base_of_encoded_valuehP15_Unwind_Context
                0x0000000060618784        0x8 /bin/../lib/gcc/arm-none-eabi/10.3.1/../../../../arm-none-eabi/lib/thumb/v8-a+simd/hard/libsupc++.a(eh_personality.o)
 .ARM.exidx.text._ZL17parse_lsda_headerP15_Unwind_ContextPKhP16lsda_header_info
                0x000000006061878c        0x8 /bin/../lib/gcc/arm-none-eabi/10.3.1/../../../../arm-none-eabi/lib/thumb/v8-a+simd/hard/libsupc++.a(eh_personality.o)
 .ARM.exidx.text.__gxx_personality_v0
                0x0000000060618794        0x8 /bin/../lib/gcc/arm-none-eabi/10.3.1/../../../../arm-none-eabi/lib/thumb/v8-a+simd/hard/libsupc++.a(eh_personality.o)
 .ARM.exidx.text.__cxa_current_exception_type
                0x000000006061879c        0x8 /bin/../lib/gcc/arm-none-eabi/10.3.1/../../../../arm-none-eabi/lib/thumb/v8-a+simd/hard/libsupc++.a(eh_type.o)
 .ARM.exidx.text.__cxa_callback
                0x00000000606187a4        0x8 ../build/output/libraries/libcxx.a(libxx_cxa_atexit.o)
 .ARM.exidx.text.__cxa_atexit
                0x00000000606187ac        0x8 ../build/output/libraries/libcxx.a(libxx_cxa_atexit.o)
                0x00000000606187b4                __exidx_end = .
                0x00000000606187b4                __fexidx_end = ABSOLUTE (.)
                0x00000000606187b4                _srodata_app = ABSOLUTE (.)

.rodata         0x00000000606187b8     0x6db5 load address 0x000000000e17a7c2
                0x00000000606187b8                _srodata = .
 *(.rodata)
 .rodata        0x00000000606187b8      0x7cc /bin/../lib/gcc/arm-none-eabi/10.3.1/../../../../arm-none-eabi/lib/thumb/v8-a+simd/hard/libsupc++.a(cp-demangle.o)
 .rodata        0x0000000060618f84       0x2c ../build/output/libraries/libframework.a(wifi_manager_state.o)
 .rodata        0x0000000060618fb0        0x7 ../build/output/libraries/libframework.a(wifi_manager_lwnl.o)
 *fill*         0x0000000060618fb7        0x1 
 .rodata        0x0000000060618fb8       0x14 ../build/output/libraries/libframework.a(wifi_manager_cb.o)
 .rodata        0x0000000060618fcc        0x7 ../build/output/libraries/libframework.a(ble_manager_lwnl.o)
 .rodata        0x0000000060618fd3        0x7 ../build/output/libraries/libexternal.a(netlib_getifaddrs.o)
 *(.rodata1)
 *(.rodata.*)
 .rodata.stdoutstream_putc.str1.1
                0x0000000060618fda       0x19 ../build/output/libraries/libuc.a(lib_stdoutstream.o)
 .rodata.task_startup.str1.1
                0x0000000060618ff3       0x15 ../build/output/libraries/libuc.a(task_startup.o)
 .rodata.pthread_startup.str1.1
                0x0000000060619008       0x1a ../build/output/libraries/libuc.a(pthread_startup.o)
 .rodata.lib_take_semaphore.str1.1
                0x0000000060619022       0x13 ../build/output/libraries/libuc.a(lib_filesem.o)
 .rodata.lib_vsprintf.str1.1
                0x0000000060619035        0x8 ../build/output/libraries/libuc.a(lib_libvsprintf.o)
 .rodata.g_nullstring
                0x000000006061903d        0x7 ../build/output/libraries/libuc.a(lib_libvsprintf.o)
 *fill*         0x0000000060619044        0x4 
 .rodata.g_dtoa_round
                0x0000000060619048       0x80 ../build/output/libraries/libuc.a(lib_dtoa_data.o)
                0x0000000060619048                g_dtoa_round
 .rodata.g_dtoa_scale_down
                0x00000000606190c8       0x48 ../build/output/libraries/libuc.a(lib_dtoa_data.o)
                0x00000000606190c8                g_dtoa_scale_down
 .rodata.g_dtoa_scale_up
                0x0000000060619110       0x48 ../build/output/libraries/libuc.a(lib_dtoa_data.o)
                0x0000000060619110                g_dtoa_scale_up
 .rodata.binary_manager_notify_binary_started.str1.1
                0x0000000060619158       0x2e ../build/output/libraries/libframework.a(binary_manager_notify.o)
 .rodata.__FUNCTION__.0
                0x0000000060619186       0x25 ../build/output/libraries/libframework.a(binary_manager_notify.o)
 .rodata.binary_manager_set_request.str1.1
                0x00000000606191ab       0x30 ../build/output/libraries/libframework.a(binary_manager_interface.o)
                                         0x33 (size before relaxing)
 .rodata.binary_manager_send_request.str1.1
                0x00000000606191db       0x41 ../build/output/libraries/libframework.a(binary_manager_interface.o)
                                         0x4c (size before relaxing)
 .rodata.binary_manager_receive_response.str1.1
                0x000000006061921c       0x30 ../build/output/libraries/libframework.a(binary_manager_interface.o)
 .rodata.__FUNCTION__.0
                0x000000006061924c       0x20 ../build/output/libraries/libframework.a(binary_manager_interface.o)
 .rodata.__FUNCTION__.1
                0x000000006061926c       0x1c ../build/output/libraries/libframework.a(binary_manager_interface.o)
 .rodata.__FUNCTION__.2
                0x0000000060619288       0x1b ../build/output/libraries/libframework.a(binary_manager_interface.o)
 .rodata.preapp_start.str1.1
                0x00000000606192a3       0x61 ../build/output/libraries/libapps.a(init.o)
 .rodata.str1.1
                0x0000000060619304       0x17 ../build/output/libraries/libapps.a(builtin_list.o)
 *fill*         0x000000006061931b        0x1 
 .rodata.builtin_list
                0x000000006061931c       0x50 ../build/output/libraries/libapps.a(builtin_list.o)
                0x000000006061931c                builtin_list
 .rodata.tash_history.str1.1
                0x000000006061936c       0x3a ../build/output/libraries/libapps.a(tash_command.o)
 .rodata.tash_clear.str1.1
                0x00000000606193a6        0xc ../build/output/libraries/libapps.a(tash_command.o)
 .rodata.tash_help.str1.1
                0x00000000606193b2       0x1d ../build/output/libraries/libapps.a(tash_command.o)
                                         0x1f (size before relaxing)
 .rodata.tash_exit.str1.1
                0x00000000606193cf       0x12 ../build/output/libraries/libapps.a(tash_command.o)
 .rodata.check_exclam_cmd.str1.1
                0x00000000606193e1       0x3b ../build/output/libraries/libapps.a(tash_command.o)
 .rodata.tash_execute_cmd.str1.1
                0x000000006061941c       0x2c ../build/output/libraries/libapps.a(tash_command.o)
 .rodata.tash_cmd_install.str1.1
                0x0000000060619448       0x37 ../build/output/libraries/libapps.a(tash_command.o)
 .rodata.str1.1
                0x000000006061947f       0x20 ../build/output/libraries/libapps.a(tash_command.o)
                                         0x25 (size before relaxing)
 *fill*         0x000000006061949f        0x1 
 .rodata.tash_basic_cmds
                0x00000000606194a0       0x54 ../build/output/libraries/libapps.a(tash_command.o)
 .rodata.tash_print_cmd.str1.1
                0x00000000606194f4        0x9 ../build/output/libraries/libapps.a(tash_main.o)
 .rodata.tash_read_input_line.str1.1
                0x00000000606194fd       0x48 ../build/output/libraries/libapps.a(tash_main.o)
                                         0x4a (size before relaxing)
 .rodata.tash_start.str1.1
                0x0000000060619545       0x11 ../build/output/libraries/libapps.a(tash_main.o)
 .rodata.tash_execute_cmdline.str1.1
                0x0000000060619556       0x28 ../build/output/libraries/libapps.a(tash_main.o)
 .rodata.tash_main.str1.1
                0x000000006061957e        0xd ../build/output/libraries/libapps.a(tash_main.o)
 .rodata.mem_leak_checker_main.str1.1
                0x000000006061958b       0x25 ../build/output/libraries/libapps.a(mem_leak_checker_main.o)
 .rodata.sysinfo.str1.1
                0x00000000606195b0       0xe8 ../build/output/libraries/libapps.a(sysinfo.o)
 .rodata.str1.1
                0x0000000060619698       0x1d ../build/output/libraries/libapps.a(systemcmd.o)
                                         0x28 (size before relaxing)
 *fill*         0x00000000606196b5        0x3 
 .rodata.system_cmds
                0x00000000606196b8       0x54 ../build/output/libraries/libapps.a(systemcmd.o)
 .rodata.show_usage.str1.1
                0x000000006061970c      0x141 ../build/output/libraries/libapps.a(security_level_cmd.o)
 .rodata.tash_security_level.str1.1
                0x000000006061984d      0x23d ../build/output/libraries/libapps.a(security_level_cmd.o)
                                        0x243 (size before relaxing)
 .rodata.security_level_register_utilcmds.str1.1
                0x0000000060619a8a        0xa ../build/output/libraries/libapps.a(security_level_cmd.o)
 .rodata.mount_handler.str1.1
                0x0000000060619a94       0x31 ../build/output/libraries/libapps.a(fscmd.o)
 .rodata.df_handler.str1.1
                0x0000000060619ac5       0x15 ../build/output/libraries/libapps.a(fscmd.o)
 .rodata.tash_rmdir.str1.1
                0x0000000060619ada       0x16 ../build/output/libraries/libapps.a(fscmd.o)
 .rodata.delete_entry.str1.1
                0x0000000060619af0       0x9d ../build/output/libraries/libapps.a(fscmd.o)
 .rodata.tash_rm.str1.1
                0x0000000060619b8d       0x51 ../build/output/libraries/libapps.a(fscmd.o)
 .rodata.tash_pwd.str1.1
                0x0000000060619bde       0x51 ../build/output/libraries/libapps.a(fscmd.o)
                                          0xa (size before relaxing)
 .rodata.tash_mv.str1.1
                0x0000000060619bde       0x64 ../build/output/libraries/libapps.a(fscmd.o)
 .rodata.tash_mkdir.str1.1
                0x0000000060619c42        0x6 ../build/output/libraries/libapps.a(fscmd.o)
 .rodata.tash_cd.str1.1
                0x0000000060619c48        0xc ../build/output/libraries/libapps.a(fscmd.o)
                                         0x10 (size before relaxing)
 .rodata.tash_cat.str1.1
                0x0000000060619c54      0x179 ../build/output/libraries/libapps.a(fscmd.o)
                                        0x1f6 (size before relaxing)
 .rodata.ls_specialdir.str1.1
                0x0000000060619dcd      0x179 ../build/output/libraries/libapps.a(fscmd.o)
                                          0x2 (size before relaxing)
 .rodata.search_mountpoints.str1.1
                0x0000000060619dcd       0x31 ../build/output/libraries/libapps.a(fscmd.o)
 .rodata.ls_handler.str1.1
                0x0000000060619dfe       0x1e ../build/output/libraries/libapps.a(fscmd.o)
                                         0x23 (size before relaxing)
 .rodata.tash_df.str1.1
                0x0000000060619e1c       0x77 ../build/output/libraries/libapps.a(fscmd.o)
 .rodata.format_filesystem.part.0.str1.1
                0x0000000060619e93       0x6d ../build/output/libraries/libapps.a(fscmd.o)
 .rodata.tash_format.str1.1
                0x0000000060619f00       0x38 ../build/output/libraries/libapps.a(fscmd.o)
 .rodata.tash_echo.part.0.str1.1
                0x0000000060619f38       0xd0 ../build/output/libraries/libapps.a(fscmd.o)
                                         0xd2 (size before relaxing)
 .rodata.tash_echo.str1.1
                0x000000006061a008       0xd0 ../build/output/libraries/libapps.a(fscmd.o)
                                         0x97 (size before relaxing)
 .rodata.foreach_direntry.constprop.0.str1.1
                0x000000006061a008       0x22 ../build/output/libraries/libapps.a(fscmd.o)
 .rodata.tash_ls.str1.1
                0x000000006061a02a       0x4f ../build/output/libraries/libapps.a(fscmd.o)
 .rodata.df_man_readable_handler.str1.1
                0x000000006061a079       0x30 ../build/output/libraries/libapps.a(fscmd.o)
 .rodata.tash_mount.str1.1
                0x000000006061a0a9       0x7b ../build/output/libraries/libapps.a(fscmd.o)
 .rodata.str1.1
                0x000000006061a124       0x18 ../build/output/libraries/libapps.a(fscmd.o)
                                         0x25 (size before relaxing)
 .rodata.fs_utilcmds
                0x000000006061a13c       0xa8 ../build/output/libraries/libapps.a(fscmd.o)
 .rodata.nic_display_state.str1.1
                0x000000006061a1e4       0xb0 ../build/output/libraries/libapps.a(netcmd.o)
                                         0xbd (size before relaxing)
 .rodata.cmd_ifconfig.str1.1
                0x000000006061a294      0x239 ../build/output/libraries/libapps.a(netcmd.o)
                                        0x23d (size before relaxing)
 .rodata.cmd_ifup.str1.1
                0x000000006061a4cd       0x31 ../build/output/libraries/libapps.a(netcmd.o)
 .rodata.cmd_ifdown.str1.1
                0x000000006061a4fe       0x10 ../build/output/libraries/libapps.a(netcmd.o)
 .rodata.str1.1
                0x000000006061a50e       0x3d ../build/output/libraries/libapps.a(netcmd.o)
 .rodata.__FUNCTION__.0
                0x000000006061a54b       0x15 ../build/output/libraries/libapps.a(netcmd.o)
 .rodata.__FUNCTION__.1
                0x000000006061a560       0x1a ../build/output/libraries/libapps.a(netcmd.o)
 .rodata.__FUNCTION__.2
                0x000000006061a57a       0x18 ../build/output/libraries/libapps.a(netcmd.o)
 .rodata.__FUNCTION__.3
                0x000000006061a592       0x19 ../build/output/libraries/libapps.a(netcmd.o)
 .rodata.__FUNCTION__.4
                0x000000006061a5ab       0x12 ../build/output/libraries/libapps.a(netcmd.o)
 *fill*         0x000000006061a5bd        0x3 
 .rodata.net_appcmds
                0x000000006061a5c0       0x18 ../build/output/libraries/libapps.a(netcmd.o)
 .rodata.net_utilcmds
                0x000000006061a5d8       0x6c ../build/output/libraries/libapps.a(netcmd.o)
 .rodata._ping_start.str1.1
                0x000000006061a644      0x38f ../build/output/libraries/libapps.a(netcmd_ping.o)
                                        0x3b1 (size before relaxing)
 .rodata.__FUNCTION__.0
                0x000000006061a9d3        0xa ../build/output/libraries/libapps.a(netcmd_ping.o)
 .rodata.__FUNCTION__.1
                0x000000006061a9dd        0xa ../build/output/libraries/libapps.a(netcmd_ping.o)
 .rodata.__FUNCTION__.2
                0x000000006061a9e7        0xd ../build/output/libraries/libapps.a(netcmd_ping.o)
 .rodata.cmd_netmon.str1.1
                0x000000006061a9f4      0x290 ../build/output/libraries/libapps.a(netcmd_netmon.o)
                                        0x2c7 (size before relaxing)
 .rodata.__FUNCTION__.0
                0x000000006061ac84       0x11 ../build/output/libraries/libapps.a(netcmd_netmon.o)
 .rodata.__FUNCTION__.1
                0x000000006061ac95        0xb ../build/output/libraries/libapps.a(netcmd_netmon.o)
 .rodata.show_usage.str1.1
                0x000000006061aca0      0x125 ../build/output/libraries/libapps.a(netcmd_dhcpd.o)
                                        0x127 (size before relaxing)
 .rodata.cmd_dhcpd.str1.1
                0x000000006061adc5      0x1b3 ../build/output/libraries/libapps.a(netcmd_dhcpd.o)
                                        0x1c3 (size before relaxing)
 .rodata.__FUNCTION__.0
                0x000000006061af78        0xa ../build/output/libraries/libapps.a(netcmd_dhcpd.o)
 .rodata.utils_date.str1.1
                0x000000006061af82      0x32d ../build/output/libraries/libapps.a(utils_date.o)
                                        0x333 (size before relaxing)
 .rodata.str1.1
                0x000000006061b2af       0x4c ../build/output/libraries/libapps.a(utils_date.o)
 .rodata.format.0
                0x000000006061b2fb       0x18 ../build/output/libraries/libapps.a(utils_date.o)
 *fill*         0x000000006061b313        0x1 
 .rodata.g_datemontab
                0x000000006061b314       0x30 ../build/output/libraries/libapps.a(utils_date.o)
 .rodata.g_dayofmonth
                0x000000006061b344       0x30 ../build/output/libraries/libapps.a(utils_date.o)
 .rodata.g_dayofweek
                0x000000006061b374       0x1c ../build/output/libraries/libapps.a(utils_date.o)
 .rodata.utils_free.str1.1
                0x000000006061b390       0x8d ../build/output/libraries/libapps.a(utils_free.o)
 .rodata.heapinfo_read_proc.str1.1
                0x000000006061b41d       0x22 ../build/output/libraries/libapps.a(utils_heapinfo.o)
                                         0x27 (size before relaxing)
 .rodata.heapinfo_print_values.str1.1
                0x000000006061b43f       0x28 ../build/output/libraries/libapps.a(utils_heapinfo.o)
                                         0x31 (size before relaxing)
 .rodata.utils_heapinfo.str1.1
                0x000000006061b467      0x34e ../build/output/libraries/libapps.a(utils_heapinfo.o)
                                        0x3d5 (size before relaxing)
 .rodata.utils_prodconfig.str1.1
                0x000000006061b7b5       0x9f ../build/output/libraries/libapps.a(utils_prodconfig.o)
 .rodata.ps_read_proc.str1.1
                0x000000006061b854       0x27 ../build/output/libraries/libapps.a(utils_ps.o)
 .rodata.ps_print_values.str1.1
                0x000000006061b854       0x3a ../build/output/libraries/libapps.a(utils_ps.o)
                                         0x3c (size before relaxing)
 .rodata.utils_ps.str1.1
                0x000000006061b88e       0xae ../build/output/libraries/libapps.a(utils_ps.o)
                                         0xb0 (size before relaxing)
 .rodata.str1.1
                0x000000006061b93c       0x86 ../build/output/libraries/libapps.a(utils_ps.o)
 *fill*         0x000000006061b9c2        0x2 
 .rodata.utils_statenames
                0x000000006061b9c4       0x2c ../build/output/libraries/libapps.a(utils_ps.o)
 .rodata.utils_ttypenames
                0x000000006061b9f0       0x10 ../build/output/libraries/libapps.a(utils_ps.o)
 .rodata.utils_uptime.str1.1
                0x000000006061ba00        0xf ../build/output/libraries/libapps.a(utils_uptime.o)
 .rodata.utils_proc_pid_foreach.str1.1
                0x000000006061ba0f       0x23 ../build/output/libraries/libapps.a(utils_proc.o)
                                         0x29 (size before relaxing)
 .rodata.utils_readfile.str1.1
                0x000000006061ba32       0x3d ../build/output/libraries/libapps.a(utils_proc.o)
                                         0x40 (size before relaxing)
 .rodata._ZN11CHelloWorld10HelloWorldEv.isra.0.str1.1
                0x000000006061ba6f       0x58 ../build/output/libraries/libapps.a(helloxx_main.o)
 .rodata.helloxx_main.str1.1
                0x000000006061bac7       0xe9 ../build/output/libraries/libapps.a(helloxx_main.o)
 .rodata.hello_main.str1.1
                0x000000006061bbb0       0xe9 ../build/output/libraries/libapps.a(hello_main.o)
                                         0x10 (size before relaxing)
 .rodata.tash_pm_open_driver.str1.1
                0x000000006061bbb0        0x8 ../build/output/libraries/libapps.a(tash_pm.o)
 .rodata.tash_pm_get_domain_id.str1.1
                0x000000006061bbb0        0x5 ../build/output/libraries/libapps.a(tash_pm.o)
 .rodata.show_usage.str1.1
                0x000000006061bbb0       0x30 ../build/output/libraries/libapps.a(netdb_main.o)
 .rodata.netdb_main.str1.1
                0x000000006061bbe0      0x12e ../build/output/libraries/libapps.a(netdb_main.o)
                                        0x139 (size before relaxing)
 .rodata.getwd.str1.1
                0x000000006061bd0e        0x2 ../build/output/libraries/libapps.a(fs_getpath.o)
 .rodata.get_dirpath.str1.1
                0x000000006061bd0e       0x11 ../build/output/libraries/libapps.a(fs_getpath.o)
                                         0x1b (size before relaxing)
 .rodata.get_fullpath.str1.1
                0x000000006061bd1f        0x6 ../build/output/libraries/libapps.a(fs_getpath.o)
 *fill*         0x000000006061bd1f        0x1 
 .rodata._ZNKSt9bad_alloc4whatEv.str1.4
                0x000000006061bd20        0xf /bin/../lib/gcc/arm-none-eabi/10.3.1/../../../../arm-none-eabi/lib/thumb/v8-a+simd/hard/libsupc++.a(bad_alloc.o)
 *fill*         0x000000006061bd2f        0x1 
 .rodata._ZTISt9bad_alloc
                0x000000006061bd30        0xc /bin/../lib/gcc/arm-none-eabi/10.3.1/../../../../arm-none-eabi/lib/thumb/v8-a+simd/hard/libsupc++.a(bad_alloc.o)
                0x000000006061bd30                typeinfo for std::bad_alloc
 .rodata._ZTSSt9bad_alloc
                0x000000006061bd3c        0xd /bin/../lib/gcc/arm-none-eabi/10.3.1/../../../../arm-none-eabi/lib/thumb/v8-a+simd/hard/libsupc++.a(bad_alloc.o)
                0x000000006061bd3c                typeinfo name for std::bad_alloc
 *fill*         0x000000006061bd49        0x3 
 .rodata._ZTVSt9bad_alloc
                0x000000006061bd4c       0x14 /bin/../lib/gcc/arm-none-eabi/10.3.1/../../../../arm-none-eabi/lib/thumb/v8-a+simd/hard/libsupc++.a(bad_alloc.o)
                0x000000006061bd4c                vtable for std::bad_alloc
 .rodata._ZNKSt9exception4whatEv.str1.4
                0x000000006061bd60        0xf /bin/../lib/gcc/arm-none-eabi/10.3.1/../../../../arm-none-eabi/lib/thumb/v8-a+simd/hard/libsupc++.a(eh_exception.o)
 *fill*         0x000000006061bd6f        0x1 
 .rodata._ZNKSt13bad_exception4whatEv.str1.4
                0x000000006061bd70       0x13 /bin/../lib/gcc/arm-none-eabi/10.3.1/../../../../arm-none-eabi/lib/thumb/v8-a+simd/hard/libsupc++.a(eh_exception.o)
 *fill*         0x000000006061bd83        0x1 
 .rodata._ZTIN10__cxxabiv115__forced_unwindE
                0x000000006061bd84        0x8 /bin/../lib/gcc/arm-none-eabi/10.3.1/../../../../arm-none-eabi/lib/thumb/v8-a+simd/hard/libsupc++.a(eh_exception.o)
                0x000000006061bd84                typeinfo for __cxxabiv1::__forced_unwind
 .rodata._ZTIN10__cxxabiv119__foreign_exceptionE
                0x000000006061bd8c        0x8 /bin/../lib/gcc/arm-none-eabi/10.3.1/../../../../arm-none-eabi/lib/thumb/v8-a+simd/hard/libsupc++.a(eh_exception.o)
                0x000000006061bd8c                typeinfo for __cxxabiv1::__foreign_exception
 .rodata._ZTISt13bad_exception
                0x000000006061bd94        0xc /bin/../lib/gcc/arm-none-eabi/10.3.1/../../../../arm-none-eabi/lib/thumb/v8-a+simd/hard/libsupc++.a(eh_exception.o)
                0x000000006061bd94                typeinfo for std::bad_exception
 .rodata._ZTISt9exception
                0x000000006061bda0        0x8 /bin/../lib/gcc/arm-none-eabi/10.3.1/../../../../arm-none-eabi/lib/thumb/v8-a+simd/hard/libsupc++.a(eh_exception.o)
                0x000000006061bda0                typeinfo for std::exception
 .rodata._ZTSN10__cxxabiv115__forced_unwindE
                0x000000006061bda8       0x20 /bin/../lib/gcc/arm-none-eabi/10.3.1/../../../../arm-none-eabi/lib/thumb/v8-a+simd/hard/libsupc++.a(eh_exception.o)
                0x000000006061bda8                typeinfo name for __cxxabiv1::__forced_unwind
 .rodata._ZTSN10__cxxabiv119__foreign_exceptionE
                0x000000006061bdc8       0x24 /bin/../lib/gcc/arm-none-eabi/10.3.1/../../../../arm-none-eabi/lib/thumb/v8-a+simd/hard/libsupc++.a(eh_exception.o)
                0x000000006061bdc8                typeinfo name for __cxxabiv1::__foreign_exception
 .rodata._ZTSSt13bad_exception
                0x000000006061bdec       0x12 /bin/../lib/gcc/arm-none-eabi/10.3.1/../../../../arm-none-eabi/lib/thumb/v8-a+simd/hard/libsupc++.a(eh_exception.o)
                0x000000006061bdec                typeinfo name for std::bad_exception
 *fill*         0x000000006061bdfe        0x2 
 .rodata._ZTSSt9exception
                0x000000006061be00        0xd /bin/../lib/gcc/arm-none-eabi/10.3.1/../../../../arm-none-eabi/lib/thumb/v8-a+simd/hard/libsupc++.a(eh_exception.o)
                0x000000006061be00                typeinfo name for std::exception
 *fill*         0x000000006061be0d        0x3 
 .rodata._ZTVN10__cxxabiv115__forced_unwindE
                0x000000006061be10       0x14 /bin/../lib/gcc/arm-none-eabi/10.3.1/../../../../arm-none-eabi/lib/thumb/v8-a+simd/hard/libsupc++.a(eh_exception.o)
                0x000000006061be10                vtable for __cxxabiv1::__forced_unwind
 .rodata._ZTVN10__cxxabiv119__foreign_exceptionE
                0x000000006061be24       0x14 /bin/../lib/gcc/arm-none-eabi/10.3.1/../../../../arm-none-eabi/lib/thumb/v8-a+simd/hard/libsupc++.a(eh_exception.o)
                0x000000006061be24                vtable for __cxxabiv1::__foreign_exception
 .rodata._ZTVSt13bad_exception
                0x000000006061be38       0x14 /bin/../lib/gcc/arm-none-eabi/10.3.1/../../../../arm-none-eabi/lib/thumb/v8-a+simd/hard/libsupc++.a(eh_exception.o)
                0x000000006061be38                vtable for std::bad_exception
 .rodata._ZTVSt9exception
                0x000000006061be4c       0x14 /bin/../lib/gcc/arm-none-eabi/10.3.1/../../../../arm-none-eabi/lib/thumb/v8-a+simd/hard/libsupc++.a(eh_exception.o)
                0x000000006061be4c                vtable for std::exception
 .rodata._ZSt7nothrow
                0x000000006061be60        0x1 /bin/../lib/gcc/arm-none-eabi/10.3.1/../../../../arm-none-eabi/lib/thumb/v8-a+simd/hard/libsupc++.a(new_handler.o)
                0x000000006061be60                std::nothrow
 *fill*         0x000000006061be61        0x3 
 .rodata.__cxa_pure_virtual.str1.4
                0x000000006061be64       0x1c /bin/../lib/gcc/arm-none-eabi/10.3.1/../../../../arm-none-eabi/lib/thumb/v8-a+simd/hard/libsupc++.a(pure.o)
 .rodata.__cxa_deleted_virtual.str1.4
                0x000000006061be80       0x1f /bin/../lib/gcc/arm-none-eabi/10.3.1/../../../../arm-none-eabi/lib/thumb/v8-a+simd/hard/libsupc++.a(pure.o)
 *fill*         0x000000006061be9f        0x1 
 .rodata._ZTIN10__cxxabiv120__si_class_type_infoE
                0x000000006061bea0        0xc /bin/../lib/gcc/arm-none-eabi/10.3.1/../../../../arm-none-eabi/lib/thumb/v8-a+simd/hard/libsupc++.a(si_class_type_info.o)
                0x000000006061bea0                typeinfo for __cxxabiv1::__si_class_type_info
 .rodata._ZTSN10__cxxabiv120__si_class_type_infoE
                0x000000006061beac       0x25 /bin/../lib/gcc/arm-none-eabi/10.3.1/../../../../arm-none-eabi/lib/thumb/v8-a+simd/hard/libsupc++.a(si_class_type_info.o)
                0x000000006061beac                typeinfo name for __cxxabiv1::__si_class_type_info
 *fill*         0x000000006061bed1        0x3 
 .rodata._ZTVN10__cxxabiv120__si_class_type_infoE
                0x000000006061bed4       0x2c /bin/../lib/gcc/arm-none-eabi/10.3.1/../../../../arm-none-eabi/lib/thumb/v8-a+simd/hard/libsupc++.a(si_class_type_info.o)
                0x000000006061bed4                vtable for __cxxabiv1::__si_class_type_info
 .rodata._ZTISt9type_info
                0x000000006061bf00        0x8 /bin/../lib/gcc/arm-none-eabi/10.3.1/../../../../arm-none-eabi/lib/thumb/v8-a+simd/hard/libsupc++.a(tinfo.o)
                0x000000006061bf00                typeinfo for std::type_info
 .rodata._ZTSSt9type_info
                0x000000006061bf08        0xd /bin/../lib/gcc/arm-none-eabi/10.3.1/../../../../arm-none-eabi/lib/thumb/v8-a+simd/hard/libsupc++.a(tinfo.o)
                0x000000006061bf08                typeinfo name for std::type_info
 *fill*         0x000000006061bf15        0x3 
 .rodata._ZTVSt9type_info
                0x000000006061bf18       0x20 /bin/../lib/gcc/arm-none-eabi/10.3.1/../../../../arm-none-eabi/lib/thumb/v8-a+simd/hard/libsupc++.a(tinfo.o)
                0x000000006061bf18                vtable for std::type_info
 .rodata._ZN9__gnu_cxx27__verbose_terminate_handlerEv.str1.4
                0x000000006061bf38       0x94 /bin/../lib/gcc/arm-none-eabi/10.3.1/../../../../arm-none-eabi/lib/thumb/v8-a+simd/hard/libsupc++.a(vterminate.o)
 .rodata.str1.4
                0x000000006061bfcc      0x899 /bin/../lib/gcc/arm-none-eabi/10.3.1/../../../../arm-none-eabi/lib/thumb/v8-a+simd/hard/libsupc++.a(cp-demangle.o)
                                        0x8e9 (size before relaxing)
 *fill*         0x000000006061c865        0x3 
 .rodata._ZTIN10__cxxabiv117__class_type_infoE
                0x000000006061c868        0xc /bin/../lib/gcc/arm-none-eabi/10.3.1/../../../../arm-none-eabi/lib/thumb/v8-a+simd/hard/libsupc++.a(class_type_info.o)
                0x000000006061c868                typeinfo for __cxxabiv1::__class_type_info
 .rodata._ZTSN10__cxxabiv117__class_type_infoE
                0x000000006061c874       0x22 /bin/../lib/gcc/arm-none-eabi/10.3.1/../../../../arm-none-eabi/lib/thumb/v8-a+simd/hard/libsupc++.a(class_type_info.o)
                0x000000006061c874                typeinfo name for __cxxabiv1::__class_type_info
 *fill*         0x000000006061c896        0x2 
 .rodata._ZTVN10__cxxabiv117__class_type_infoE
                0x000000006061c898       0x2c /bin/../lib/gcc/arm-none-eabi/10.3.1/../../../../arm-none-eabi/lib/thumb/v8-a+simd/hard/libsupc++.a(class_type_info.o)
                0x000000006061c898                vtable for __cxxabiv1::__class_type_info
 .rodata.vasprintf.str1.1
                0x000000006061c8c4       0x16 ../build/output/libraries/libuc.a(lib_vasprintf.o)
 .rodata.memoutstream_putc.str1.1
                0x000000006061c8da       0x19 ../build/output/libraries/libuc.a(lib_memoutstream.o)
 .rodata.nulloutstream_putc.str1.1
                0x000000006061c8f3       0x1a ../build/output/libraries/libuc.a(lib_nulloutstream.o)
 .rodata.perror.str1.1
                0x000000006061c90d        0x8 ../build/output/libraries/libuc.a(lib_perror.o)
 .rodata.chdir.str1.1
                0x000000006061c915        0xd ../build/output/libraries/libuc.a(lib_chdir.o)
 .rodata.strerror.str1.1
                0x000000006061c915        0xe ../build/output/libraries/libuc.a(lib_strerror.o)
 .rodata.str1.1
                0x000000006061c923      0xb08 ../build/output/libraries/libuc.a(lib_strerror.o)
                                        0xb12 (size before relaxing)
 *fill*         0x000000006061d42b        0x1 
 .rodata.g_errnomap
                0x000000006061d42c      0x3d0 ../build/output/libraries/libuc.a(lib_strerror.o)
 .rodata.ether_ntoa.str1.1
                0x000000006061d7fc       0x1e ../build/output/libraries/libuc.a(lib_etherntoa.o)
 .rodata.inet_addr.str1.1
                0x000000006061d81a        0xc ../build/output/libraries/libuc.a(lib_inetaddr.o)
 .rodata.inet_ntoa.str1.1
                0x000000006061d826        0xc ../build/output/libraries/libuc.a(lib_inetntoa.o)
 .rodata.inet_ntop.str1.1
                0x000000006061d826       0x16 ../build/output/libraries/libuc.a(lib_inetntop.o)
                                         0x24 (size before relaxing)
 .rodata.inet_pton.str1.1
                0x000000006061d83c       0x13 ../build/output/libraries/libuc.a(lib_inetpton.o)
 .rodata.freeaddrinfo.str1.1
                0x000000006061d84f       0x51 ../build/output/libraries/libuc.a(lib_freeaddrinfo.o)
 .rodata.__FUNCTION__.0
                0x000000006061d8a0        0xd ../build/output/libraries/libuc.a(lib_freeaddrinfo.o)
 .rodata.getaddrinfo.str1.1
                0x000000006061d8ad       0x45 ../build/output/libraries/libuc.a(lib_getaddrinfo.o)
 .rodata.__FUNCTION__.0
                0x000000006061d8ad        0xc ../build/output/libraries/libuc.a(lib_getaddrinfo.o)
 .rodata.gethostbyname.str1.1
                0x000000006061d8b9       0x45 ../build/output/libraries/libuc.a(lib_gethostbyname.o)
 .rodata.__FUNCTION__.0
                0x000000006061d8b9        0xe ../build/output/libraries/libuc.a(lib_gethostbyname.o)
 .rodata.strftime.str1.1
                0x000000006061d8c7       0x2e ../build/output/libraries/libuc.a(lib_strftime.o)
                                         0x3a (size before relaxing)
 .rodata.str1.1
                0x000000006061d8f5       0x8b ../build/output/libraries/libuc.a(lib_strftime.o)
                                         0xd7 (size before relaxing)
 .rodata.g_abbrev_wdayname
                0x000000006061d980       0x1c ../build/output/libraries/libuc.a(lib_strftime.o)
 .rodata.g_abbrevmonthname
                0x000000006061d99c       0x30 ../build/output/libraries/libuc.a(lib_strftime.o)
 .rodata.g_monthname
                0x000000006061d9cc       0x30 ../build/output/libraries/libuc.a(lib_strftime.o)
 .rodata.g_wdayname
                0x000000006061d9fc       0x1c ../build/output/libraries/libuc.a(lib_strftime.o)
 .rodata.g_daysbeforemonth
                0x000000006061da18       0x1a ../build/output/libraries/libuc.a(lib_daysbeforemonth.o)
 .rodata.settzname.str1.1
                0x000000006061da32       0x7a ../build/output/libraries/libuc.a(lib_localtime.o)
 .rodata.tzload.str1.1
                0x000000006061daac        0xa ../build/output/libraries/libuc.a(lib_localtime.o)
                                         0x1a (size before relaxing)
 .rodata.tzparse.str1.1
                0x000000006061dab6       0x1b ../build/output/libraries/libuc.a(lib_localtime.o)
 .rodata.tzset.str1.1
                0x000000006061dad1        0x3 ../build/output/libraries/libuc.a(lib_localtime.o)
 *fill*         0x000000006061dad1        0x3 
 .rodata.g_mon_lengths
                0x000000006061dad4       0x60 ../build/output/libraries/libuc.a(lib_localtime.o)
 .rodata.g_wildabbr
                0x000000006061db34        0x4 ../build/output/libraries/libuc.a(lib_localtime.o)
 .rodata.g_year_lengths
                0x000000006061db38        0x8 ../build/output/libraries/libuc.a(lib_localtime.o)
 .rodata.zttinfo.0
                0x000000006061db40       0x14 ../build/output/libraries/libuc.a(lib_localtime.o)
 .rodata.vsscanf.str1.1
                0x000000006061db54       0x1e ../build/output/libraries/libuc.a(lib_sscanf.o)
 .rodata.CSWTCH.30
                0x000000006061db72       0x21 ../build/output/libraries/libuc.a(lib_sscanf.o)
 .rodata.CSWTCH.31
                0x000000006061db93       0x21 ../build/output/libraries/libuc.a(lib_sscanf.o)
 .rodata.spaces
                0x000000006061dbb4        0x7 ../build/output/libraries/libuc.a(lib_sscanf.o)
 .rodata.rawoutstream_putc.str1.1
                0x000000006061dbbb       0x19 ../build/output/libraries/libuc.a(lib_rawoutstream.o)
 .rodata.heapinfo_update_total_size.str1.1
                0x000000006061dbd4       0x1c ../build/output/libraries/libumm.a(mm_heapinfo_utils.o)
 .rodata.mm_takesemaphore.str1.1
                0x000000006061dbf0       0x11 ../build/output/libraries/libumm.a(mm_sem.o)
 .rodata.mm_free.str1.1
                0x000000006061dc01       0x12 ../build/output/libraries/libumm.a(mm_free.o)
 .rodata.mm_malloc.str1.1
                0x000000006061dc13       0x14 ../build/output/libraries/libumm.a(mm_malloc.o)
 .rodata.mm_realloc.str1.1
                0x000000006061dc27       0x15 ../build/output/libraries/libumm.a(mm_realloc.o)
 .rodata.mm_get_index_of_heap.str1.1
                0x000000006061dc3c       0x14 ../build/output/libraries/libumm.a(mm_getheap.o)
 .rodata.__FUNCTION__.0
                0x000000006061dc50       0x15 ../build/output/libraries/libumm.a(mm_getheap.o)
 .rodata.mm_ioctl_alloc_fail.str1.1
                0x000000006061dc65        0xc ../build/output/libraries/libumm.a(mm_manage_allocfail.o)
 .rodata.mm_dump_heap_region.str1.1
                0x000000006061dc65       0xa6 ../build/output/libraries/libumm.a(mm_heap_dbg.o)
 .rodata.mm_shrinkchunk.str1.1
                0x000000006061dd0b       0x19 ../build/output/libraries/libumm.a(mm_shrinkchunk.o)
 .rodata.work_usrstart.str1.1
                0x000000006061dd24       0x1d ../build/output/libraries/libuwque.a(uwork_thread.o)
 .rodata.work_process.str1.1
                0x000000006061dd41        0xf ../build/output/libraries/libuwque.a(work_process.o)
 .rodata.work_lock.str1.1
                0x000000006061dd50       0x15 ../build/output/libraries/libuwque.a(uwork_lock.o)
 .rodata._process_msg.str1.1
                0x000000006061dd65       0x23 ../build/output/libraries/libframework.a(wifi_manager_msghandler.o)
 .rodata.wifimgr_run_msghandler.str1.1
                0x000000006061dd88       0x3c ../build/output/libraries/libframework.a(wifi_manager_msghandler.o)
 .rodata.wifimgr_post_message.str1.1
                0x000000006061ddc4       0x4d ../build/output/libraries/libframework.a(wifi_manager_msghandler.o)
 .rodata.secutils_convert_path_s2h.str1.1
                0x000000006061de11        0x4 ../build/output/libraries/libframework.a(security_utils.o)
 .rodata.CSWTCH.1
                0x000000006061de15       0x16 ../build/output/libraries/libframework.a(security_utils.o)
 .rodata.CSWTCH.5
                0x000000006061de2b       0x13 ../build/output/libraries/libframework.a(security_utils.o)
 .rodata.CSWTCH.7
                0x000000006061de3e        0xc ../build/output/libraries/libframework.a(security_utils.o)
 .rodata._process_msg.str1.1
                0x000000006061de4a       0x48 ../build/output/libraries/libframework.a(ble_manager_msghandler.o)
 .rodata.blemgr_run_msghandler.str1.1
                0x000000006061de92       0x10 ../build/output/libraries/libframework.a(ble_manager_msghandler.o)
 .rodata._sl_convert_res.str1.1
                0x000000006061dea2       0x16 ../build/output/libraries/libframework.a(seclink.o)
 .rodata.sl_init.str1.1
                0x000000006061deb8        0xd ../build/output/libraries/libframework.a(seclink.o)
 .rodata.sl_strerror.str1.1
                0x000000006061dec5       0x30 ../build/output/libraries/libframework.a(seclink.o)
 .rodata.str1.1
                0x000000006061def5      0x148 ../build/output/libraries/libframework.a(seclink.o)
 *fill*         0x000000006061e03d        0x3 
 .rodata.CSWTCH.60
                0x000000006061e040       0x50 ../build/output/libraries/libframework.a(seclink.o)
 .rodata.g_hal_res_table
                0x000000006061e090       0x14 ../build/output/libraries/libframework.a(seclink.o)
 .rodata.g_sec_res_table
                0x000000006061e0a4       0x50 ../build/output/libraries/libframework.a(seclink.o)
 .rodata.wifimgr_message_in.str1.1
                0x000000006061e0f4       0x44 ../build/output/libraries/libframework.a(wifi_manager_message.o)
 .rodata.wifimgr_message_out.str1.1
                0x000000006061e138       0x4f ../build/output/libraries/libframework.a(wifi_manager_message.o)
 .rodata.wifimgr_create_msgqueue.str1.1
                0x000000006061e187       0x8d ../build/output/libraries/libframework.a(wifi_manager_message.o)
 .rodata._wifimgr_scan.str1.1
                0x000000006061e214       0x64 ../build/output/libraries/libframework.a(wifi_manager_state.o)
 .rodata._wifimgr_scan_multi_aps.str1.1
                0x000000006061e278       0x78 ../build/output/libraries/libframework.a(wifi_manager_state.o)
 .rodata._wifimgr_deinit.str1.1
                0x000000006061e2f0       0x2d ../build/output/libraries/libframework.a(wifi_manager_state.o)
 .rodata._wifimgr_disconnect_ap.str1.1
                0x000000006061e31d       0x2c ../build/output/libraries/libframework.a(wifi_manager_state.o)
 .rodata._handler_on_connected_state.str1.1
                0x000000006061e349       0x15 ../build/output/libraries/libframework.a(wifi_manager_state.o)
                                         0x2f (size before relaxing)
 .rodata._wifimgr_run_softap.str1.1
                0x000000006061e35e       0x86 ../build/output/libraries/libframework.a(wifi_manager_state.o)
 .rodata._handler_on_disconnecting_state.str1.1
                0x000000006061e3e4       0x50 ../build/output/libraries/libframework.a(wifi_manager_state.o)
 .rodata._handler_on_disconnected_state.str1.1
                0x000000006061e434       0x1b ../build/output/libraries/libframework.a(wifi_manager_state.o)
 .rodata._wifimgr_stop_softap.str1.1
                0x000000006061e44f       0x5a ../build/output/libraries/libframework.a(wifi_manager_state.o)
 .rodata._handler_on_softap_state.str1.1
                0x000000006061e4a9       0x58 ../build/output/libraries/libframework.a(wifi_manager_state.o)
 .rodata._handler_on_connecting_state.str1.1
                0x000000006061e501       0x28 ../build/output/libraries/libframework.a(wifi_manager_state.o)
 .rodata._handler_on_uninitialized_state.str1.1
                0x000000006061e529       0x4a ../build/output/libraries/libframework.a(wifi_manager_state.o)
 .rodata.wifimgr_handle_request.str1.1
                0x000000006061e573       0x2d ../build/output/libraries/libframework.a(wifi_manager_state.o)
 .rodata.str1.1
                0x000000006061e5a0       0x57 ../build/output/libraries/libframework.a(wifi_manager_state.o)
                                         0x7d (size before relaxing)
 *fill*         0x000000006061e5f7        0x1 
 .rodata.g_handler
                0x000000006061e5f8       0x1c ../build/output/libraries/libframework.a(wifi_manager_state.o)
 .rodata.wifimgr_state_str
                0x000000006061e614       0x24 ../build/output/libraries/libframework.a(wifi_manager_state.o)
 .rodata.str1.1
                0x000000006061e638      0x10e ../build/output/libraries/libframework.a(wifi_manager_event.o)
 *fill*         0x000000006061e746        0x2 
 .rodata.wifimgr_evt_str
                0x000000006061e748       0x4c ../build/output/libraries/libframework.a(wifi_manager_event.o)
 .rodata.CSWTCH.1
                0x000000006061e794        0x7 ../build/output/libraries/libframework.a(wifi_manager_utils.o)
 .rodata.dhcpc_get_ipaddr.str1.1
                0x000000006061e79b       0x2d ../build/output/libraries/libframework.a(wifi_manager_dhcpc.o)
 .rodata.dhcpc_close_ipaddr.str1.1
                0x000000006061e7c8       0x61 ../build/output/libraries/libframework.a(wifi_manager_dhcpc.o)
 .rodata._wifi_dhcps_event.str1.1
                0x000000006061e829       0x23 ../build/output/libraries/libframework.a(wifi_manager_dhcps.o)
 .rodata.dhcps_inc_num.str1.1
                0x000000006061e84c       0x1e ../build/output/libraries/libframework.a(wifi_manager_dhcps.o)
 .rodata.dhcps_dec_num.str1.1
                0x000000006061e86a       0x1f ../build/output/libraries/libframework.a(wifi_manager_dhcps.o)
 .rodata.dhcps_add_node.str1.1
                0x000000006061e889       0x26 ../build/output/libraries/libframework.a(wifi_manager_dhcps.o)
 .rodata.wm_dhcps_start.str1.1
                0x000000006061e8af       0x2d ../build/output/libraries/libframework.a(wifi_manager_dhcps.o)
                                         0x94 (size before relaxing)
 .rodata.wm_dhcps_stop.str1.1
                0x000000006061e8dc       0x2f ../build/output/libraries/libframework.a(wifi_manager_dhcps.o)
 .rodata._send_msg.str1.1
                0x000000006061e90b       0x49 ../build/output/libraries/libframework.a(wifi_manager_lwnl.o)
 .rodata.lwnl_fetch_event.str1.1
                0x000000006061e954       0xb6 ../build/output/libraries/libframework.a(wifi_manager_lwnl_listener.o)
 *fill*         0x000000006061ea0a        0x2 
 .rodata.g_nullmsg
                0x000000006061ea0c       0x10 ../build/output/libraries/libframework.a(wifi_manager_lwnl_listener.o)
 .rodata.blemgr_message_in.str1.1
                0x000000006061ea1c       0x5f ../build/output/libraries/libframework.a(ble_manager_message.o)
 .rodata.__FUNCTION__.0
                0x000000006061ea7b       0x17 ../build/output/libraries/libframework.a(ble_manager_message.o)
 .rodata.__FUNCTION__.1
                0x000000006061ea92        0xe ../build/output/libraries/libframework.a(ble_manager_message.o)
 .rodata.__FUNCTION__.2
                0x000000006061eaa0       0x13 ../build/output/libraries/libframework.a(ble_manager_message.o)
 .rodata.__FUNCTION__.3
                0x000000006061eab3        0xe ../build/output/libraries/libframework.a(ble_manager_message.o)
 .rodata.__FUNCTION__.4
                0x000000006061eac1       0x12 ../build/output/libraries/libframework.a(ble_manager_message.o)
 .rodata.wifimgr_call_cb.str1.1
                0x000000006061ead3       0x37 ../build/output/libraries/libframework.a(wifi_manager_cb.o)
 .rodata.lwnl_fetch_ble_event.str1.1
                0x000000006061eb0a       0x4f ../build/output/libraries/libframework.a(ble_manager_lwnl_listener.o)
                                         0xb3 (size before relaxing)
 .rodata.blemgr_handle_request.str1.1
                0x000000006061eb59       0xc3 ../build/output/libraries/libframework.a(ble_manager_state.o)
 .rodata._autocon_process.str1.1
                0x000000006061ec1c      0x10d ../build/output/libraries/libframework.a(ble_manager_autoconnect.o)
 .rodata.ble_auto_device_scanned_cb.str1.1
                0x000000006061ed29       0x26 ../build/output/libraries/libframework.a(ble_manager_autoconnect.o)
 .rodata.ble_manager_autoconnect.str1.1
                0x000000006061ed4f       0x79 ../build/output/libraries/libframework.a(ble_manager_autoconnect.o)
 .rodata.__FUNCTION__.0
                0x000000006061edc8       0x1f ../build/output/libraries/libframework.a(ble_manager_autoconnect.o)
 .rodata.__FUNCTION__.1
                0x000000006061ede7       0x1b ../build/output/libraries/libframework.a(ble_manager_autoconnect.o)
 .rodata._ble_evt_handler.str1.1
                0x000000006061ee02       0x2f ../build/output/libraries/libframework.a(ble_queue.o)
 .rodata.ble_queue_init.str1.1
                0x000000006061ee31       0x95 ../build/output/libraries/libframework.a(ble_queue.o)
 .rodata.ble_queue_pri_set.str1.1
                0x000000006061eec6       0x2b ../build/output/libraries/libframework.a(ble_queue.o)
 .rodata.__func__.0
                0x000000006061eef1        0xf ../build/output/libraries/libframework.a(ble_queue.o)
 .rodata._send_msg.str1.1
                0x000000006061ef00       0x3d ../build/output/libraries/libframework.a(ble_manager_lwnl.o)
 .rodata.ble_drv_operation_enable_indication.str1.1
                0x000000006061ef3d        0xc ../build/output/libraries/libframework.a(ble_manager_lwnl.o)
 .rodata.__FUNCTION__.0
                0x000000006061ef49       0x35 ../build/output/libraries/libframework.a(ble_manager_lwnl.o)
 .rodata.__FUNCTION__.1
                0x000000006061ef7e       0x24 ../build/output/libraries/libframework.a(ble_manager_lwnl.o)
 .rodata.__cxa_callback.str1.1
                0x000000006061efa2       0x15 ../build/output/libraries/libcxx.a(libxx_cxa_atexit.o)
 .rodata.netlib_hwmacconv.str1.1
                0x000000006061efb7       0x23 ../build/output/libraries/libexternal.a(netlib.o)
 .rodata.netlib_getifaddrs.str1.1
                0x000000006061efda       0x63 ../build/output/libraries/libexternal.a(netlib_getifaddrs.o)
 .rodata.netlib_getstats.str1.1
                0x000000006061f03d       0x5b ../build/output/libraries/libexternal.a(netlib_getstats.o)
 .rodata.netlib_netmon_sock.str1.1
                0x000000006061f098       0x5b ../build/output/libraries/libexternal.a(netlib_netmon.o)
 .rodata.print_mac_addr.str1.1
                0x000000006061f098       0x1d ../build/output/libraries/libexternal.a(netlib_setmacaddr.o)
 .rodata.netlib_setmacaddr.str1.1
                0x000000006061f0b5       0x1e ../build/output/libraries/libexternal.a(netlib_setmacaddr.o)
 .rodata.netlib_getmacaddr.str1.1
                0x000000006061f0d3       0x44 ../build/output/libraries/libexternal.a(netlib_getmacaddr.o)
                                         0x64 (size before relaxing)
 .rodata.netlib_setdnsserver.str1.1
                0x000000006061f117       0x5b ../build/output/libraries/libexternal.a(netlib_setdnsserver.o)
 .rodata._delete_mq.str1.1
                0x000000006061f117       0x2a ../build/output/libraries/libexternal.a(dhcpd_lwip.o)
 .rodata._create_mq.str1.1
                0x000000006061f141       0x61 ../build/output/libraries/libexternal.a(dhcpd_lwip.o)
 .rodata._dhcpd_join_handler.str1.1
                0x000000006061f1a2      0x1e2 ../build/output/libraries/libexternal.a(dhcpd_lwip.o)
 .rodata.dhcp_server_start.str1.1
                0x000000006061f384       0xda ../build/output/libraries/libexternal.a(dhcpd_lwip.o)
 .rodata.dhcp_server_stop.str1.1
                0x000000006061f45e       0xb9 ../build/output/libraries/libexternal.a(dhcpd_lwip.o)
 .rodata.dhcp_client_start.str1.1
                0x000000006061f517       0xb9 ../build/output/libraries/libexternal.a(dhcpc_lwip.o)
                                         0x3f (size before relaxing)
 .rodata.dhcp_client_sethostname.str1.1
                0x000000006061f517       0x45 ../build/output/libraries/libexternal.a(dhcpc_lwip.o)
 .rodata.__FUNCTION__.0
                0x000000006061f517       0x18 ../build/output/libraries/libexternal.a(dhcpc_lwip.o)
 *fill*         0x000000006061f52f        0x1 
 .rodata.g_default_pthread_attr
                0x000000006061f530       0x24 ../build/output/libraries/libuc.a(pthread_attrinit.o)
                0x000000006061f530                g_default_pthread_attr
 .rodata.lowoutstream_putc.str1.1
                0x000000006061f554       0x19 ../build/output/libraries/libuc.a(lib_lowoutstream.o)
 *(.gnu.linkonce.r*)
                0x000000006061f56d                _erodata = .
                0x000000006061f56d                _eronly = .

.rel.dyn        0x000000006061f570        0x0 load address 0x000000000e181577
 .rel.iplt      0x000000006061f570        0x0 /root/tizenrt/os/userspace/up_userspace_common.o

.ctors          0x000000006061f570        0x8 load address 0x000000000e181577
                0x000000006061f570                _sctors = .
 *(.ctors)
 *(.init_array)
 .init_array    0x000000006061f570        0x4 ../build/output/libraries/libapps.a(helloxx_main.o)
 .init_array    0x000000006061f574        0x4 /bin/../lib/gcc/arm-none-eabi/10.3.1/../../../../arm-none-eabi/lib/thumb/v8-a+simd/hard/libsupc++.a(eh_alloc.o)
                0x000000006061f578                _ectors = .

.dtors          0x000000006061f578        0x0 load address 0x000000000e18157f
                0x000000006061f578                _sdtors = .
 *(.dtors)
 *(.fini_array)
                0x000000006061f578                _edtors = .
                0x000000006061f578                _sdata_app = ABSOLUTE (.)

.data           0x000000006061f578      0x15e load address 0x000000000e18157f
                0x000000006061f578                _sdata = .
                0x000000006061f578        0x4 LONG 0x0
 *(.curapp)
 .curapp        0x000000006061f57c        0x4 ../build/output/libraries/libumm.a(umm_initialize.o)
                0x000000006061f57c                g_cur_app
 *(.appheaptable)
 .appheaptable  0x000000006061f580        0x8 ../build/output/libraries/libumm.a(umm_initialize.o)
                0x000000006061f580                g_app_heap_table
 *(.data)
 .data          0x000000006061f588        0x0 /root/tizenrt/os/userspace/up_userspace_common.o
 .data          0x000000006061f588        0x0 ../build/output/libraries/libproxies.a(PROXY_getpid.o)
 .data          0x000000006061f588        0x0 ../build/output/libraries/libproxies.a(PROXY_sched_getstreams.o)
 .data          0x000000006061f588        0x0 ../build/output/libraries/libuc.a(lib_printf.o)
 .data          0x000000006061f588        0x0 ../build/output/libraries/libuc.a(lib_fgetc.o)
 .data          0x000000006061f588        0x0 ../build/output/libraries/libuc.a(lib_vfprintf.o)
 .data          0x000000006061f588        0x0 ../build/output/libraries/libuc.a(lib_stdoutstream.o)
 .data          0x000000006061f588        0x0 ../build/output/libraries/libuc.a(lib_libnoflush.o)
 .data          0x000000006061f588        0x0 ../build/output/libraries/libuc.a(lib_sleep.o)
 .data          0x000000006061f588        0x0 ../build/output/libraries/libuc.a(task_startup.o)
 .data          0x000000006061f588        0x0 ../build/output/libraries/libuc.a(pthread_startup.o)
 .data          0x000000006061f588        0x0 ../build/output/libraries/libuc.a(lib_filesem.o)
 .data          0x000000006061f588        0x0 ../build/output/libraries/libuc.a(lib_libvsprintf.o)
 .data          0x000000006061f588        0x0 ../build/output/libraries/libuc.a(lib_libfread.o)
 .data          0x000000006061f588        0x0 ../build/output/libraries/libuc.a(lib_libfflush.o)
 .data          0x000000006061f588        0x0 ../build/output/libraries/libuc.a(lib_wrflush.o)
 .data          0x000000006061f588        0x0 ../build/output/libraries/libuc.a(lib_fputc.o)
 .data          0x000000006061f588        0x0 ../build/output/libraries/libuc.a(lib_strnlen.o)
 .data          0x000000006061f588        0x0 ../build/output/libraries/libuc.a(sem_init.o)
 .data          0x000000006061f588        0x0 ../build/output/libraries/libuc.a(lib_dtoa_engine.o)
 .data          0x000000006061f588        0x0 ../build/output/libraries/libuc.a(lib_ultoa_invert.o)
 .data          0x000000006061f588        0x0 ../build/output/libraries/libuc.a(lib_libfwrite.o)
 .data          0x000000006061f588        0x0 ../build/output/libraries/libuc.a(lib_rdflush.o)
 .data          0x000000006061f588        0x0 ../build/output/libraries/libuc.a(lib_dtoa_data.o)
 .data          0x000000006061f588        0x0 ../build/output/libraries/libuc.a(lib_fseek.o)
 .data          0x000000006061f588        0x0 ../build/output/libraries/libuarch.a(arm_signal_handler.o)
 .data          0x000000006061f588        0x0 ../build/output/libraries/libframework.a(binary_manager_notify.o)
 .data          0x000000006061f588        0x0 ../build/output/libraries/libframework.a(binary_manager_interface.o)
 .data          0x000000006061f588        0x0 ../build/output/libraries/libapps.a(init.o)
 .data          0x000000006061f588        0x0 ../build/output/libraries/libapps.a(builtin_list.o)
 .data          0x000000006061f588        0x0 ../build/output/libraries/libapps.a(tash_command.o)
 .data          0x000000006061f588        0x0 ../build/output/libraries/libapps.a(tash_sleep.o)
 .data          0x000000006061f588        0x0 ../build/output/libraries/libapps.a(tash_main.o)
 .data          0x000000006061f588        0x0 ../build/output/libraries/libapps.a(mem_leak_checker_main.o)
 .data          0x000000006061f588        0x0 ../build/output/libraries/libapps.a(sysinfo.o)
 .data          0x000000006061f588        0x0 ../build/output/libraries/libapps.a(systemcmd.o)
 .data          0x000000006061f588        0x0 ../build/output/libraries/libapps.a(security_level_cmd.o)
 .data          0x000000006061f588        0x0 ../build/output/libraries/libapps.a(fscmd.o)
 .data          0x000000006061f588        0x0 ../build/output/libraries/libapps.a(netcmd.o)
 .data          0x000000006061f588        0x0 ../build/output/libraries/libapps.a(netcmd_ping.o)
 .data          0x000000006061f588        0x0 ../build/output/libraries/libapps.a(netcmd_netmon.o)
 .data          0x000000006061f588        0x0 ../build/output/libraries/libapps.a(netcmd_dhcpd.o)
 .data          0x000000006061f588        0x0 ../build/output/libraries/libapps.a(utils_date.o)
 .data          0x000000006061f588        0x0 ../build/output/libraries/libapps.a(utils_free.o)
 .data          0x000000006061f588        0x0 ../build/output/libraries/libapps.a(utils_heapinfo.o)
 .data          0x000000006061f588        0x0 ../build/output/libraries/libapps.a(utils_prodconfig.o)
 .data          0x000000006061f588        0x0 ../build/output/libraries/libapps.a(utils_ps.o)
 .data          0x000000006061f588        0x0 ../build/output/libraries/libapps.a(utils_uptime.o)
 .data          0x000000006061f588        0x0 ../build/output/libraries/libapps.a(utils_proc.o)
 .data          0x000000006061f588        0x0 ../build/output/libraries/libapps.a(helloxx_main.o)
 .data          0x000000006061f588        0x0 ../build/output/libraries/libapps.a(hello_main.o)
 .data          0x000000006061f588        0x0 ../build/output/libraries/libapps.a(tash_init.o)
 .data          0x000000006061f588        0x0 ../build/output/libraries/libapps.a(tash_pm.o)
 .data          0x000000006061f588        0x0 ../build/output/libraries/libapps.a(netdb_main.o)
 .data          0x000000006061f588        0x0 ../build/output/libraries/libapps.a(fs_getpath.o)
 .data          0x000000006061f588        0x0 /bin/../lib/gcc/arm-none-eabi/10.3.1/thumb/v8-a+simd/hard/libgcc.a(_arm_addsubdf3.o)
 .data          0x000000006061f588        0x0 /bin/../lib/gcc/arm-none-eabi/10.3.1/thumb/v8-a+simd/hard/libgcc.a(_aeabi_ldivmod.o)
 .data          0x000000006061f588        0x0 /bin/../lib/gcc/arm-none-eabi/10.3.1/thumb/v8-a+simd/hard/libgcc.a(_aeabi_uldivmod.o)
 .data          0x000000006061f588        0x0 /bin/../lib/gcc/arm-none-eabi/10.3.1/thumb/v8-a+simd/hard/libgcc.a(_fixunsdfdi.o)
 .data          0x000000006061f588        0x0 /bin/../lib/gcc/arm-none-eabi/10.3.1/thumb/v8-a+simd/hard/libgcc.a(_udivmoddi4.o)
 .data          0x000000006061f588        0x0 /bin/../lib/gcc/arm-none-eabi/10.3.1/thumb/v8-a+simd/hard/libgcc.a(unwind-arm.o)
 .data          0x000000006061f588        0x0 /bin/../lib/gcc/arm-none-eabi/10.3.1/thumb/v8-a+simd/hard/libgcc.a(libunwind.o)
 .data          0x000000006061f588        0x0 /bin/../lib/gcc/arm-none-eabi/10.3.1/thumb/v8-a+simd/hard/libgcc.a(pr-support.o)
 .data          0x000000006061f588        0x0 /bin/../lib/gcc/arm-none-eabi/10.3.1/thumb/v8-a+simd/hard/libgcc.a(_dvmd_tls.o)
 .data          0x000000006061f588        0x0 /bin/../lib/gcc/arm-none-eabi/10.3.1/../../../../arm-none-eabi/lib/thumb/v8-a+simd/hard/libsupc++.a(atexit_arm.o)
 .data          0x000000006061f588        0x0 /bin/../lib/gcc/arm-none-eabi/10.3.1/../../../../arm-none-eabi/lib/thumb/v8-a+simd/hard/libsupc++.a(del_op.o)
 .data          0x000000006061f588        0x0 /bin/../lib/gcc/arm-none-eabi/10.3.1/../../../../arm-none-eabi/lib/thumb/v8-a+simd/hard/libsupc++.a(new_op.o)
 .data          0x000000006061f588        0x0 /bin/../lib/gcc/arm-none-eabi/10.3.1/../../../../arm-none-eabi/lib/thumb/v8-a+simd/hard/libsupc++.a(bad_alloc.o)
 .data          0x000000006061f588        0x0 /bin/../lib/gcc/arm-none-eabi/10.3.1/../../../../arm-none-eabi/lib/thumb/v8-a+simd/hard/libsupc++.a(del_ops.o)
 .data          0x000000006061f588        0x0 /bin/../lib/gcc/arm-none-eabi/10.3.1/../../../../arm-none-eabi/lib/thumb/v8-a+simd/hard/libsupc++.a(eh_alloc.o)
 .data          0x000000006061f588        0x0 /bin/../lib/gcc/arm-none-eabi/10.3.1/../../../../arm-none-eabi/lib/thumb/v8-a+simd/hard/libsupc++.a(eh_exception.o)
 .data          0x000000006061f588        0x0 /bin/../lib/gcc/arm-none-eabi/10.3.1/../../../../arm-none-eabi/lib/thumb/v8-a+simd/hard/libsupc++.a(eh_terminate.o)
 .data          0x000000006061f588        0x0 /bin/../lib/gcc/arm-none-eabi/10.3.1/../../../../arm-none-eabi/lib/thumb/v8-a+simd/hard/libsupc++.a(eh_throw.o)
 .data          0x000000006061f588        0x0 /bin/../lib/gcc/arm-none-eabi/10.3.1/../../../../arm-none-eabi/lib/thumb/v8-a+simd/hard/libsupc++.a(eh_unex_handler.o)
 .data          0x000000006061f588        0x0 /bin/../lib/gcc/arm-none-eabi/10.3.1/../../../../arm-none-eabi/lib/thumb/v8-a+simd/hard/libsupc++.a(new_handler.o)
 .data          0x000000006061f588        0x0 /bin/../lib/gcc/arm-none-eabi/10.3.1/../../../../arm-none-eabi/lib/thumb/v8-a+simd/hard/libsupc++.a(pure.o)
 .data          0x000000006061f588        0x0 /bin/../lib/gcc/arm-none-eabi/10.3.1/../../../../arm-none-eabi/lib/thumb/v8-a+simd/hard/libsupc++.a(si_class_type_info.o)
 .data          0x000000006061f588        0x0 /bin/../lib/gcc/arm-none-eabi/10.3.1/../../../../arm-none-eabi/lib/thumb/v8-a+simd/hard/libsupc++.a(tinfo.o)
 .data          0x000000006061f588        0x0 /bin/../lib/gcc/arm-none-eabi/10.3.1/../../../../arm-none-eabi/lib/thumb/v8-a+simd/hard/libsupc++.a(vterminate.o)
 .data          0x000000006061f588        0x0 /bin/../lib/gcc/arm-none-eabi/10.3.1/../../../../arm-none-eabi/lib/thumb/v8-a+simd/hard/libsupc++.a(cp-demangle.o)
 .data          0x000000006061f588        0x0 /bin/../lib/gcc/arm-none-eabi/10.3.1/../../../../arm-none-eabi/lib/thumb/v8-a+simd/hard/libsupc++.a(class_type_info.o)
 .data          0x000000006061f588        0x0 /bin/../lib/gcc/arm-none-eabi/10.3.1/../../../../arm-none-eabi/lib/thumb/v8-a+simd/hard/libsupc++.a(eh_arm.o)
 .data          0x000000006061f588        0x0 /bin/../lib/gcc/arm-none-eabi/10.3.1/../../../../arm-none-eabi/lib/thumb/v8-a+simd/hard/libsupc++.a(eh_call.o)
 .data          0x000000006061f588        0x0 /bin/../lib/gcc/arm-none-eabi/10.3.1/../../../../arm-none-eabi/lib/thumb/v8-a+simd/hard/libsupc++.a(eh_catch.o)
 .data          0x000000006061f588        0x0 /bin/../lib/gcc/arm-none-eabi/10.3.1/../../../../arm-none-eabi/lib/thumb/v8-a+simd/hard/libsupc++.a(eh_globals.o)
 .data          0x000000006061f588        0x0 /bin/../lib/gcc/arm-none-eabi/10.3.1/../../../../arm-none-eabi/lib/thumb/v8-a+simd/hard/libsupc++.a(eh_personality.o)
 .data          0x000000006061f588        0x0 /bin/../lib/gcc/arm-none-eabi/10.3.1/../../../../arm-none-eabi/lib/thumb/v8-a+simd/hard/libsupc++.a(eh_term_handler.o)
 .data          0x000000006061f588        0x0 /bin/../lib/gcc/arm-none-eabi/10.3.1/../../../../arm-none-eabi/lib/thumb/v8-a+simd/hard/libsupc++.a(eh_type.o)
 .data          0x000000006061f588        0x0 ../build/output/libraries/libproxies.a(PROXY_boardctl.o)
 .data          0x000000006061f588        0x0 ../build/output/libraries/libproxies.a(PROXY_clock.o)
 .data          0x000000006061f588        0x0 ../build/output/libraries/libproxies.a(PROXY_clock_gettime.o)
 .data          0x000000006061f588        0x0 ../build/output/libraries/libproxies.a(PROXY_clock_settime.o)
 .data          0x000000006061f588        0x0 ../build/output/libraries/libproxies.a(PROXY_close.o)
 .data          0x000000006061f588        0x0 ../build/output/libraries/libproxies.a(PROXY_closedir.o)
 .data          0x000000006061f588        0x0 ../build/output/libraries/libproxies.a(PROXY_exit.o)
 .data          0x000000006061f588        0x0 ../build/output/libraries/libproxies.a(PROXY_get_errno.o)
 .data          0x000000006061f588        0x0 ../build/output/libraries/libproxies.a(PROXY_getenv.o)
 .data          0x000000006061f588        0x0 ../build/output/libraries/libproxies.a(PROXY_lseek.o)
 .data          0x000000006061f588        0x0 ../build/output/libraries/libproxies.a(PROXY_mkdir.o)
 .data          0x000000006061f588        0x0 ../build/output/libraries/libproxies.a(PROXY_mount.o)
 .data          0x000000006061f588        0x0 ../build/output/libraries/libproxies.a(PROXY_mq_close.o)
 .data          0x000000006061f588        0x0 ../build/output/libraries/libproxies.a(PROXY_mq_open.o)
 .data          0x000000006061f588        0x0 ../build/output/libraries/libproxies.a(PROXY_mq_receive.o)
 .data          0x000000006061f588        0x0 ../build/output/libraries/libproxies.a(PROXY_mq_send.o)
 .data          0x000000006061f588        0x0 ../build/output/libraries/libproxies.a(PROXY_mq_unlink.o)
 .data          0x000000006061f588        0x0 ../build/output/libraries/libproxies.a(PROXY_nanosleep.o)
 .data          0x000000006061f588        0x0 ../build/output/libraries/libproxies.a(PROXY_open.o)
 .data          0x000000006061f588        0x0 ../build/output/libraries/libproxies.a(PROXY_opendir.o)
 .data          0x000000006061f588        0x0 ../build/output/libraries/libproxies.a(PROXY_prctl.o)
 .data          0x000000006061f588        0x0 ../build/output/libraries/libproxies.a(PROXY_pthread_exit.o)
 .data          0x000000006061f588        0x0 ../build/output/libraries/libproxies.a(PROXY_pthread_mutex_lock.o)
 .data          0x000000006061f588        0x0 ../build/output/libraries/libproxies.a(PROXY_pthread_mutex_unlock.o)
 .data          0x000000006061f588        0x0 ../build/output/libraries/libproxies.a(PROXY_read.o)
 .data          0x000000006061f588        0x0 ../build/output/libraries/libproxies.a(PROXY_readdir.o)
 .data          0x000000006061f588        0x0 ../build/output/libraries/libproxies.a(PROXY_recvfrom.o)
 .data          0x000000006061f588        0x0 ../build/output/libraries/libproxies.a(PROXY_rename.o)
 .data          0x000000006061f588        0x0 ../build/output/libraries/libproxies.a(PROXY_rmdir.o)
 .data          0x000000006061f588        0x0 ../build/output/libraries/libproxies.a(PROXY_select.o)
 .data          0x000000006061f588        0x0 ../build/output/libraries/libproxies.a(PROXY_sem_post.o)
 .data          0x000000006061f588        0x0 ../build/output/libraries/libproxies.a(PROXY_sem_wait.o)
 .data          0x000000006061f588        0x0 ../build/output/libraries/libproxies.a(PROXY_sendto.o)
 .data          0x000000006061f588        0x0 ../build/output/libraries/libproxies.a(PROXY_set_errno.o)
 .data          0x000000006061f588        0x0 ../build/output/libraries/libproxies.a(PROXY_setsockopt.o)
 .data          0x000000006061f588        0x0 ../build/output/libraries/libproxies.a(PROXY_socket.o)
 .data          0x000000006061f588        0x0 ../build/output/libraries/libproxies.a(PROXY_stat.o)
 .data          0x000000006061f588        0x0 ../build/output/libraries/libproxies.a(PROXY_statfs.o)
 .data          0x000000006061f588        0x0 ../build/output/libraries/libproxies.a(PROXY_task_create.o)
 .data          0x000000006061f588        0x0 ../build/output/libraries/libproxies.a(PROXY_umount.o)
 .data          0x000000006061f588        0x0 ../build/output/libraries/libproxies.a(PROXY_unlink.o)
 .data          0x000000006061f588        0x0 ../build/output/libraries/libproxies.a(PROXY_up_assert.o)
 .data          0x000000006061f588        0x0 ../build/output/libraries/libproxies.a(PROXY_write.o)
 .data          0x000000006061f588        0x0 ../build/output/libraries/libuc.a(lib_sprintf.o)
 .data          0x000000006061f588        0x0 ../build/output/libraries/libuc.a(lib_asprintf.o)
 .data          0x000000006061f588        0x0 ../build/output/libraries/libuc.a(lib_snprintf.o)
 .data          0x000000006061f588        0x0 ../build/output/libraries/libuc.a(lib_vasprintf.o)
 .data          0x000000006061f588        0x0 ../build/output/libraries/libuc.a(lib_memoutstream.o)
 .data          0x000000006061f588        0x0 ../build/output/libraries/libuc.a(lib_nulloutstream.o)
 .data          0x000000006061f588        0x0 ../build/output/libraries/libuc.a(lib_fwrite.o)
 .data          0x000000006061f588        0x0 ../build/output/libraries/libuc.a(lib_fputs.o)
 .data          0x000000006061f588        0x0 ../build/output/libraries/libuc.a(lib_fprintf.o)
 .data          0x000000006061f588        0x0 ../build/output/libraries/libuc.a(lib_perror.o)
 .data          0x000000006061f588        0x0 ../build/output/libraries/libuc.a(lib_abort.o)
 .data          0x000000006061f588        0x0 ../build/output/libraries/libuc.a(lib_strtol.o)
 .data          0x000000006061f588        0x0 ../build/output/libraries/libuc.a(lib_strtoul.o)
 .data          0x000000006061f588        0x0 ../build/output/libraries/libuc.a(lib_checkbase.o)
 .data          0x000000006061f588        0x0 ../build/output/libraries/libuc.a(lib_getopt.o)
 .data          0x000000006061f588        0x0 ../build/output/libraries/libuc.a(lib_chdir.o)
 .data          0x000000006061f588        0x0 ../build/output/libraries/libuc.a(lib_usleep.o)
 .data          0x000000006061f588        0x0 ../build/output/libraries/libuc.a(lib_syslog.o)
 .data          0x000000006061f588        0x0 ../build/output/libraries/libuc.a(lib_setlogmask.o)
 .data          0x000000006061f588        0x0 ../build/output/libraries/libuc.a(lib_isbasedigit.o)
 .data          0x000000006061f588        0x0 ../build/output/libraries/libuc.a(lib_memset.o)
 .data          0x000000006061f588        0x0 ../build/output/libraries/libuc.a(lib_memcmp.o)
 .data          0x000000006061f588        0x0 ../build/output/libraries/libuc.a(lib_memmove.o)
 .data          0x000000006061f588        0x0 ../build/output/libraries/libuc.a(lib_skipspace.o)
 .data          0x000000006061f588        0x0 ../build/output/libraries/libuc.a(lib_strchr.o)
 .data          0x000000006061f588        0x0 ../build/output/libraries/libuc.a(lib_strcmp.o)
 .data          0x000000006061f588        0x0 ../build/output/libraries/libuc.a(lib_strdup.o)
 .data          0x000000006061f588        0x0 ../build/output/libraries/libuc.a(lib_strerror.o)
 .data          0x000000006061f588        0x0 ../build/output/libraries/libuc.a(lib_strlen.o)
 .data          0x000000006061f588        0x0 ../build/output/libraries/libuc.a(lib_strncasecmp.o)
 .data          0x000000006061f588        0x0 ../build/output/libraries/libuc.a(lib_strncmp.o)
 .data          0x000000006061f588        0x0 ../build/output/libraries/libuc.a(lib_strncpy.o)
 .data          0x000000006061f588        0x0 ../build/output/libraries/libuc.a(lib_strstr.o)
 .data          0x000000006061f588        0x0 ../build/output/libraries/libuc.a(lib_strtokr.o)
 .data          0x000000006061f588        0x0 ../build/output/libraries/libuc.a(lib_vikmemcpy.o)
 .data          0x000000006061f588        0x0 ../build/output/libraries/libuc.a(lib_etherntoa.o)
 .data          0x000000006061f588        0x0 ../build/output/libraries/libuc.a(lib_inetaddr.o)
 .data          0x000000006061f588        0x0 ../build/output/libraries/libuc.a(lib_inetntoa.o)
 .data          0x000000006061f588        0x0 ../build/output/libraries/libuc.a(lib_inetntop.o)
 .data          0x000000006061f588        0x0 ../build/output/libraries/libuc.a(lib_inetpton.o)
 .data          0x000000006061f588        0x0 ../build/output/libraries/libuc.a(lib_freeaddrinfo.o)
 .data          0x000000006061f588        0x0 ../build/output/libraries/libuc.a(lib_getaddrinfo.o)
 .data          0x000000006061f588        0x0 ../build/output/libraries/libuc.a(lib_gethostbyname.o)
 .data          0x000000006061f588        0x0 ../build/output/libraries/libuc.a(lib_strftime.o)
 .data          0x000000006061f588        0x0 ../build/output/libraries/libuc.a(lib_daysbeforemonth.o)
 .data          0x000000006061f588        0x0 ../build/output/libraries/libuc.a(lib_isleapyear.o)
 .data          0x000000006061f588        0x0 ../build/output/libraries/libuc.a(lib_time.o)
 .data          0x000000006061f588        0x0 ../build/output/libraries/libuc.a(lib_localtime.o)
 .data          0x000000006061f588        0x0 ../build/output/libraries/libuc.a(lib_dirname.o)
 .data          0x000000006061f588        0x0 ../build/output/libraries/libuc.a(lib_ioctl.o)
 .data          0x000000006061f588        0x0 ../build/output/libraries/libuc.a(lib_sscanf.o)
 .data          0x000000006061f588        0x0 ../build/output/libraries/libuc.a(lib_rawoutstream.o)
 .data          0x000000006061f588        0x0 ../build/output/libraries/libuc.a(lib_strtoll.o)
 .data          0x000000006061f588        0x0 ../build/output/libraries/libuc.a(lib_strtoull.o)
 .data          0x000000006061f588        0x0 ../build/output/libraries/libuc.a(lib_strtod.o)
 .data          0x000000006061f588        0x0 ../build/output/libraries/libuc.a(lib_strtof.o)
 .data          0x000000006061f588        0x0 ../build/output/libraries/libuc.a(lib_access.o)
 .data          0x000000006061f588        0x0 ../build/output/libraries/libuc.a(lib_strcspn.o)
 .data          0x000000006061f588        0x0 ../build/output/libraries/libuc.a(lib_strncat.o)
 .data          0x000000006061f588        0x0 ../build/output/libraries/libuc.a(lib_strrchr.o)
 .data          0x000000006061f588        0x0 ../build/output/libraries/libuc.a(lib_htons.o)
 .data          0x000000006061f588        0x0 ../build/output/libraries/libumm.a(mm_heapinfo_utils.o)
 .data          0x000000006061f588        0x0 ../build/output/libraries/libumm.a(umm_free.o)
 .data          0x000000006061f588        0x0 ../build/output/libraries/libumm.a(umm_malloc.o)
 .data          0x000000006061f588        0x0 ../build/output/libraries/libumm.a(umm_realloc.o)
 .data          0x000000006061f588        0x0 ../build/output/libraries/libumm.a(umm_zalloc.o)
 .data          0x000000006061f588        0x0 ../build/output/libraries/libumm.a(mm_sem.o)
 .data          0x000000006061f588        0x0 ../build/output/libraries/libumm.a(mm_free.o)
 .data          0x000000006061f588        0x0 ../build/output/libraries/libumm.a(mm_malloc.o)
 .data          0x000000006061f588        0x0 ../build/output/libraries/libumm.a(mm_realloc.o)
 .data          0x000000006061f588        0x0 ../build/output/libraries/libumm.a(mm_zalloc.o)
 .data          0x000000006061f588        0x0 ../build/output/libraries/libumm.a(mm_getheap.o)
 .data          0x000000006061f588        0x0 ../build/output/libraries/libumm.a(mm_manage_allocfail.o)
 .data          0x000000006061f588        0x0 ../build/output/libraries/libumm.a(mm_heap_dbg.o)
 .data          0x000000006061f588        0x0 ../build/output/libraries/libumm.a(umm_initialize.o)
 .data          0x000000006061f588        0x0 ../build/output/libraries/libumm.a(mm_initialize.o)
 .data          0x000000006061f588        0x0 ../build/output/libraries/libumm.a(mm_addfreechunk.o)
 .data          0x000000006061f588        0x0 ../build/output/libraries/libumm.a(mm_size2ndx.o)
 .data          0x000000006061f588        0x0 ../build/output/libraries/libumm.a(mm_shrinkchunk.o)
 .data          0x000000006061f588        0x0 ../build/output/libraries/libuwque.a(uwork_thread.o)
 .data          0x000000006061f588        0x0 ../build/output/libraries/libuwque.a(work_process.o)
 .data          0x000000006061f588        0x0 ../build/output/libraries/libuwque.a(uwork_lock.o)
 .data          0x000000006061f588        0x0 ../build/output/libraries/libframework.a(wifi_manager_msghandler.o)
 .data          0x000000006061f588        0x0 ../build/output/libraries/libframework.a(security_common.o)
 .data          0x000000006061f588        0x0 ../build/output/libraries/libframework.a(security_utils.o)
 .data          0x000000006061f588        0x0 ../build/output/libraries/libframework.a(security_ss.o)
 .data          0x000000006061f588        0x0 ../build/output/libraries/libframework.a(ble_manager_msghandler.o)
 .data          0x000000006061f588        0x0 ../build/output/libraries/libframework.a(seclink.o)
 .data          0x000000006061f588        0x0 ../build/output/libraries/libframework.a(wifi_manager_message.o)
 .data          0x000000006061f588        0x0 ../build/output/libraries/libframework.a(wifi_manager_state.o)
 .data          0x000000006061f588        0x0 ../build/output/libraries/libframework.a(wifi_manager_stats.o)
 .data          0x000000006061f588        0x0 ../build/output/libraries/libframework.a(wifi_manager_event.o)
 .data          0x000000006061f588        0x0 ../build/output/libraries/libframework.a(wifi_manager_utils.o)
 .data          0x000000006061f588        0x0 ../build/output/libraries/libframework.a(wifi_manager_info.o)
 .data          0x000000006061f588        0x0 ../build/output/libraries/libframework.a(wifi_manager_dhcpc.o)
 .data          0x000000006061f588        0x0 ../build/output/libraries/libframework.a(wifi_manager_dhcps.o)
 .data          0x000000006061f588        0x0 ../build/output/libraries/libframework.a(wifi_manager_lwnl.o)
 .data          0x000000006061f588        0x0 ../build/output/libraries/libframework.a(wifi_manager_lwnl_listener.o)
 .data          0x000000006061f588        0x0 ../build/output/libraries/libframework.a(ble_manager_message.o)
 .data          0x000000006061f588        0x0 ../build/output/libraries/libframework.a(wifi_manager_cb.o)
 .data          0x000000006061f588        0x0 ../build/output/libraries/libframework.a(ble_manager_lwnl_listener.o)
 .data          0x000000006061f588        0x0 ../build/output/libraries/libframework.a(ble_manager_state.o)
 .data          0x000000006061f588        0x0 ../build/output/libraries/libframework.a(ble_manager_autoconnect.o)
 .data          0x000000006061f588        0x0 ../build/output/libraries/libframework.a(ble_queue.o)
 .data          0x000000006061f588        0x0 ../build/output/libraries/libframework.a(ble_manager_api.o)
 .data          0x000000006061f588        0x0 ../build/output/libraries/libframework.a(ble_manager_lwnl.o)
 .data          0x000000006061f588        0x0 ../build/output/libraries/libcxx.a(libxx_newlib_impure.o)
 .data          0x000000006061f588        0x0 ../build/output/libraries/libcxx.a(libxx_cxa_atexit.o)
 .data          0x000000006061f588        0x0 ../build/output/libraries/libexternal.a(netlib.o)
 .data          0x000000006061f588        0x0 ../build/output/libraries/libexternal.a(netlib_setifstatus.o)
 .data          0x000000006061f588        0x0 ../build/output/libraries/libexternal.a(netlib_getifstatus.o)
 .data          0x000000006061f588        0x0 ../build/output/libraries/libexternal.a(netlib_getifaddrs.o)
 .data          0x000000006061f588        0x0 ../build/output/libraries/libexternal.a(netlib_getstats.o)
 .data          0x000000006061f588        0x0 ../build/output/libraries/libexternal.a(netlib_netmon.o)
 .data          0x000000006061f588        0x0 ../build/output/libraries/libexternal.a(netlib_setipv4addr.o)
 .data          0x000000006061f588        0x0 ../build/output/libraries/libexternal.a(netlib_getipv4addr.o)
 .data          0x000000006061f588        0x0 ../build/output/libraries/libexternal.a(netlib_setdripv4addr.o)
 .data          0x000000006061f588        0x0 ../build/output/libraries/libexternal.a(netlib_setipv4netmask.o)
 .data          0x000000006061f588        0x0 ../build/output/libraries/libexternal.a(netlib_setipv6addr.o)
 .data          0x000000006061f588        0x0 ../build/output/libraries/libexternal.a(netlib_setmacaddr.o)
 .data          0x000000006061f588        0x0 ../build/output/libraries/libexternal.a(netlib_getmacaddr.o)
 .data          0x000000006061f588        0x0 ../build/output/libraries/libexternal.a(netlib_setdnsserver.o)
 .data          0x000000006061f588        0x0 ../build/output/libraries/libexternal.a(dhcpd_lwip.o)
 .data          0x000000006061f588        0x0 ../build/output/libraries/libexternal.a(dhcpc_lwip.o)
 .data          0x000000006061f588        0x0 ../build/output/libraries/libproxies.a(PROXY_bind.o)
 .data          0x000000006061f588        0x0 ../build/output/libraries/libproxies.a(PROXY_fs_ioctl.o)
 .data          0x000000006061f588        0x0 ../build/output/libraries/libproxies.a(PROXY_gettimeofday.o)
 .data          0x000000006061f588        0x0 ../build/output/libraries/libproxies.a(PROXY_mkfifo.o)
 .data          0x000000006061f588        0x0 ../build/output/libraries/libproxies.a(PROXY_mq_getattr.o)
 .data          0x000000006061f588        0x0 ../build/output/libraries/libproxies.a(PROXY_mq_timedreceive.o)
 .data          0x000000006061f588        0x0 ../build/output/libraries/libproxies.a(PROXY_on_exit.o)
 .data          0x000000006061f588        0x0 ../build/output/libraries/libproxies.a(PROXY_pthread_create.o)
 .data          0x000000006061f588        0x0 ../build/output/libraries/libproxies.a(PROXY_pthread_detach.o)
 .data          0x000000006061f588        0x0 ../build/output/libraries/libproxies.a(PROXY_pthread_join.o)
 .data          0x000000006061f588        0x0 ../build/output/libraries/libproxies.a(PROXY_sched_lock.o)
 .data          0x000000006061f588        0x0 ../build/output/libraries/libproxies.a(PROXY_sched_unlock.o)
 .data          0x000000006061f588        0x0 ../build/output/libraries/libproxies.a(PROXY_sem_destroy.o)
 .data          0x000000006061f588        0x0 ../build/output/libraries/libproxies.a(PROXY_sem_trywait.o)
 .data          0x000000006061f588        0x0 ../build/output/libraries/libproxies.a(PROXY_setenv.o)
 .data          0x000000006061f588        0x0 ../build/output/libraries/libproxies.a(PROXY_sigwaitinfo.o)
 .data          0x000000006061f588        0x0 ../build/output/libraries/libuc.a(lib_lowsyslog.o)
 .data          0x000000006061f588        0x0 ../build/output/libraries/libuc.a(pthread_attrinit.o)
 .data          0x000000006061f588        0x0 ../build/output/libraries/libuc.a(pthread_attrsetstacksize.o)
 .data          0x000000006061f588        0x0 ../build/output/libraries/libuc.a(pthread_attrsetschedparam.o)
 .data          0x000000006061f588        0x0 ../build/output/libraries/libuc.a(sig_addset.o)
 .data          0x000000006061f588        0x0 ../build/output/libraries/libuc.a(sig_emptyset.o)
 .data          0x000000006061f588        0x0 ../build/output/libraries/libuc.a(dq_rem.o)
 .data          0x000000006061f588        0x0 ../build/output/libraries/libuc.a(lib_lowoutstream.o)
 .data          0x000000006061f588        0x0 ../build/output/libraries/libumm.a(umm_calloc.o)
 .data          0x000000006061f588        0x0 ../build/output/libraries/libumm.a(mm_calloc.o)
 *(.data1)
 *(.data.*)
 .data.tash_cmds_info
                0x000000006061f588       0x20 ../build/output/libraries/libapps.a(tash_command.o)
 .data.pmdrv_fd
                0x000000006061f5a8        0x4 ../build/output/libraries/libapps.a(tash_pm.o)
 .data.tash_pm_domain_id
                0x000000006061f5ac        0x4 ../build/output/libraries/libapps.a(tash_pm.o)
 .data._ZN10__cxxabiv120__unexpected_handlerE
                0x000000006061f5b0        0x4 /bin/../lib/gcc/arm-none-eabi/10.3.1/../../../../arm-none-eabi/lib/thumb/v8-a+simd/hard/libsupc++.a(eh_unex_handler.o)
                0x000000006061f5b0                __cxxabiv1::__unexpected_handler
 .data._ZN10__cxxabiv119__terminate_handlerE
                0x000000006061f5b4        0x4 /bin/../lib/gcc/arm-none-eabi/10.3.1/../../../../arm-none-eabi/lib/thumb/v8-a+simd/hard/libsupc++.a(eh_term_handler.o)
                0x000000006061f5b4                __cxxabiv1::__terminate_handler
 .data.optind   0x000000006061f5b8        0x4 ../build/output/libraries/libuc.a(lib_getopt.o)
                0x000000006061f5b8                optind
 .data.optopt   0x000000006061f5bc        0x4 ../build/output/libraries/libuc.a(lib_getopt.o)
                0x000000006061f5bc                optopt
 .data.g_syslog_mask
                0x000000006061f5c0        0x1 ../build/output/libraries/libuc.a(lib_setlogmask.o)
                0x000000006061f5c0                g_syslog_mask
 *fill*         0x000000006061f5c1        0x3 
 .data.g_hent   0x000000006061f5c4       0x14 ../build/output/libraries/libuc.a(lib_gethostbyname.o)
                0x000000006061f5c4                g_hent
 .data.g_phostent_addr
                0x000000006061f5d8        0x8 ../build/output/libraries/libuc.a(lib_gethostbyname.o)
                0x000000006061f5d8                g_phostent_addr
 .data.tzname   0x000000006061f5e0        0x8 ../build/output/libraries/libuc.a(lib_localtime.o)
                0x000000006061f5e0                tzname
 .data.g_manager_info
                0x000000006061f5e8       0x6c ../build/output/libraries/libframework.a(wifi_manager_state.o)
 .data.g_wifi_info
                0x000000006061f654       0x4c ../build/output/libraries/libframework.a(wifi_manager_info.o)
 .data.g_convert_table
                0x000000006061f6a0       0x10 ../build/output/libraries/libframework.a(wifi_manager_lwnl_listener.o)
                0x000000006061f6a0                g_convert_table
 .data.g_msg    0x000000006061f6b0        0xc ../build/output/libraries/libframework.a(wifi_manager_lwnl_listener.o)
 .data.g_msg    0x000000006061f6bc       0x10 ../build/output/libraries/libframework.a(ble_manager_lwnl_listener.o)
 .data.scan_config
                0x000000006061f6cc        0x8 ../build/output/libraries/libframework.a(ble_manager_autoconnect.o)
 .data.g_dhcpd_tid
                0x000000006061f6d4        0x2 ../build/output/libraries/libexternal.a(dhcpd_lwip.o)
 *(.gnu.linkonce.d*)
                0x000000006061f6d6                _edata = .

.igot.plt       0x000000006061f6d8        0x0 load address 0x000000000e1816dd
 .igot.plt      0x000000006061f6d8        0x0 /root/tizenrt/os/userspace/up_userspace_common.o

.bss            0x000000006061f6d8      0xa08 load address 0x000000000e1816dd
                0x000000006061f6d8                _sbss = .
 *(.bss)
 .bss           0x000000006061f6d8        0x0 /root/tizenrt/os/userspace/up_userspace_common.o
 .bss           0x000000006061f6d8        0x0 ../build/output/libraries/libproxies.a(PROXY_getpid.o)
 .bss           0x000000006061f6d8        0x0 ../build/output/libraries/libproxies.a(PROXY_sched_getstreams.o)
 .bss           0x000000006061f6d8        0x0 ../build/output/libraries/libuc.a(lib_printf.o)
 .bss           0x000000006061f6d8        0x0 ../build/output/libraries/libuc.a(lib_fgetc.o)
 .bss           0x000000006061f6d8        0x0 ../build/output/libraries/libuc.a(lib_vfprintf.o)
 .bss           0x000000006061f6d8        0x0 ../build/output/libraries/libuc.a(lib_stdoutstream.o)
 .bss           0x000000006061f6d8        0x0 ../build/output/libraries/libuc.a(lib_libnoflush.o)
 .bss           0x000000006061f6d8        0x0 ../build/output/libraries/libuc.a(lib_sleep.o)
 .bss           0x000000006061f6d8        0x0 ../build/output/libraries/libuc.a(task_startup.o)
 .bss           0x000000006061f6d8        0x0 ../build/output/libraries/libuc.a(pthread_startup.o)
 .bss           0x000000006061f6d8        0x0 ../build/output/libraries/libuc.a(lib_filesem.o)
 .bss           0x000000006061f6d8        0x0 ../build/output/libraries/libuc.a(lib_libvsprintf.o)
 .bss           0x000000006061f6d8        0x0 ../build/output/libraries/libuc.a(lib_libfread.o)
 .bss           0x000000006061f6d8        0x0 ../build/output/libraries/libuc.a(lib_libfflush.o)
 .bss           0x000000006061f6d8        0x0 ../build/output/libraries/libuc.a(lib_wrflush.o)
 .bss           0x000000006061f6d8        0x0 ../build/output/libraries/libuc.a(lib_fputc.o)
 .bss           0x000000006061f6d8        0x0 ../build/output/libraries/libuc.a(lib_strnlen.o)
 .bss           0x000000006061f6d8        0x0 ../build/output/libraries/libuc.a(sem_init.o)
 .bss           0x000000006061f6d8        0x0 ../build/output/libraries/libuc.a(lib_dtoa_engine.o)
 .bss           0x000000006061f6d8        0x0 ../build/output/libraries/libuc.a(lib_ultoa_invert.o)
 .bss           0x000000006061f6d8        0x0 ../build/output/libraries/libuc.a(lib_libfwrite.o)
 .bss           0x000000006061f6d8        0x0 ../build/output/libraries/libuc.a(lib_rdflush.o)
 .bss           0x000000006061f6d8        0x0 ../build/output/libraries/libuc.a(lib_dtoa_data.o)
 .bss           0x000000006061f6d8        0x0 ../build/output/libraries/libuc.a(lib_fseek.o)
 .bss           0x000000006061f6d8        0x0 ../build/output/libraries/libuarch.a(arm_signal_handler.o)
 .bss           0x000000006061f6d8        0x0 ../build/output/libraries/libframework.a(binary_manager_notify.o)
 .bss           0x000000006061f6d8        0x0 ../build/output/libraries/libframework.a(binary_manager_interface.o)
 .bss           0x000000006061f6d8        0x0 ../build/output/libraries/libapps.a(init.o)
 .bss           0x000000006061f6d8        0x0 ../build/output/libraries/libapps.a(builtin_list.o)
 .bss           0x000000006061f6d8        0x0 ../build/output/libraries/libapps.a(tash_command.o)
 .bss           0x000000006061f6d8        0x0 ../build/output/libraries/libapps.a(tash_sleep.o)
 .bss           0x000000006061f6d8        0x0 ../build/output/libraries/libapps.a(tash_main.o)
 .bss           0x000000006061f6d8        0x0 ../build/output/libraries/libapps.a(mem_leak_checker_main.o)
 .bss           0x000000006061f6d8        0x0 ../build/output/libraries/libapps.a(sysinfo.o)
 .bss           0x000000006061f6d8        0x0 ../build/output/libraries/libapps.a(systemcmd.o)
 .bss           0x000000006061f6d8        0x0 ../build/output/libraries/libapps.a(security_level_cmd.o)
 .bss           0x000000006061f6d8        0x0 ../build/output/libraries/libapps.a(fscmd.o)
 .bss           0x000000006061f6d8        0x0 ../build/output/libraries/libapps.a(netcmd.o)
 .bss           0x000000006061f6d8        0x0 ../build/output/libraries/libapps.a(netcmd_ping.o)
 .bss           0x000000006061f6d8        0x0 ../build/output/libraries/libapps.a(netcmd_netmon.o)
 .bss           0x000000006061f6d8        0x0 ../build/output/libraries/libapps.a(netcmd_dhcpd.o)
 .bss           0x000000006061f6d8        0x0 ../build/output/libraries/libapps.a(utils_date.o)
 .bss           0x000000006061f6d8        0x0 ../build/output/libraries/libapps.a(utils_free.o)
 .bss           0x000000006061f6d8        0x0 ../build/output/libraries/libapps.a(utils_heapinfo.o)
 .bss           0x000000006061f6d8        0x0 ../build/output/libraries/libapps.a(utils_prodconfig.o)
 .bss           0x000000006061f6d8        0x0 ../build/output/libraries/libapps.a(utils_ps.o)
 .bss           0x000000006061f6d8        0x0 ../build/output/libraries/libapps.a(utils_uptime.o)
 .bss           0x000000006061f6d8        0x0 ../build/output/libraries/libapps.a(utils_proc.o)
 .bss           0x000000006061f6d8        0x0 ../build/output/libraries/libapps.a(helloxx_main.o)
 .bss           0x000000006061f6d8        0x0 ../build/output/libraries/libapps.a(hello_main.o)
 .bss           0x000000006061f6d8        0x0 ../build/output/libraries/libapps.a(tash_init.o)
 .bss           0x000000006061f6d8        0x0 ../build/output/libraries/libapps.a(tash_pm.o)
 .bss           0x000000006061f6d8        0x0 ../build/output/libraries/libapps.a(netdb_main.o)
 .bss           0x000000006061f6d8        0x0 ../build/output/libraries/libapps.a(fs_getpath.o)
 .bss           0x000000006061f6d8        0x0 /bin/../lib/gcc/arm-none-eabi/10.3.1/thumb/v8-a+simd/hard/libgcc.a(_arm_addsubdf3.o)
 .bss           0x000000006061f6d8        0x0 /bin/../lib/gcc/arm-none-eabi/10.3.1/thumb/v8-a+simd/hard/libgcc.a(_aeabi_ldivmod.o)
 .bss           0x000000006061f6d8        0x0 /bin/../lib/gcc/arm-none-eabi/10.3.1/thumb/v8-a+simd/hard/libgcc.a(_aeabi_uldivmod.o)
 .bss           0x000000006061f6d8        0x0 /bin/../lib/gcc/arm-none-eabi/10.3.1/thumb/v8-a+simd/hard/libgcc.a(_fixunsdfdi.o)
 .bss           0x000000006061f6d8        0x0 /bin/../lib/gcc/arm-none-eabi/10.3.1/thumb/v8-a+simd/hard/libgcc.a(_udivmoddi4.o)
 .bss           0x000000006061f6d8        0x0 /bin/../lib/gcc/arm-none-eabi/10.3.1/thumb/v8-a+simd/hard/libgcc.a(unwind-arm.o)
 .bss           0x000000006061f6d8        0x0 /bin/../lib/gcc/arm-none-eabi/10.3.1/thumb/v8-a+simd/hard/libgcc.a(libunwind.o)
 .bss           0x000000006061f6d8        0x0 /bin/../lib/gcc/arm-none-eabi/10.3.1/thumb/v8-a+simd/hard/libgcc.a(pr-support.o)
 .bss           0x000000006061f6d8        0x0 /bin/../lib/gcc/arm-none-eabi/10.3.1/thumb/v8-a+simd/hard/libgcc.a(_dvmd_tls.o)
 .bss           0x000000006061f6d8        0x0 /bin/../lib/gcc/arm-none-eabi/10.3.1/../../../../arm-none-eabi/lib/thumb/v8-a+simd/hard/libsupc++.a(atexit_arm.o)
 .bss           0x000000006061f6d8        0x0 /bin/../lib/gcc/arm-none-eabi/10.3.1/../../../../arm-none-eabi/lib/thumb/v8-a+simd/hard/libsupc++.a(del_op.o)
 .bss           0x000000006061f6d8        0x0 /bin/../lib/gcc/arm-none-eabi/10.3.1/../../../../arm-none-eabi/lib/thumb/v8-a+simd/hard/libsupc++.a(new_op.o)
 .bss           0x000000006061f6d8        0x0 /bin/../lib/gcc/arm-none-eabi/10.3.1/../../../../arm-none-eabi/lib/thumb/v8-a+simd/hard/libsupc++.a(bad_alloc.o)
 .bss           0x000000006061f6d8        0x0 /bin/../lib/gcc/arm-none-eabi/10.3.1/../../../../arm-none-eabi/lib/thumb/v8-a+simd/hard/libsupc++.a(del_ops.o)
 .bss           0x000000006061f6d8        0x0 /bin/../lib/gcc/arm-none-eabi/10.3.1/../../../../arm-none-eabi/lib/thumb/v8-a+simd/hard/libsupc++.a(eh_alloc.o)
 .bss           0x000000006061f6d8        0x0 /bin/../lib/gcc/arm-none-eabi/10.3.1/../../../../arm-none-eabi/lib/thumb/v8-a+simd/hard/libsupc++.a(eh_exception.o)
 .bss           0x000000006061f6d8        0x0 /bin/../lib/gcc/arm-none-eabi/10.3.1/../../../../arm-none-eabi/lib/thumb/v8-a+simd/hard/libsupc++.a(eh_terminate.o)
 .bss           0x000000006061f6d8        0x0 /bin/../lib/gcc/arm-none-eabi/10.3.1/../../../../arm-none-eabi/lib/thumb/v8-a+simd/hard/libsupc++.a(eh_throw.o)
 .bss           0x000000006061f6d8        0x0 /bin/../lib/gcc/arm-none-eabi/10.3.1/../../../../arm-none-eabi/lib/thumb/v8-a+simd/hard/libsupc++.a(eh_unex_handler.o)
 .bss           0x000000006061f6d8        0x0 /bin/../lib/gcc/arm-none-eabi/10.3.1/../../../../arm-none-eabi/lib/thumb/v8-a+simd/hard/libsupc++.a(new_handler.o)
 .bss           0x000000006061f6d8        0x0 /bin/../lib/gcc/arm-none-eabi/10.3.1/../../../../arm-none-eabi/lib/thumb/v8-a+simd/hard/libsupc++.a(pure.o)
 .bss           0x000000006061f6d8        0x0 /bin/../lib/gcc/arm-none-eabi/10.3.1/../../../../arm-none-eabi/lib/thumb/v8-a+simd/hard/libsupc++.a(si_class_type_info.o)
 .bss           0x000000006061f6d8        0x0 /bin/../lib/gcc/arm-none-eabi/10.3.1/../../../../arm-none-eabi/lib/thumb/v8-a+simd/hard/libsupc++.a(tinfo.o)
 .bss           0x000000006061f6d8        0x0 /bin/../lib/gcc/arm-none-eabi/10.3.1/../../../../arm-none-eabi/lib/thumb/v8-a+simd/hard/libsupc++.a(vterminate.o)
 .bss           0x000000006061f6d8        0x0 /bin/../lib/gcc/arm-none-eabi/10.3.1/../../../../arm-none-eabi/lib/thumb/v8-a+simd/hard/libsupc++.a(cp-demangle.o)
 .bss           0x000000006061f6d8        0x0 /bin/../lib/gcc/arm-none-eabi/10.3.1/../../../../arm-none-eabi/lib/thumb/v8-a+simd/hard/libsupc++.a(class_type_info.o)
 .bss           0x000000006061f6d8        0x0 /bin/../lib/gcc/arm-none-eabi/10.3.1/../../../../arm-none-eabi/lib/thumb/v8-a+simd/hard/libsupc++.a(eh_arm.o)
 .bss           0x000000006061f6d8        0x0 /bin/../lib/gcc/arm-none-eabi/10.3.1/../../../../arm-none-eabi/lib/thumb/v8-a+simd/hard/libsupc++.a(eh_call.o)
 .bss           0x000000006061f6d8        0x0 /bin/../lib/gcc/arm-none-eabi/10.3.1/../../../../arm-none-eabi/lib/thumb/v8-a+simd/hard/libsupc++.a(eh_catch.o)
 .bss           0x000000006061f6d8        0x0 /bin/../lib/gcc/arm-none-eabi/10.3.1/../../../../arm-none-eabi/lib/thumb/v8-a+simd/hard/libsupc++.a(eh_globals.o)
 .bss           0x000000006061f6d8        0x0 /bin/../lib/gcc/arm-none-eabi/10.3.1/../../../../arm-none-eabi/lib/thumb/v8-a+simd/hard/libsupc++.a(eh_personality.o)
 .bss           0x000000006061f6d8        0x0 /bin/../lib/gcc/arm-none-eabi/10.3.1/../../../../arm-none-eabi/lib/thumb/v8-a+simd/hard/libsupc++.a(eh_term_handler.o)
 .bss           0x000000006061f6d8        0x0 /bin/../lib/gcc/arm-none-eabi/10.3.1/../../../../arm-none-eabi/lib/thumb/v8-a+simd/hard/libsupc++.a(eh_type.o)
 .bss           0x000000006061f6d8        0x0 ../build/output/libraries/libproxies.a(PROXY_boardctl.o)
 .bss           0x000000006061f6d8        0x0 ../build/output/libraries/libproxies.a(PROXY_clock.o)
 .bss           0x000000006061f6d8        0x0 ../build/output/libraries/libproxies.a(PROXY_clock_gettime.o)
 .bss           0x000000006061f6d8        0x0 ../build/output/libraries/libproxies.a(PROXY_clock_settime.o)
 .bss           0x000000006061f6d8        0x0 ../build/output/libraries/libproxies.a(PROXY_close.o)
 .bss           0x000000006061f6d8        0x0 ../build/output/libraries/libproxies.a(PROXY_closedir.o)
 .bss           0x000000006061f6d8        0x0 ../build/output/libraries/libproxies.a(PROXY_exit.o)
 .bss           0x000000006061f6d8        0x0 ../build/output/libraries/libproxies.a(PROXY_get_errno.o)
 .bss           0x000000006061f6d8        0x0 ../build/output/libraries/libproxies.a(PROXY_getenv.o)
 .bss           0x000000006061f6d8        0x0 ../build/output/libraries/libproxies.a(PROXY_lseek.o)
 .bss           0x000000006061f6d8        0x0 ../build/output/libraries/libproxies.a(PROXY_mkdir.o)
 .bss           0x000000006061f6d8        0x0 ../build/output/libraries/libproxies.a(PROXY_mount.o)
 .bss           0x000000006061f6d8        0x0 ../build/output/libraries/libproxies.a(PROXY_mq_close.o)
 .bss           0x000000006061f6d8        0x0 ../build/output/libraries/libproxies.a(PROXY_mq_open.o)
 .bss           0x000000006061f6d8        0x0 ../build/output/libraries/libproxies.a(PROXY_mq_receive.o)
 .bss           0x000000006061f6d8        0x0 ../build/output/libraries/libproxies.a(PROXY_mq_send.o)
 .bss           0x000000006061f6d8        0x0 ../build/output/libraries/libproxies.a(PROXY_mq_unlink.o)
 .bss           0x000000006061f6d8        0x0 ../build/output/libraries/libproxies.a(PROXY_nanosleep.o)
 .bss           0x000000006061f6d8        0x0 ../build/output/libraries/libproxies.a(PROXY_open.o)
 .bss           0x000000006061f6d8        0x0 ../build/output/libraries/libproxies.a(PROXY_opendir.o)
 .bss           0x000000006061f6d8        0x0 ../build/output/libraries/libproxies.a(PROXY_prctl.o)
 .bss           0x000000006061f6d8        0x0 ../build/output/libraries/libproxies.a(PROXY_pthread_exit.o)
 .bss           0x000000006061f6d8        0x0 ../build/output/libraries/libproxies.a(PROXY_pthread_mutex_lock.o)
 .bss           0x000000006061f6d8        0x0 ../build/output/libraries/libproxies.a(PROXY_pthread_mutex_unlock.o)
 .bss           0x000000006061f6d8        0x0 ../build/output/libraries/libproxies.a(PROXY_read.o)
 .bss           0x000000006061f6d8        0x0 ../build/output/libraries/libproxies.a(PROXY_readdir.o)
 .bss           0x000000006061f6d8        0x0 ../build/output/libraries/libproxies.a(PROXY_recvfrom.o)
 .bss           0x000000006061f6d8        0x0 ../build/output/libraries/libproxies.a(PROXY_rename.o)
 .bss           0x000000006061f6d8        0x0 ../build/output/libraries/libproxies.a(PROXY_rmdir.o)
 .bss           0x000000006061f6d8        0x0 ../build/output/libraries/libproxies.a(PROXY_select.o)
 .bss           0x000000006061f6d8        0x0 ../build/output/libraries/libproxies.a(PROXY_sem_post.o)
 .bss           0x000000006061f6d8        0x0 ../build/output/libraries/libproxies.a(PROXY_sem_wait.o)
 .bss           0x000000006061f6d8        0x0 ../build/output/libraries/libproxies.a(PROXY_sendto.o)
 .bss           0x000000006061f6d8        0x0 ../build/output/libraries/libproxies.a(PROXY_set_errno.o)
 .bss           0x000000006061f6d8        0x0 ../build/output/libraries/libproxies.a(PROXY_setsockopt.o)
 .bss           0x000000006061f6d8        0x0 ../build/output/libraries/libproxies.a(PROXY_socket.o)
 .bss           0x000000006061f6d8        0x0 ../build/output/libraries/libproxies.a(PROXY_stat.o)
 .bss           0x000000006061f6d8        0x0 ../build/output/libraries/libproxies.a(PROXY_statfs.o)
 .bss           0x000000006061f6d8        0x0 ../build/output/libraries/libproxies.a(PROXY_task_create.o)
 .bss           0x000000006061f6d8        0x0 ../build/output/libraries/libproxies.a(PROXY_umount.o)
 .bss           0x000000006061f6d8        0x0 ../build/output/libraries/libproxies.a(PROXY_unlink.o)
 .bss           0x000000006061f6d8        0x0 ../build/output/libraries/libproxies.a(PROXY_up_assert.o)
 .bss           0x000000006061f6d8        0x0 ../build/output/libraries/libproxies.a(PROXY_write.o)
 .bss           0x000000006061f6d8        0x0 ../build/output/libraries/libuc.a(lib_sprintf.o)
 .bss           0x000000006061f6d8        0x0 ../build/output/libraries/libuc.a(lib_asprintf.o)
 .bss           0x000000006061f6d8        0x0 ../build/output/libraries/libuc.a(lib_snprintf.o)
 .bss           0x000000006061f6d8        0x0 ../build/output/libraries/libuc.a(lib_vasprintf.o)
 .bss           0x000000006061f6d8        0x0 ../build/output/libraries/libuc.a(lib_memoutstream.o)
 .bss           0x000000006061f6d8        0x0 ../build/output/libraries/libuc.a(lib_nulloutstream.o)
 .bss           0x000000006061f6d8        0x0 ../build/output/libraries/libuc.a(lib_fwrite.o)
 .bss           0x000000006061f6d8        0x0 ../build/output/libraries/libuc.a(lib_fputs.o)
 .bss           0x000000006061f6d8        0x0 ../build/output/libraries/libuc.a(lib_fprintf.o)
 .bss           0x000000006061f6d8        0x0 ../build/output/libraries/libuc.a(lib_perror.o)
 .bss           0x000000006061f6d8        0x0 ../build/output/libraries/libuc.a(lib_abort.o)
 .bss           0x000000006061f6d8        0x0 ../build/output/libraries/libuc.a(lib_strtol.o)
 .bss           0x000000006061f6d8        0x0 ../build/output/libraries/libuc.a(lib_strtoul.o)
 .bss           0x000000006061f6d8        0x0 ../build/output/libraries/libuc.a(lib_checkbase.o)
 .bss           0x000000006061f6d8        0x0 ../build/output/libraries/libuc.a(lib_getopt.o)
 .bss           0x000000006061f6d8        0x0 ../build/output/libraries/libuc.a(lib_chdir.o)
 .bss           0x000000006061f6d8        0x0 ../build/output/libraries/libuc.a(lib_usleep.o)
 .bss           0x000000006061f6d8        0x0 ../build/output/libraries/libuc.a(lib_syslog.o)
 .bss           0x000000006061f6d8        0x0 ../build/output/libraries/libuc.a(lib_setlogmask.o)
 .bss           0x000000006061f6d8        0x0 ../build/output/libraries/libuc.a(lib_isbasedigit.o)
 .bss           0x000000006061f6d8        0x0 ../build/output/libraries/libuc.a(lib_memset.o)
 .bss           0x000000006061f6d8        0x0 ../build/output/libraries/libuc.a(lib_memcmp.o)
 .bss           0x000000006061f6d8        0x0 ../build/output/libraries/libuc.a(lib_memmove.o)
 .bss           0x000000006061f6d8        0x0 ../build/output/libraries/libuc.a(lib_skipspace.o)
 .bss           0x000000006061f6d8        0x0 ../build/output/libraries/libuc.a(lib_strchr.o)
 .bss           0x000000006061f6d8        0x0 ../build/output/libraries/libuc.a(lib_strcmp.o)
 .bss           0x000000006061f6d8        0x0 ../build/output/libraries/libuc.a(lib_strdup.o)
 .bss           0x000000006061f6d8        0x0 ../build/output/libraries/libuc.a(lib_strerror.o)
 .bss           0x000000006061f6d8        0x0 ../build/output/libraries/libuc.a(lib_strlen.o)
 .bss           0x000000006061f6d8        0x0 ../build/output/libraries/libuc.a(lib_strncasecmp.o)
 .bss           0x000000006061f6d8        0x0 ../build/output/libraries/libuc.a(lib_strncmp.o)
 .bss           0x000000006061f6d8        0x0 ../build/output/libraries/libuc.a(lib_strncpy.o)
 .bss           0x000000006061f6d8        0x0 ../build/output/libraries/libuc.a(lib_strstr.o)
 .bss           0x000000006061f6d8        0x0 ../build/output/libraries/libuc.a(lib_strtokr.o)
 .bss           0x000000006061f6d8        0x0 ../build/output/libraries/libuc.a(lib_vikmemcpy.o)
 .bss           0x000000006061f6d8        0x0 ../build/output/libraries/libuc.a(lib_etherntoa.o)
 .bss           0x000000006061f6d8        0x0 ../build/output/libraries/libuc.a(lib_inetaddr.o)
 .bss           0x000000006061f6d8        0x0 ../build/output/libraries/libuc.a(lib_inetntoa.o)
 .bss           0x000000006061f6d8        0x0 ../build/output/libraries/libuc.a(lib_inetntop.o)
 .bss           0x000000006061f6d8        0x0 ../build/output/libraries/libuc.a(lib_inetpton.o)
 .bss           0x000000006061f6d8        0x0 ../build/output/libraries/libuc.a(lib_freeaddrinfo.o)
 .bss           0x000000006061f6d8        0x0 ../build/output/libraries/libuc.a(lib_getaddrinfo.o)
 .bss           0x000000006061f6d8        0x0 ../build/output/libraries/libuc.a(lib_gethostbyname.o)
 .bss           0x000000006061f6d8        0x0 ../build/output/libraries/libuc.a(lib_strftime.o)
 .bss           0x000000006061f6d8        0x0 ../build/output/libraries/libuc.a(lib_daysbeforemonth.o)
 .bss           0x000000006061f6d8        0x0 ../build/output/libraries/libuc.a(lib_isleapyear.o)
 .bss           0x000000006061f6d8        0x0 ../build/output/libraries/libuc.a(lib_time.o)
 .bss           0x000000006061f6d8        0x0 ../build/output/libraries/libuc.a(lib_localtime.o)
 .bss           0x000000006061f6d8        0x0 ../build/output/libraries/libuc.a(lib_dirname.o)
 .bss           0x000000006061f6d8        0x0 ../build/output/libraries/libuc.a(lib_ioctl.o)
 .bss           0x000000006061f6d8        0x0 ../build/output/libraries/libuc.a(lib_sscanf.o)
 .bss           0x000000006061f6d8        0x0 ../build/output/libraries/libuc.a(lib_rawoutstream.o)
 .bss           0x000000006061f6d8        0x0 ../build/output/libraries/libuc.a(lib_strtoll.o)
 .bss           0x000000006061f6d8        0x0 ../build/output/libraries/libuc.a(lib_strtoull.o)
 .bss           0x000000006061f6d8        0x0 ../build/output/libraries/libuc.a(lib_strtod.o)
 .bss           0x000000006061f6d8        0x0 ../build/output/libraries/libuc.a(lib_strtof.o)
 .bss           0x000000006061f6d8        0x0 ../build/output/libraries/libuc.a(lib_access.o)
 .bss           0x000000006061f6d8        0x0 ../build/output/libraries/libuc.a(lib_strcspn.o)
 .bss           0x000000006061f6d8        0x0 ../build/output/libraries/libuc.a(lib_strncat.o)
 .bss           0x000000006061f6d8        0x0 ../build/output/libraries/libuc.a(lib_strrchr.o)
 .bss           0x000000006061f6d8        0x0 ../build/output/libraries/libuc.a(lib_htons.o)
 .bss           0x000000006061f6d8        0x0 ../build/output/libraries/libumm.a(mm_heapinfo_utils.o)
 .bss           0x000000006061f6d8        0x0 ../build/output/libraries/libumm.a(umm_free.o)
 .bss           0x000000006061f6d8        0x0 ../build/output/libraries/libumm.a(umm_malloc.o)
 .bss           0x000000006061f6d8        0x0 ../build/output/libraries/libumm.a(umm_realloc.o)
 .bss           0x000000006061f6d8        0x0 ../build/output/libraries/libumm.a(umm_zalloc.o)
 .bss           0x000000006061f6d8        0x0 ../build/output/libraries/libumm.a(mm_sem.o)
 .bss           0x000000006061f6d8        0x0 ../build/output/libraries/libumm.a(mm_free.o)
 .bss           0x000000006061f6d8        0x0 ../build/output/libraries/libumm.a(mm_malloc.o)
 .bss           0x000000006061f6d8        0x0 ../build/output/libraries/libumm.a(mm_realloc.o)
 .bss           0x000000006061f6d8        0x0 ../build/output/libraries/libumm.a(mm_zalloc.o)
 .bss           0x000000006061f6d8        0x0 ../build/output/libraries/libumm.a(mm_getheap.o)
 .bss           0x000000006061f6d8        0x0 ../build/output/libraries/libumm.a(mm_manage_allocfail.o)
 .bss           0x000000006061f6d8        0x0 ../build/output/libraries/libumm.a(mm_heap_dbg.o)
 .bss           0x000000006061f6d8        0x0 ../build/output/libraries/libumm.a(umm_initialize.o)
 .bss           0x000000006061f6d8        0x0 ../build/output/libraries/libumm.a(mm_initialize.o)
 .bss           0x000000006061f6d8        0x0 ../build/output/libraries/libumm.a(mm_addfreechunk.o)
 .bss           0x000000006061f6d8        0x0 ../build/output/libraries/libumm.a(mm_size2ndx.o)
 .bss           0x000000006061f6d8        0x0 ../build/output/libraries/libumm.a(mm_shrinkchunk.o)
 .bss           0x000000006061f6d8        0x0 ../build/output/libraries/libuwque.a(uwork_thread.o)
 .bss           0x000000006061f6d8        0x0 ../build/output/libraries/libuwque.a(work_process.o)
 .bss           0x000000006061f6d8        0x0 ../build/output/libraries/libuwque.a(uwork_lock.o)
 .bss           0x000000006061f6d8        0x0 ../build/output/libraries/libframework.a(wifi_manager_msghandler.o)
 .bss           0x000000006061f6d8        0x0 ../build/output/libraries/libframework.a(security_common.o)
 .bss           0x000000006061f6d8        0x0 ../build/output/libraries/libframework.a(security_utils.o)
 .bss           0x000000006061f6d8        0x0 ../build/output/libraries/libframework.a(security_ss.o)
 .bss           0x000000006061f6d8        0x0 ../build/output/libraries/libframework.a(ble_manager_msghandler.o)
 .bss           0x000000006061f6d8        0x0 ../build/output/libraries/libframework.a(seclink.o)
 .bss           0x000000006061f6d8        0x0 ../build/output/libraries/libframework.a(wifi_manager_message.o)
 .bss           0x000000006061f6d8        0x0 ../build/output/libraries/libframework.a(wifi_manager_state.o)
 .bss           0x000000006061f6d8        0x0 ../build/output/libraries/libframework.a(wifi_manager_stats.o)
 .bss           0x000000006061f6d8        0x0 ../build/output/libraries/libframework.a(wifi_manager_event.o)
 .bss           0x000000006061f6d8        0x0 ../build/output/libraries/libframework.a(wifi_manager_utils.o)
 .bss           0x000000006061f6d8        0x0 ../build/output/libraries/libframework.a(wifi_manager_info.o)
 .bss           0x000000006061f6d8        0x0 ../build/output/libraries/libframework.a(wifi_manager_dhcpc.o)
 .bss           0x000000006061f6d8        0x0 ../build/output/libraries/libframework.a(wifi_manager_dhcps.o)
 .bss           0x000000006061f6d8        0x0 ../build/output/libraries/libframework.a(wifi_manager_lwnl.o)
 .bss           0x000000006061f6d8        0x0 ../build/output/libraries/libframework.a(wifi_manager_lwnl_listener.o)
 .bss           0x000000006061f6d8        0x0 ../build/output/libraries/libframework.a(ble_manager_message.o)
 .bss           0x000000006061f6d8        0x0 ../build/output/libraries/libframework.a(wifi_manager_cb.o)
 .bss           0x000000006061f6d8        0x0 ../build/output/libraries/libframework.a(ble_manager_lwnl_listener.o)
 .bss           0x000000006061f6d8        0x0 ../build/output/libraries/libframework.a(ble_manager_state.o)
 .bss           0x000000006061f6d8        0x0 ../build/output/libraries/libframework.a(ble_manager_autoconnect.o)
 .bss           0x000000006061f6d8        0x0 ../build/output/libraries/libframework.a(ble_queue.o)
 .bss           0x000000006061f6d8        0x0 ../build/output/libraries/libframework.a(ble_manager_api.o)
 .bss           0x000000006061f6d8        0x0 ../build/output/libraries/libframework.a(ble_manager_lwnl.o)
 .bss           0x000000006061f6d8        0x0 ../build/output/libraries/libcxx.a(libxx_newlib_impure.o)
 .bss           0x000000006061f6d8        0x0 ../build/output/libraries/libcxx.a(libxx_cxa_atexit.o)
 .bss           0x000000006061f6d8        0x0 ../build/output/libraries/libexternal.a(netlib.o)
 .bss           0x000000006061f6d8        0x0 ../build/output/libraries/libexternal.a(netlib_setifstatus.o)
 .bss           0x000000006061f6d8        0x0 ../build/output/libraries/libexternal.a(netlib_getifstatus.o)
 .bss           0x000000006061f6d8        0x0 ../build/output/libraries/libexternal.a(netlib_getifaddrs.o)
 .bss           0x000000006061f6d8        0x0 ../build/output/libraries/libexternal.a(netlib_getstats.o)
 .bss           0x000000006061f6d8        0x0 ../build/output/libraries/libexternal.a(netlib_netmon.o)
 .bss           0x000000006061f6d8        0x0 ../build/output/libraries/libexternal.a(netlib_setipv4addr.o)
 .bss           0x000000006061f6d8        0x0 ../build/output/libraries/libexternal.a(netlib_getipv4addr.o)
 .bss           0x000000006061f6d8        0x0 ../build/output/libraries/libexternal.a(netlib_setdripv4addr.o)
 .bss           0x000000006061f6d8        0x0 ../build/output/libraries/libexternal.a(netlib_setipv4netmask.o)
 .bss           0x000000006061f6d8        0x0 ../build/output/libraries/libexternal.a(netlib_setipv6addr.o)
 .bss           0x000000006061f6d8        0x0 ../build/output/libraries/libexternal.a(netlib_setmacaddr.o)
 .bss           0x000000006061f6d8        0x0 ../build/output/libraries/libexternal.a(netlib_getmacaddr.o)
 .bss           0x000000006061f6d8        0x0 ../build/output/libraries/libexternal.a(netlib_setdnsserver.o)
 .bss           0x000000006061f6d8        0x0 ../build/output/libraries/libexternal.a(dhcpd_lwip.o)
 .bss           0x000000006061f6d8        0x0 ../build/output/libraries/libexternal.a(dhcpc_lwip.o)
 .bss           0x000000006061f6d8        0x0 ../build/output/libraries/libproxies.a(PROXY_bind.o)
 .bss           0x000000006061f6d8        0x0 ../build/output/libraries/libproxies.a(PROXY_fs_ioctl.o)
 .bss           0x000000006061f6d8        0x0 ../build/output/libraries/libproxies.a(PROXY_gettimeofday.o)
 .bss           0x000000006061f6d8        0x0 ../build/output/libraries/libproxies.a(PROXY_mkfifo.o)
 .bss           0x000000006061f6d8        0x0 ../build/output/libraries/libproxies.a(PROXY_mq_getattr.o)
 .bss           0x000000006061f6d8        0x0 ../build/output/libraries/libproxies.a(PROXY_mq_timedreceive.o)
 .bss           0x000000006061f6d8        0x0 ../build/output/libraries/libproxies.a(PROXY_on_exit.o)
 .bss           0x000000006061f6d8        0x0 ../build/output/libraries/libproxies.a(PROXY_pthread_create.o)
 .bss           0x000000006061f6d8        0x0 ../build/output/libraries/libproxies.a(PROXY_pthread_detach.o)
 .bss           0x000000006061f6d8        0x0 ../build/output/libraries/libproxies.a(PROXY_pthread_join.o)
 .bss           0x000000006061f6d8        0x0 ../build/output/libraries/libproxies.a(PROXY_sched_lock.o)
 .bss           0x000000006061f6d8        0x0 ../build/output/libraries/libproxies.a(PROXY_sched_unlock.o)
 .bss           0x000000006061f6d8        0x0 ../build/output/libraries/libproxies.a(PROXY_sem_destroy.o)
 .bss           0x000000006061f6d8        0x0 ../build/output/libraries/libproxies.a(PROXY_sem_trywait.o)
 .bss           0x000000006061f6d8        0x0 ../build/output/libraries/libproxies.a(PROXY_setenv.o)
 .bss           0x000000006061f6d8        0x0 ../build/output/libraries/libproxies.a(PROXY_sigwaitinfo.o)
 .bss           0x000000006061f6d8        0x0 ../build/output/libraries/libuc.a(lib_lowsyslog.o)
 .bss           0x000000006061f6d8        0x0 ../build/output/libraries/libuc.a(pthread_attrinit.o)
 .bss           0x000000006061f6d8        0x0 ../build/output/libraries/libuc.a(pthread_attrsetstacksize.o)
 .bss           0x000000006061f6d8        0x0 ../build/output/libraries/libuc.a(pthread_attrsetschedparam.o)
 .bss           0x000000006061f6d8        0x0 ../build/output/libraries/libuc.a(sig_addset.o)
 .bss           0x000000006061f6d8        0x0 ../build/output/libraries/libuc.a(sig_emptyset.o)
 .bss           0x000000006061f6d8        0x0 ../build/output/libraries/libuc.a(dq_rem.o)
 .bss           0x000000006061f6d8        0x0 ../build/output/libraries/libuc.a(lib_lowoutstream.o)
 .bss           0x000000006061f6d8        0x0 ../build/output/libraries/libumm.a(umm_calloc.o)
 .bss           0x000000006061f6d8        0x0 ../build/output/libraries/libumm.a(mm_calloc.o)
 *(.bss.*)
 .bss.cmd_head  0x000000006061f6d8        0x4 ../build/output/libraries/libapps.a(tash_command.o)
 .bss.cmd_line  0x000000006061f6dc       0x80 ../build/output/libraries/libapps.a(tash_command.o)
 .bss.cmd_pos   0x000000006061f75c        0x4 ../build/output/libraries/libapps.a(tash_command.o)
 .bss.cmd_store
                0x000000006061f760      0x500 ../build/output/libraries/libapps.a(tash_command.o)
 .bss.cmd_tail  0x000000006061fc60        0x4 ../build/output/libraries/libapps.a(tash_command.o)
 .bss.is_sorted_list
                0x000000006061fc64        0x4 ../build/output/libraries/libapps.a(tash_command.o)
 .bss.tash_running
                0x000000006061fc68        0x4 ../build/output/libraries/libapps.a(tash_main.o)
 .bss.g_ping_recv_counter
                0x000000006061fc6c        0x4 ../build/output/libraries/libapps.a(netcmd_ping.o)
 .bss.g_ping_seq_num
                0x000000006061fc70        0x2 ../build/output/libraries/libapps.a(netcmd_ping.o)
 *fill*         0x000000006061fc72        0x2 
 .bss.cpu       0x000000006061fc74        0x4 ../build/output/libraries/libapps.a(utils_ps.o)
 .bss._ZL12g_HelloWorld
                0x000000006061fc78        0x4 ../build/output/libraries/libapps.a(helloxx_main.o)
 .bss._ZN12_GLOBAL__N_114emergency_poolE
                0x000000006061fc7c       0x10 /bin/../lib/gcc/arm-none-eabi/10.3.1/../../../../arm-none-eabi/lib/thumb/v8-a+simd/hard/libsupc++.a(eh_alloc.o)
 .bss._ZN12_GLOBAL__N_113__new_handlerE
                0x000000006061fc8c        0x4 /bin/../lib/gcc/arm-none-eabi/10.3.1/../../../../arm-none-eabi/lib/thumb/v8-a+simd/hard/libsupc++.a(new_handler.o)
 .bss._ZZN9__gnu_cxx27__verbose_terminate_handlerEvE11terminating
                0x000000006061fc90        0x1 /bin/../lib/gcc/arm-none-eabi/10.3.1/../../../../arm-none-eabi/lib/thumb/v8-a+simd/hard/libsupc++.a(vterminate.o)
 *fill*         0x000000006061fc91        0x3 
 .bss._ZL10eh_globals
                0x000000006061fc94        0xc /bin/../lib/gcc/arm-none-eabi/10.3.1/../../../../arm-none-eabi/lib/thumb/v8-a+simd/hard/libsupc++.a(eh_globals.o)
 .bss.g_binitialized
                0x000000006061fca0        0x1 ../build/output/libraries/libuc.a(lib_getopt.o)
 *fill*         0x000000006061fca1        0x3 
 .bss.g_optptr  0x000000006061fca4        0x4 ../build/output/libraries/libuc.a(lib_getopt.o)
 .bss.optarg    0x000000006061fca8        0x4 ../build/output/libraries/libuc.a(lib_getopt.o)
                0x000000006061fca8                optarg
 .bss.buffer.0  0x000000006061fcac       0x14 ../build/output/libraries/libuc.a(lib_etherntoa.o)
 .bss.buffer.0  0x000000006061fcc0       0x12 ../build/output/libraries/libuc.a(lib_inetntoa.o)
 *fill*         0x000000006061fcd2        0x2 
 .bss.g_aliases
                0x000000006061fcd4        0x4 ../build/output/libraries/libuc.a(lib_gethostbyname.o)
                0x000000006061fcd4                g_aliases
 .bss.g_hostent_addr
                0x000000006061fcd8        0x4 ../build/output/libraries/libuc.a(lib_gethostbyname.o)
                0x000000006061fcd8                g_hostent_addr
 .bss.g_name    0x000000006061fcdc      0x101 ../build/output/libraries/libuc.a(lib_gethostbyname.o)
                0x000000006061fcdc                g_name
 *fill*         0x000000006061fddd        0x3 
 .bss.g_gmt_isset
                0x000000006061fde0        0x4 ../build/output/libraries/libuc.a(lib_localtime.o)
 .bss.g_lcl_isset
                0x000000006061fde4        0x4 ../build/output/libraries/libuc.a(lib_localtime.o)
 .bss.g_lcl_tzname
                0x000000006061fde8      0x100 ../build/output/libraries/libuc.a(lib_localtime.o)
 .bss.g_tm      0x000000006061fee8       0x24 ../build/output/libraries/libuc.a(lib_localtime.o)
 .bss.gmtptr    0x000000006061ff0c        0x4 ../build/output/libraries/libuc.a(lib_localtime.o)
 .bss.lclptr    0x000000006061ff10        0x4 ../build/output/libraries/libuc.a(lib_localtime.o)
 .bss.g_retchar
                0x000000006061ff14        0x2 ../build/output/libraries/libuc.a(lib_dirname.o)
 *fill*         0x000000006061ff16        0x2 
 .bss.g_usrsem  0x000000006061ff18        0xc ../build/output/libraries/libuwque.a(uwork_thread.o)
 .bss.g_usrwork
                0x000000006061ff24        0xc ../build/output/libraries/libuwque.a(uwork_thread.o)
 .bss.g_wifi_message_queue
                0x000000006061ff30       0x18 ../build/output/libraries/libframework.a(wifi_manager_msghandler.o)
 .bss.g_ble_message_queue
                0x000000006061ff48       0x18 ../build/output/libraries/libframework.a(ble_manager_msghandler.o)
 .bss.g_wifimgr_stats
                0x000000006061ff60       0x10 ../build/output/libraries/libframework.a(wifi_manager_stats.o)
 .bss.g_dhcp_list
                0x000000006061ff70        0xc ../build/output/libraries/libframework.a(wifi_manager_dhcps.o)
 .bss.num_sta   0x000000006061ff7c        0x1 ../build/output/libraries/libframework.a(wifi_manager_dhcps.o)
 *fill*         0x000000006061ff7d        0x3 
 .bss.g_cbk     0x000000006061ff80       0x10 ../build/output/libraries/libframework.a(wifi_manager_lwnl_listener.o)
 .bss.g_cb_handler
                0x000000006061ff90       0x28 ../build/output/libraries/libframework.a(wifi_manager_cb.o)
 .bss.g_client_table
                0x000000006061ffb8       0x84 ../build/output/libraries/libframework.a(ble_manager_state.o)
 .bss.g_manager_state
                0x000000006062003c        0x1 ../build/output/libraries/libframework.a(ble_manager_state.o)
 *fill*         0x000000006062003d        0x3 
 .bss.g_scan_ctx
                0x0000000060620040       0x34 ../build/output/libraries/libframework.a(ble_manager_state.o)
 .bss.g_scan_whitelist
                0x0000000060620074       0x50 ../build/output/libraries/libframework.a(ble_manager_state.o)
 .bss.g_ctx     0x00000000606200c4        0x4 ../build/output/libraries/libframework.a(ble_manager_autoconnect.o)
 .bss.g_q_grp   0x00000000606200c8        0x4 ../build/output/libraries/libframework.a(ble_queue.o)
 .bss.g_run_process
                0x00000000606200cc        0x4 ../build/output/libraries/libframework.a(ble_queue.o)
 .bss._impure_ptr
                0x00000000606200d0        0x4 ../build/output/libraries/libcxx.a(libxx_newlib_impure.o)
                0x00000000606200d0                _impure_ptr
 .bss.__dso_handle
                0x00000000606200d4        0x4 ../build/output/libraries/libcxx.a(libxx_cxa_atexit.o)
                0x00000000606200d4                __dso_handle
 *(.sbss)
 *(.sbss.*)
 *(.gnu.linkonce.b*)
 *(COMMON)
                0x00000000606200d8                _ebss = .
                0x00000000606200e0                . = ALIGN (0x20)
 *fill*         0x00000000606200d8        0x8 
                0x00000000606200e0                _sapp_heap = ABSOLUTE (.)

.stab
 *(.stab)

.stabstr
 *(.stabstr)

.stab.excl
 *(.stab.excl)

.stab.exclstr
 *(.stab.exclstr)

.stab.index
 *(.stab.index)

.stab.indexstr
 *(.stab.indexstr)

.comment        0x0000000000000000       0x49
 *(.comment)
 .comment       0x0000000000000000       0x49 /root/tizenrt/os/userspace/up_userspace_common.o
                                         0x4a (size before relaxing)
 .comment       0x0000000000000049       0x4a ../build/output/libraries/libproxies.a(PROXY_getpid.o)
 .comment       0x0000000000000049       0x4a ../build/output/libraries/libproxies.a(PROXY_sched_getstreams.o)
 .comment       0x0000000000000049       0x4a ../build/output/libraries/libuc.a(lib_printf.o)
 .comment       0x0000000000000049       0x4a ../build/output/libraries/libuc.a(lib_fgetc.o)
 .comment       0x0000000000000049       0x4a ../build/output/libraries/libuc.a(lib_vfprintf.o)
 .comment       0x0000000000000049       0x4a ../build/output/libraries/libuc.a(lib_stdoutstream.o)
 .comment       0x0000000000000049       0x4a ../build/output/libraries/libuc.a(lib_libnoflush.o)
 .comment       0x0000000000000049       0x4a ../build/output/libraries/libuc.a(lib_sleep.o)
 .comment       0x0000000000000049       0x4a ../build/output/libraries/libuc.a(task_startup.o)
 .comment       0x0000000000000049       0x4a ../build/output/libraries/libuc.a(pthread_startup.o)
 .comment       0x0000000000000049       0x4a ../build/output/libraries/libuc.a(lib_filesem.o)
 .comment       0x0000000000000049       0x4a ../build/output/libraries/libuc.a(lib_libvsprintf.o)
 .comment       0x0000000000000049       0x4a ../build/output/libraries/libuc.a(lib_libfread.o)
 .comment       0x0000000000000049       0x4a ../build/output/libraries/libuc.a(lib_libfflush.o)
 .comment       0x0000000000000049       0x4a ../build/output/libraries/libuc.a(lib_wrflush.o)
 .comment       0x0000000000000049       0x4a ../build/output/libraries/libuc.a(lib_fputc.o)
 .comment       0x0000000000000049       0x4a ../build/output/libraries/libuc.a(lib_strnlen.o)
 .comment       0x0000000000000049       0x4a ../build/output/libraries/libuc.a(sem_init.o)
 .comment       0x0000000000000049       0x4a ../build/output/libraries/libuc.a(lib_dtoa_engine.o)
 .comment       0x0000000000000049       0x4a ../build/output/libraries/libuc.a(lib_ultoa_invert.o)
 .comment       0x0000000000000049       0x4a ../build/output/libraries/libuc.a(lib_libfwrite.o)
 .comment       0x0000000000000049       0x4a ../build/output/libraries/libuc.a(lib_rdflush.o)
 .comment       0x0000000000000049       0x4a ../build/output/libraries/libuc.a(lib_dtoa_data.o)
 .comment       0x0000000000000049       0x4a ../build/output/libraries/libuc.a(lib_fseek.o)
 .comment       0x0000000000000049       0x4a ../build/output/libraries/libframework.a(binary_manager_notify.o)
 .comment       0x0000000000000049       0x4a ../build/output/libraries/libframework.a(binary_manager_interface.o)
 .comment       0x0000000000000049       0x4a ../build/output/libraries/libapps.a(init.o)
 .comment       0x0000000000000049       0x4a ../build/output/libraries/libapps.a(builtin_list.o)
 .comment       0x0000000000000049       0x4a ../build/output/libraries/libapps.a(tash_command.o)
 .comment       0x0000000000000049       0x4a ../build/output/libraries/libapps.a(tash_sleep.o)
 .comment       0x0000000000000049       0x4a ../build/output/libraries/libapps.a(tash_main.o)
 .comment       0x0000000000000049       0x4a ../build/output/libraries/libapps.a(mem_leak_checker_main.o)
 .comment       0x0000000000000049       0x4a ../build/output/libraries/libapps.a(sysinfo.o)
 .comment       0x0000000000000049       0x4a ../build/output/libraries/libapps.a(systemcmd.o)
 .comment       0x0000000000000049       0x4a ../build/output/libraries/libapps.a(security_level_cmd.o)
 .comment       0x0000000000000049       0x4a ../build/output/libraries/libapps.a(fscmd.o)
 .comment       0x0000000000000049       0x4a ../build/output/libraries/libapps.a(netcmd.o)
 .comment       0x0000000000000049       0x4a ../build/output/libraries/libapps.a(netcmd_ping.o)
 .comment       0x0000000000000049       0x4a ../build/output/libraries/libapps.a(netcmd_netmon.o)
 .comment       0x0000000000000049       0x4a ../build/output/libraries/libapps.a(netcmd_dhcpd.o)
 .comment       0x0000000000000049       0x4a ../build/output/libraries/libapps.a(utils_date.o)
 .comment       0x0000000000000049       0x4a ../build/output/libraries/libapps.a(utils_free.o)
 .comment       0x0000000000000049       0x4a ../build/output/libraries/libapps.a(utils_heapinfo.o)
 .comment       0x0000000000000049       0x4a ../build/output/libraries/libapps.a(utils_prodconfig.o)
 .comment       0x0000000000000049       0x4a ../build/output/libraries/libapps.a(utils_ps.o)
 .comment       0x0000000000000049       0x4a ../build/output/libraries/libapps.a(utils_uptime.o)
 .comment       0x0000000000000049       0x4a ../build/output/libraries/libapps.a(utils_proc.o)
 .comment       0x0000000000000049       0x4a ../build/output/libraries/libapps.a(helloxx_main.o)
 .comment       0x0000000000000049       0x4a ../build/output/libraries/libapps.a(hello_main.o)
 .comment       0x0000000000000049       0x4a ../build/output/libraries/libapps.a(tash_init.o)
 .comment       0x0000000000000049       0x4a ../build/output/libraries/libapps.a(tash_pm.o)
 .comment       0x0000000000000049       0x4a ../build/output/libraries/libapps.a(netdb_main.o)
 .comment       0x0000000000000049       0x4a ../build/output/libraries/libapps.a(fs_getpath.o)
 .comment       0x0000000000000049       0x4a ../build/output/libraries/libproxies.a(PROXY_boardctl.o)
 .comment       0x0000000000000049       0x4a ../build/output/libraries/libproxies.a(PROXY_clock.o)
 .comment       0x0000000000000049       0x4a ../build/output/libraries/libproxies.a(PROXY_clock_gettime.o)
 .comment       0x0000000000000049       0x4a ../build/output/libraries/libproxies.a(PROXY_clock_settime.o)
 .comment       0x0000000000000049       0x4a ../build/output/libraries/libproxies.a(PROXY_close.o)
 .comment       0x0000000000000049       0x4a ../build/output/libraries/libproxies.a(PROXY_closedir.o)
 .comment       0x0000000000000049       0x4a ../build/output/libraries/libproxies.a(PROXY_exit.o)
 .comment       0x0000000000000049       0x4a ../build/output/libraries/libproxies.a(PROXY_get_errno.o)
 .comment       0x0000000000000049       0x4a ../build/output/libraries/libproxies.a(PROXY_getenv.o)
 .comment       0x0000000000000049       0x4a ../build/output/libraries/libproxies.a(PROXY_lseek.o)
 .comment       0x0000000000000049       0x4a ../build/output/libraries/libproxies.a(PROXY_mkdir.o)
 .comment       0x0000000000000049       0x4a ../build/output/libraries/libproxies.a(PROXY_mount.o)
 .comment       0x0000000000000049       0x4a ../build/output/libraries/libproxies.a(PROXY_mq_close.o)
 .comment       0x0000000000000049       0x4a ../build/output/libraries/libproxies.a(PROXY_mq_open.o)
 .comment       0x0000000000000049       0x4a ../build/output/libraries/libproxies.a(PROXY_mq_receive.o)
 .comment       0x0000000000000049       0x4a ../build/output/libraries/libproxies.a(PROXY_mq_send.o)
 .comment       0x0000000000000049       0x4a ../build/output/libraries/libproxies.a(PROXY_mq_unlink.o)
 .comment       0x0000000000000049       0x4a ../build/output/libraries/libproxies.a(PROXY_nanosleep.o)
 .comment       0x0000000000000049       0x4a ../build/output/libraries/libproxies.a(PROXY_open.o)
 .comment       0x0000000000000049       0x4a ../build/output/libraries/libproxies.a(PROXY_opendir.o)
 .comment       0x0000000000000049       0x4a ../build/output/libraries/libproxies.a(PROXY_prctl.o)
 .comment       0x0000000000000049       0x4a ../build/output/libraries/libproxies.a(PROXY_pthread_exit.o)
 .comment       0x0000000000000049       0x4a ../build/output/libraries/libproxies.a(PROXY_pthread_mutex_lock.o)
 .comment       0x0000000000000049       0x4a ../build/output/libraries/libproxies.a(PROXY_pthread_mutex_unlock.o)
 .comment       0x0000000000000049       0x4a ../build/output/libraries/libproxies.a(PROXY_read.o)
 .comment       0x0000000000000049       0x4a ../build/output/libraries/libproxies.a(PROXY_readdir.o)
 .comment       0x0000000000000049       0x4a ../build/output/libraries/libproxies.a(PROXY_recvfrom.o)
 .comment       0x0000000000000049       0x4a ../build/output/libraries/libproxies.a(PROXY_rename.o)
 .comment       0x0000000000000049       0x4a ../build/output/libraries/libproxies.a(PROXY_rmdir.o)
 .comment       0x0000000000000049       0x4a ../build/output/libraries/libproxies.a(PROXY_select.o)
 .comment       0x0000000000000049       0x4a ../build/output/libraries/libproxies.a(PROXY_sem_post.o)
 .comment       0x0000000000000049       0x4a ../build/output/libraries/libproxies.a(PROXY_sem_wait.o)
 .comment       0x0000000000000049       0x4a ../build/output/libraries/libproxies.a(PROXY_sendto.o)
 .comment       0x0000000000000049       0x4a ../build/output/libraries/libproxies.a(PROXY_set_errno.o)
 .comment       0x0000000000000049       0x4a ../build/output/libraries/libproxies.a(PROXY_setsockopt.o)
 .comment       0x0000000000000049       0x4a ../build/output/libraries/libproxies.a(PROXY_socket.o)
 .comment       0x0000000000000049       0x4a ../build/output/libraries/libproxies.a(PROXY_stat.o)
 .comment       0x0000000000000049       0x4a ../build/output/libraries/libproxies.a(PROXY_statfs.o)
 .comment       0x0000000000000049       0x4a ../build/output/libraries/libproxies.a(PROXY_task_create.o)
 .comment       0x0000000000000049       0x4a ../build/output/libraries/libproxies.a(PROXY_umount.o)
 .comment       0x0000000000000049       0x4a ../build/output/libraries/libproxies.a(PROXY_unlink.o)
 .comment       0x0000000000000049       0x4a ../build/output/libraries/libproxies.a(PROXY_up_assert.o)
 .comment       0x0000000000000049       0x4a ../build/output/libraries/libproxies.a(PROXY_write.o)
 .comment       0x0000000000000049       0x4a ../build/output/libraries/libuc.a(lib_sprintf.o)
 .comment       0x0000000000000049       0x4a ../build/output/libraries/libuc.a(lib_asprintf.o)
 .comment       0x0000000000000049       0x4a ../build/output/libraries/libuc.a(lib_snprintf.o)
 .comment       0x0000000000000049       0x4a ../build/output/libraries/libuc.a(lib_vasprintf.o)
 .comment       0x0000000000000049       0x4a ../build/output/libraries/libuc.a(lib_memoutstream.o)
 .comment       0x0000000000000049       0x4a ../build/output/libraries/libuc.a(lib_nulloutstream.o)
 .comment       0x0000000000000049       0x4a ../build/output/libraries/libuc.a(lib_fwrite.o)
 .comment       0x0000000000000049       0x4a ../build/output/libraries/libuc.a(lib_fputs.o)
 .comment       0x0000000000000049       0x4a ../build/output/libraries/libuc.a(lib_fprintf.o)
 .comment       0x0000000000000049       0x4a ../build/output/libraries/libuc.a(lib_perror.o)
 .comment       0x0000000000000049       0x4a ../build/output/libraries/libuc.a(lib_abort.o)
 .comment       0x0000000000000049       0x4a ../build/output/libraries/libuc.a(lib_strtol.o)
 .comment       0x0000000000000049       0x4a ../build/output/libraries/libuc.a(lib_strtoul.o)
 .comment       0x0000000000000049       0x4a ../build/output/libraries/libuc.a(lib_checkbase.o)
 .comment       0x0000000000000049       0x4a ../build/output/libraries/libuc.a(lib_getopt.o)
 .comment       0x0000000000000049       0x4a ../build/output/libraries/libuc.a(lib_chdir.o)
 .comment       0x0000000000000049       0x4a ../build/output/libraries/libuc.a(lib_usleep.o)
 .comment       0x0000000000000049       0x4a ../build/output/libraries/libuc.a(lib_syslog.o)
 .comment       0x0000000000000049       0x4a ../build/output/libraries/libuc.a(lib_setlogmask.o)
 .comment       0x0000000000000049       0x4a ../build/output/libraries/libuc.a(lib_isbasedigit.o)
 .comment       0x0000000000000049       0x4a ../build/output/libraries/libuc.a(lib_memset.o)
 .comment       0x0000000000000049       0x4a ../build/output/libraries/libuc.a(lib_memcmp.o)
 .comment       0x0000000000000049       0x4a ../build/output/libraries/libuc.a(lib_memmove.o)
 .comment       0x0000000000000049       0x4a ../build/output/libraries/libuc.a(lib_skipspace.o)
 .comment       0x0000000000000049       0x4a ../build/output/libraries/libuc.a(lib_strchr.o)
 .comment       0x0000000000000049       0x4a ../build/output/libraries/libuc.a(lib_strcmp.o)
 .comment       0x0000000000000049       0x4a ../build/output/libraries/libuc.a(lib_strdup.o)
 .comment       0x0000000000000049       0x4a ../build/output/libraries/libuc.a(lib_strerror.o)
 .comment       0x0000000000000049       0x4a ../build/output/libraries/libuc.a(lib_strlen.o)
 .comment       0x0000000000000049       0x4a ../build/output/libraries/libuc.a(lib_strncasecmp.o)
 .comment       0x0000000000000049       0x4a ../build/output/libraries/libuc.a(lib_strncmp.o)
 .comment       0x0000000000000049       0x4a ../build/output/libraries/libuc.a(lib_strncpy.o)
 .comment       0x0000000000000049       0x4a ../build/output/libraries/libuc.a(lib_strstr.o)
 .comment       0x0000000000000049       0x4a ../build/output/libraries/libuc.a(lib_strtokr.o)
 .comment       0x0000000000000049       0x4a ../build/output/libraries/libuc.a(lib_vikmemcpy.o)
 .comment       0x0000000000000049       0x4a ../build/output/libraries/libuc.a(lib_etherntoa.o)
 .comment       0x0000000000000049       0x4a ../build/output/libraries/libuc.a(lib_inetaddr.o)
 .comment       0x0000000000000049       0x4a ../build/output/libraries/libuc.a(lib_inetntoa.o)
 .comment       0x0000000000000049       0x4a ../build/output/libraries/libuc.a(lib_inetntop.o)
 .comment       0x0000000000000049       0x4a ../build/output/libraries/libuc.a(lib_inetpton.o)
 .comment       0x0000000000000049       0x4a ../build/output/libraries/libuc.a(lib_freeaddrinfo.o)
 .comment       0x0000000000000049       0x4a ../build/output/libraries/libuc.a(lib_getaddrinfo.o)
 .comment       0x0000000000000049       0x4a ../build/output/libraries/libuc.a(lib_gethostbyname.o)
 .comment       0x0000000000000049       0x4a ../build/output/libraries/libuc.a(lib_strftime.o)
 .comment       0x0000000000000049       0x4a ../build/output/libraries/libuc.a(lib_daysbeforemonth.o)
 .comment       0x0000000000000049       0x4a ../build/output/libraries/libuc.a(lib_isleapyear.o)
 .comment       0x0000000000000049       0x4a ../build/output/libraries/libuc.a(lib_time.o)
 .comment       0x0000000000000049       0x4a ../build/output/libraries/libuc.a(lib_localtime.o)
 .comment       0x0000000000000049       0x4a ../build/output/libraries/libuc.a(lib_dirname.o)
 .comment       0x0000000000000049       0x4a ../build/output/libraries/libuc.a(lib_ioctl.o)
 .comment       0x0000000000000049       0x4a ../build/output/libraries/libuc.a(lib_sscanf.o)
 .comment       0x0000000000000049       0x4a ../build/output/libraries/libuc.a(lib_rawoutstream.o)
 .comment       0x0000000000000049       0x4a ../build/output/libraries/libuc.a(lib_strtoll.o)
 .comment       0x0000000000000049       0x4a ../build/output/libraries/libuc.a(lib_strtoull.o)
 .comment       0x0000000000000049       0x4a ../build/output/libraries/libuc.a(lib_strtod.o)
 .comment       0x0000000000000049       0x4a ../build/output/libraries/libuc.a(lib_strtof.o)
 .comment       0x0000000000000049       0x4a ../build/output/libraries/libuc.a(lib_access.o)
 .comment       0x0000000000000049       0x4a ../build/output/libraries/libuc.a(lib_strcspn.o)
 .comment       0x0000000000000049       0x4a ../build/output/libraries/libuc.a(lib_strncat.o)
 .comment       0x0000000000000049       0x4a ../build/output/libraries/libuc.a(lib_strrchr.o)
 .comment       0x0000000000000049       0x4a ../build/output/libraries/libuc.a(lib_htons.o)
 .comment       0x0000000000000049       0x4a ../build/output/libraries/libumm.a(mm_heapinfo_utils.o)
 .comment       0x0000000000000049       0x4a ../build/output/libraries/libumm.a(umm_free.o)
 .comment       0x0000000000000049       0x4a ../build/output/libraries/libumm.a(umm_malloc.o)
 .comment       0x0000000000000049       0x4a ../build/output/libraries/libumm.a(umm_realloc.o)
 .comment       0x0000000000000049       0x4a ../build/output/libraries/libumm.a(umm_zalloc.o)
 .comment       0x0000000000000049       0x4a ../build/output/libraries/libumm.a(mm_sem.o)
 .comment       0x0000000000000049       0x4a ../build/output/libraries/libumm.a(mm_free.o)
 .comment       0x0000000000000049       0x4a ../build/output/libraries/libumm.a(mm_malloc.o)
 .comment       0x0000000000000049       0x4a ../build/output/libraries/libumm.a(mm_realloc.o)
 .comment       0x0000000000000049       0x4a ../build/output/libraries/libumm.a(mm_zalloc.o)
 .comment       0x0000000000000049       0x4a ../build/output/libraries/libumm.a(mm_getheap.o)
 .comment       0x0000000000000049       0x4a ../build/output/libraries/libumm.a(mm_manage_allocfail.o)
 .comment       0x0000000000000049       0x4a ../build/output/libraries/libumm.a(mm_heap_dbg.o)
 .comment       0x0000000000000049       0x4a ../build/output/libraries/libumm.a(umm_initialize.o)
 .comment       0x0000000000000049       0x4a ../build/output/libraries/libumm.a(mm_initialize.o)
 .comment       0x0000000000000049       0x4a ../build/output/libraries/libumm.a(mm_addfreechunk.o)
 .comment       0x0000000000000049       0x4a ../build/output/libraries/libumm.a(mm_size2ndx.o)
 .comment       0x0000000000000049       0x4a ../build/output/libraries/libumm.a(mm_shrinkchunk.o)
 .comment       0x0000000000000049       0x4a ../build/output/libraries/libuwque.a(uwork_thread.o)
 .comment       0x0000000000000049       0x4a ../build/output/libraries/libuwque.a(work_process.o)
 .comment       0x0000000000000049       0x4a ../build/output/libraries/libuwque.a(uwork_lock.o)
 .comment       0x0000000000000049       0x4a ../build/output/libraries/libframework.a(wifi_manager_msghandler.o)
 .comment       0x0000000000000049       0x4a ../build/output/libraries/libframework.a(security_common.o)
 .comment       0x0000000000000049       0x4a ../build/output/libraries/libframework.a(security_utils.o)
 .comment       0x0000000000000049       0x4a ../build/output/libraries/libframework.a(security_ss.o)
 .comment       0x0000000000000049       0x4a ../build/output/libraries/libframework.a(ble_manager_msghandler.o)
 .comment       0x0000000000000049       0x4a ../build/output/libraries/libframework.a(seclink.o)
 .comment       0x0000000000000049       0x4a ../build/output/libraries/libframework.a(wifi_manager_message.o)
 .comment       0x0000000000000049       0x4a ../build/output/libraries/libframework.a(wifi_manager_state.o)
 .comment       0x0000000000000049       0x4a ../build/output/libraries/libframework.a(wifi_manager_stats.o)
 .comment       0x0000000000000049       0x4a ../build/output/libraries/libframework.a(wifi_manager_event.o)
 .comment       0x0000000000000049       0x4a ../build/output/libraries/libframework.a(wifi_manager_utils.o)
 .comment       0x0000000000000049       0x4a ../build/output/libraries/libframework.a(wifi_manager_info.o)
 .comment       0x0000000000000049       0x4a ../build/output/libraries/libframework.a(wifi_manager_dhcpc.o)
 .comment       0x0000000000000049       0x4a ../build/output/libraries/libframework.a(wifi_manager_dhcps.o)
 .comment       0x0000000000000049       0x4a ../build/output/libraries/libframework.a(wifi_manager_lwnl.o)
 .comment       0x0000000000000049       0x4a ../build/output/libraries/libframework.a(wifi_manager_lwnl_listener.o)
 .comment       0x0000000000000049       0x4a ../build/output/libraries/libframework.a(ble_manager_message.o)
 .comment       0x0000000000000049       0x4a ../build/output/libraries/libframework.a(wifi_manager_cb.o)
 .comment       0x0000000000000049       0x4a ../build/output/libraries/libframework.a(ble_manager_lwnl_listener.o)
 .comment       0x0000000000000049       0x4a ../build/output/libraries/libframework.a(ble_manager_state.o)
 .comment       0x0000000000000049       0x4a ../build/output/libraries/libframework.a(ble_manager_autoconnect.o)
 .comment       0x0000000000000049       0x4a ../build/output/libraries/libframework.a(ble_queue.o)
 .comment       0x0000000000000049       0x4a ../build/output/libraries/libframework.a(ble_manager_api.o)
 .comment       0x0000000000000049       0x4a ../build/output/libraries/libframework.a(ble_manager_lwnl.o)
 .comment       0x0000000000000049       0x4a ../build/output/libraries/libcxx.a(libxx_newlib_impure.o)
 .comment       0x0000000000000049       0x4a ../build/output/libraries/libcxx.a(libxx_cxa_atexit.o)
 .comment       0x0000000000000049       0x4a ../build/output/libraries/libexternal.a(netlib.o)
 .comment       0x0000000000000049       0x4a ../build/output/libraries/libexternal.a(netlib_setifstatus.o)
 .comment       0x0000000000000049       0x4a ../build/output/libraries/libexternal.a(netlib_getifstatus.o)
 .comment       0x0000000000000049       0x4a ../build/output/libraries/libexternal.a(netlib_getifaddrs.o)
 .comment       0x0000000000000049       0x4a ../build/output/libraries/libexternal.a(netlib_getstats.o)
 .comment       0x0000000000000049       0x4a ../build/output/libraries/libexternal.a(netlib_netmon.o)
 .comment       0x0000000000000049       0x4a ../build/output/libraries/libexternal.a(netlib_setipv4addr.o)
 .comment       0x0000000000000049       0x4a ../build/output/libraries/libexternal.a(netlib_getipv4addr.o)
 .comment       0x0000000000000049       0x4a ../build/output/libraries/libexternal.a(netlib_setdripv4addr.o)
 .comment       0x0000000000000049       0x4a ../build/output/libraries/libexternal.a(netlib_setipv4netmask.o)
 .comment       0x0000000000000049       0x4a ../build/output/libraries/libexternal.a(netlib_setipv6addr.o)
 .comment       0x0000000000000049       0x4a ../build/output/libraries/libexternal.a(netlib_setmacaddr.o)
 .comment       0x0000000000000049       0x4a ../build/output/libraries/libexternal.a(netlib_getmacaddr.o)
 .comment       0x0000000000000049       0x4a ../build/output/libraries/libexternal.a(netlib_setdnsserver.o)
 .comment       0x0000000000000049       0x4a ../build/output/libraries/libexternal.a(dhcpd_lwip.o)
 .comment       0x0000000000000049       0x4a ../build/output/libraries/libexternal.a(dhcpc_lwip.o)
 .comment       0x0000000000000049       0x4a ../build/output/libraries/libproxies.a(PROXY_bind.o)
 .comment       0x0000000000000049       0x4a ../build/output/libraries/libproxies.a(PROXY_fs_ioctl.o)
 .comment       0x0000000000000049       0x4a ../build/output/libraries/libproxies.a(PROXY_gettimeofday.o)
 .comment       0x0000000000000049       0x4a ../build/output/libraries/libproxies.a(PROXY_mkfifo.o)
 .comment       0x0000000000000049       0x4a ../build/output/libraries/libproxies.a(PROXY_mq_getattr.o)
 .comment       0x0000000000000049       0x4a ../build/output/libraries/libproxies.a(PROXY_mq_timedreceive.o)
 .comment       0x0000000000000049       0x4a ../build/output/libraries/libproxies.a(PROXY_on_exit.o)
 .comment       0x0000000000000049       0x4a ../build/output/libraries/libproxies.a(PROXY_pthread_create.o)
 .comment       0x0000000000000049       0x4a ../build/output/libraries/libproxies.a(PROXY_pthread_detach.o)
 .comment       0x0000000000000049       0x4a ../build/output/libraries/libproxies.a(PROXY_pthread_join.o)
 .comment       0x0000000000000049       0x4a ../build/output/libraries/libproxies.a(PROXY_sched_lock.o)
 .comment       0x0000000000000049       0x4a ../build/output/libraries/libproxies.a(PROXY_sched_unlock.o)
 .comment       0x0000000000000049       0x4a ../build/output/libraries/libproxies.a(PROXY_sem_destroy.o)
 .comment       0x0000000000000049       0x4a ../build/output/libraries/libproxies.a(PROXY_sem_trywait.o)
 .comment       0x0000000000000049       0x4a ../build/output/libraries/libproxies.a(PROXY_setenv.o)
 .comment       0x0000000000000049       0x4a ../build/output/libraries/libproxies.a(PROXY_sigwaitinfo.o)
 .comment       0x0000000000000049       0x4a ../build/output/libraries/libuc.a(lib_lowsyslog.o)
 .comment       0x0000000000000049       0x4a ../build/output/libraries/libuc.a(pthread_attrinit.o)
 .comment       0x0000000000000049       0x4a ../build/output/libraries/libuc.a(pthread_attrsetstacksize.o)
 .comment       0x0000000000000049       0x4a ../build/output/libraries/libuc.a(pthread_attrsetschedparam.o)
 .comment       0x0000000000000049       0x4a ../build/output/libraries/libuc.a(sig_addset.o)
 .comment       0x0000000000000049       0x4a ../build/output/libraries/libuc.a(sig_emptyset.o)
 .comment       0x0000000000000049       0x4a ../build/output/libraries/libuc.a(dq_rem.o)
 .comment       0x0000000000000049       0x4a ../build/output/libraries/libuc.a(lib_lowoutstream.o)
 .comment       0x0000000000000049       0x4a ../build/output/libraries/libumm.a(umm_calloc.o)
 .comment       0x0000000000000049       0x4a ../build/output/libraries/libumm.a(mm_calloc.o)

.ARM.attributes
                0x0000000000000000       0x37
 .ARM.attributes
                0x0000000000000000       0x39 /root/tizenrt/os/userspace/up_userspace_common.o
 .ARM.attributes
                0x0000000000000039       0x39 ../build/output/libraries/libproxies.a(PROXY_getpid.o)
 .ARM.attributes
                0x0000000000000072       0x39 ../build/output/libraries/libproxies.a(PROXY_sched_getstreams.o)
 .ARM.attributes
                0x00000000000000ab       0x39 ../build/output/libraries/libuc.a(lib_printf.o)
 .ARM.attributes
                0x00000000000000e4       0x39 ../build/output/libraries/libuc.a(lib_fgetc.o)
 .ARM.attributes
                0x000000000000011d       0x39 ../build/output/libraries/libuc.a(lib_vfprintf.o)
 .ARM.attributes
                0x0000000000000156       0x39 ../build/output/libraries/libuc.a(lib_stdoutstream.o)
 .ARM.attributes
                0x000000000000018f       0x39 ../build/output/libraries/libuc.a(lib_libnoflush.o)
 .ARM.attributes
                0x00000000000001c8       0x39 ../build/output/libraries/libuc.a(lib_sleep.o)
 .ARM.attributes
                0x0000000000000201       0x39 ../build/output/libraries/libuc.a(task_startup.o)
 .ARM.attributes
                0x000000000000023a       0x39 ../build/output/libraries/libuc.a(pthread_startup.o)
 .ARM.attributes
                0x0000000000000273       0x39 ../build/output/libraries/libuc.a(lib_filesem.o)
 .ARM.attributes
                0x00000000000002ac       0x39 ../build/output/libraries/libuc.a(lib_libvsprintf.o)
 .ARM.attributes
                0x00000000000002e5       0x39 ../build/output/libraries/libuc.a(lib_libfread.o)
 .ARM.attributes
                0x000000000000031e       0x39 ../build/output/libraries/libuc.a(lib_libfflush.o)
 .ARM.attributes
                0x0000000000000357       0x39 ../build/output/libraries/libuc.a(lib_wrflush.o)
 .ARM.attributes
                0x0000000000000390       0x39 ../build/output/libraries/libuc.a(lib_fputc.o)
 .ARM.attributes
                0x00000000000003c9       0x39 ../build/output/libraries/libuc.a(lib_strnlen.o)
 .ARM.attributes
                0x0000000000000402       0x39 ../build/output/libraries/libuc.a(sem_init.o)
 .ARM.attributes
                0x000000000000043b       0x39 ../build/output/libraries/libuc.a(lib_dtoa_engine.o)
 .ARM.attributes
                0x0000000000000474       0x39 ../build/output/libraries/libuc.a(lib_ultoa_invert.o)
 .ARM.attributes
                0x00000000000004ad       0x39 ../build/output/libraries/libuc.a(lib_libfwrite.o)
 .ARM.attributes
                0x00000000000004e6       0x39 ../build/output/libraries/libuc.a(lib_rdflush.o)
 .ARM.attributes
                0x000000000000051f       0x39 ../build/output/libraries/libuc.a(lib_dtoa_data.o)
 .ARM.attributes
                0x0000000000000558       0x39 ../build/output/libraries/libuc.a(lib_fseek.o)
 .ARM.attributes
                0x0000000000000591       0x25 ../build/output/libraries/libuarch.a(arm_signal_handler.o)
 .ARM.attributes
                0x00000000000005b6       0x39 ../build/output/libraries/libframework.a(binary_manager_notify.o)
 .ARM.attributes
                0x00000000000005ef       0x39 ../build/output/libraries/libframework.a(binary_manager_interface.o)
 .ARM.attributes
                0x0000000000000628       0x39 ../build/output/libraries/libapps.a(init.o)
 .ARM.attributes
                0x0000000000000661       0x39 ../build/output/libraries/libapps.a(builtin_list.o)
 .ARM.attributes
                0x000000000000069a       0x39 ../build/output/libraries/libapps.a(tash_command.o)
 .ARM.attributes
                0x00000000000006d3       0x39 ../build/output/libraries/libapps.a(tash_sleep.o)
 .ARM.attributes
                0x000000000000070c       0x39 ../build/output/libraries/libapps.a(tash_main.o)
 .ARM.attributes
                0x0000000000000745       0x39 ../build/output/libraries/libapps.a(mem_leak_checker_main.o)
 .ARM.attributes
                0x000000000000077e       0x39 ../build/output/libraries/libapps.a(sysinfo.o)
 .ARM.attributes
                0x00000000000007b7       0x39 ../build/output/libraries/libapps.a(systemcmd.o)
 .ARM.attributes
                0x00000000000007f0       0x39 ../build/output/libraries/libapps.a(security_level_cmd.o)
 .ARM.attributes
                0x0000000000000829       0x39 ../build/output/libraries/libapps.a(fscmd.o)
 .ARM.attributes
                0x0000000000000862       0x39 ../build/output/libraries/libapps.a(netcmd.o)
 .ARM.attributes
                0x000000000000089b       0x39 ../build/output/libraries/libapps.a(netcmd_ping.o)
 .ARM.attributes
                0x00000000000008d4       0x39 ../build/output/libraries/libapps.a(netcmd_netmon.o)
 .ARM.attributes
                0x000000000000090d       0x39 ../build/output/libraries/libapps.a(netcmd_dhcpd.o)
 .ARM.attributes
                0x0000000000000946       0x39 ../build/output/libraries/libapps.a(utils_date.o)
 .ARM.attributes
                0x000000000000097f       0x39 ../build/output/libraries/libapps.a(utils_free.o)
 .ARM.attributes
                0x00000000000009b8       0x39 ../build/output/libraries/libapps.a(utils_heapinfo.o)
 .ARM.attributes
                0x00000000000009f1       0x39 ../build/output/libraries/libapps.a(utils_prodconfig.o)
 .ARM.attributes
                0x0000000000000a2a       0x39 ../build/output/libraries/libapps.a(utils_ps.o)
 .ARM.attributes
                0x0000000000000a63       0x39 ../build/output/libraries/libapps.a(utils_uptime.o)
 .ARM.attributes
                0x0000000000000a9c       0x39 ../build/output/libraries/libapps.a(utils_proc.o)
 .ARM.attributes
                0x0000000000000ad5       0x39 ../build/output/libraries/libapps.a(helloxx_main.o)
 .ARM.attributes
                0x0000000000000b0e       0x39 ../build/output/libraries/libapps.a(hello_main.o)
 .ARM.attributes
                0x0000000000000b47       0x39 ../build/output/libraries/libapps.a(tash_init.o)
 .ARM.attributes
                0x0000000000000b80       0x39 ../build/output/libraries/libapps.a(tash_pm.o)
 .ARM.attributes
                0x0000000000000bb9       0x39 ../build/output/libraries/libapps.a(netdb_main.o)
 .ARM.attributes
                0x0000000000000bf2       0x39 ../build/output/libraries/libapps.a(fs_getpath.o)
 .ARM.attributes
                0x0000000000000c2b       0x23 /bin/../lib/gcc/arm-none-eabi/10.3.1/thumb/v8-a+simd/hard/libgcc.a(_arm_addsubdf3.o)
 .ARM.attributes
                0x0000000000000c4e       0x23 /bin/../lib/gcc/arm-none-eabi/10.3.1/thumb/v8-a+simd/hard/libgcc.a(_aeabi_ldivmod.o)
 .ARM.attributes
                0x0000000000000c71       0x23 /bin/../lib/gcc/arm-none-eabi/10.3.1/thumb/v8-a+simd/hard/libgcc.a(_aeabi_uldivmod.o)
 .ARM.attributes
                0x0000000000000c94       0x39 /bin/../lib/gcc/arm-none-eabi/10.3.1/thumb/v8-a+simd/hard/libgcc.a(_fixunsdfdi.o)
 .ARM.attributes
                0x0000000000000ccd       0x39 /bin/../lib/gcc/arm-none-eabi/10.3.1/thumb/v8-a+simd/hard/libgcc.a(_udivmoddi4.o)
 .ARM.attributes
                0x0000000000000d06       0x39 /bin/../lib/gcc/arm-none-eabi/10.3.1/thumb/v8-a+simd/hard/libgcc.a(unwind-arm.o)
 .ARM.attributes
                0x0000000000000d3f       0x23 /bin/../lib/gcc/arm-none-eabi/10.3.1/thumb/v8-a+simd/hard/libgcc.a(libunwind.o)
 .ARM.attributes
                0x0000000000000d62       0x39 /bin/../lib/gcc/arm-none-eabi/10.3.1/thumb/v8-a+simd/hard/libgcc.a(pr-support.o)
 .ARM.attributes
                0x0000000000000d9b       0x23 /bin/../lib/gcc/arm-none-eabi/10.3.1/thumb/v8-a+simd/hard/libgcc.a(_dvmd_tls.o)
 .ARM.attributes
                0x0000000000000dbe       0x39 /bin/../lib/gcc/arm-none-eabi/10.3.1/../../../../arm-none-eabi/lib/thumb/v8-a+simd/hard/libsupc++.a(atexit_arm.o)
 .ARM.attributes
                0x0000000000000df7       0x39 /bin/../lib/gcc/arm-none-eabi/10.3.1/../../../../arm-none-eabi/lib/thumb/v8-a+simd/hard/libsupc++.a(del_op.o)
 .ARM.attributes
                0x0000000000000e30       0x39 /bin/../lib/gcc/arm-none-eabi/10.3.1/../../../../arm-none-eabi/lib/thumb/v8-a+simd/hard/libsupc++.a(new_op.o)
 .ARM.attributes
                0x0000000000000e69       0x39 /bin/../lib/gcc/arm-none-eabi/10.3.1/../../../../arm-none-eabi/lib/thumb/v8-a+simd/hard/libsupc++.a(bad_alloc.o)
 .ARM.attributes
                0x0000000000000ea2       0x39 /bin/../lib/gcc/arm-none-eabi/10.3.1/../../../../arm-none-eabi/lib/thumb/v8-a+simd/hard/libsupc++.a(del_ops.o)
 .ARM.attributes
                0x0000000000000edb       0x39 /bin/../lib/gcc/arm-none-eabi/10.3.1/../../../../arm-none-eabi/lib/thumb/v8-a+simd/hard/libsupc++.a(eh_alloc.o)
 .ARM.attributes
                0x0000000000000f14       0x39 /bin/../lib/gcc/arm-none-eabi/10.3.1/../../../../arm-none-eabi/lib/thumb/v8-a+simd/hard/libsupc++.a(eh_exception.o)
 .ARM.attributes
                0x0000000000000f4d       0x39 /bin/../lib/gcc/arm-none-eabi/10.3.1/../../../../arm-none-eabi/lib/thumb/v8-a+simd/hard/libsupc++.a(eh_terminate.o)
 .ARM.attributes
                0x0000000000000f86       0x39 /bin/../lib/gcc/arm-none-eabi/10.3.1/../../../../arm-none-eabi/lib/thumb/v8-a+simd/hard/libsupc++.a(eh_throw.o)
 .ARM.attributes
                0x0000000000000fbf       0x39 /bin/../lib/gcc/arm-none-eabi/10.3.1/../../../../arm-none-eabi/lib/thumb/v8-a+simd/hard/libsupc++.a(eh_unex_handler.o)
 .ARM.attributes
                0x0000000000000ff8       0x39 /bin/../lib/gcc/arm-none-eabi/10.3.1/../../../../arm-none-eabi/lib/thumb/v8-a+simd/hard/libsupc++.a(new_handler.o)
 .ARM.attributes
                0x0000000000001031       0x39 /bin/../lib/gcc/arm-none-eabi/10.3.1/../../../../arm-none-eabi/lib/thumb/v8-a+simd/hard/libsupc++.a(pure.o)
 .ARM.attributes
                0x000000000000106a       0x39 /bin/../lib/gcc/arm-none-eabi/10.3.1/../../../../arm-none-eabi/lib/thumb/v8-a+simd/hard/libsupc++.a(si_class_type_info.o)
 .ARM.attributes
                0x00000000000010a3       0x39 /bin/../lib/gcc/arm-none-eabi/10.3.1/../../../../arm-none-eabi/lib/thumb/v8-a+simd/hard/libsupc++.a(tinfo.o)
 .ARM.attributes
                0x00000000000010dc       0x39 /bin/../lib/gcc/arm-none-eabi/10.3.1/../../../../arm-none-eabi/lib/thumb/v8-a+simd/hard/libsupc++.a(vterminate.o)
 .ARM.attributes
                0x0000000000001115       0x39 /bin/../lib/gcc/arm-none-eabi/10.3.1/../../../../arm-none-eabi/lib/thumb/v8-a+simd/hard/libsupc++.a(cp-demangle.o)
 .ARM.attributes
                0x000000000000114e       0x39 /bin/../lib/gcc/arm-none-eabi/10.3.1/../../../../arm-none-eabi/lib/thumb/v8-a+simd/hard/libsupc++.a(class_type_info.o)
 .ARM.attributes
                0x0000000000001187       0x39 /bin/../lib/gcc/arm-none-eabi/10.3.1/../../../../arm-none-eabi/lib/thumb/v8-a+simd/hard/libsupc++.a(eh_arm.o)
 .ARM.attributes
                0x00000000000011c0       0x39 /bin/../lib/gcc/arm-none-eabi/10.3.1/../../../../arm-none-eabi/lib/thumb/v8-a+simd/hard/libsupc++.a(eh_call.o)
 .ARM.attributes
                0x00000000000011f9       0x39 /bin/../lib/gcc/arm-none-eabi/10.3.1/../../../../arm-none-eabi/lib/thumb/v8-a+simd/hard/libsupc++.a(eh_catch.o)
 .ARM.attributes
                0x0000000000001232       0x39 /bin/../lib/gcc/arm-none-eabi/10.3.1/../../../../arm-none-eabi/lib/thumb/v8-a+simd/hard/libsupc++.a(eh_globals.o)
 .ARM.attributes
                0x000000000000126b       0x39 /bin/../lib/gcc/arm-none-eabi/10.3.1/../../../../arm-none-eabi/lib/thumb/v8-a+simd/hard/libsupc++.a(eh_personality.o)
 .ARM.attributes
                0x00000000000012a4       0x39 /bin/../lib/gcc/arm-none-eabi/10.3.1/../../../../arm-none-eabi/lib/thumb/v8-a+simd/hard/libsupc++.a(eh_term_handler.o)
 .ARM.attributes
                0x00000000000012dd       0x39 /bin/../lib/gcc/arm-none-eabi/10.3.1/../../../../arm-none-eabi/lib/thumb/v8-a+simd/hard/libsupc++.a(eh_type.o)
 .ARM.attributes
                0x0000000000001316       0x39 ../build/output/libraries/libproxies.a(PROXY_boardctl.o)
 .ARM.attributes
                0x000000000000134f       0x39 ../build/output/libraries/libproxies.a(PROXY_clock.o)
 .ARM.attributes
                0x0000000000001388       0x39 ../build/output/libraries/libproxies.a(PROXY_clock_gettime.o)
 .ARM.attributes
                0x00000000000013c1       0x39 ../build/output/libraries/libproxies.a(PROXY_clock_settime.o)
 .ARM.attributes
                0x00000000000013fa       0x39 ../build/output/libraries/libproxies.a(PROXY_close.o)
 .ARM.attributes
                0x0000000000001433       0x39 ../build/output/libraries/libproxies.a(PROXY_closedir.o)
 .ARM.attributes
                0x000000000000146c       0x39 ../build/output/libraries/libproxies.a(PROXY_exit.o)
 .ARM.attributes
                0x00000000000014a5       0x39 ../build/output/libraries/libproxies.a(PROXY_get_errno.o)
 .ARM.attributes
                0x00000000000014de       0x39 ../build/output/libraries/libproxies.a(PROXY_getenv.o)
 .ARM.attributes
                0x0000000000001517       0x39 ../build/output/libraries/libproxies.a(PROXY_lseek.o)
 .ARM.attributes
                0x0000000000001550       0x39 ../build/output/libraries/libproxies.a(PROXY_mkdir.o)
 .ARM.attributes
                0x0000000000001589       0x39 ../build/output/libraries/libproxies.a(PROXY_mount.o)
 .ARM.attributes
                0x00000000000015c2       0x39 ../build/output/libraries/libproxies.a(PROXY_mq_close.o)
 .ARM.attributes
                0x00000000000015fb       0x39 ../build/output/libraries/libproxies.a(PROXY_mq_open.o)
 .ARM.attributes
                0x0000000000001634       0x39 ../build/output/libraries/libproxies.a(PROXY_mq_receive.o)
 .ARM.attributes
                0x000000000000166d       0x39 ../build/output/libraries/libproxies.a(PROXY_mq_send.o)
 .ARM.attributes
                0x00000000000016a6       0x39 ../build/output/libraries/libproxies.a(PROXY_mq_unlink.o)
 .ARM.attributes
                0x00000000000016df       0x39 ../build/output/libraries/libproxies.a(PROXY_nanosleep.o)
 .ARM.attributes
                0x0000000000001718       0x39 ../build/output/libraries/libproxies.a(PROXY_open.o)
 .ARM.attributes
                0x0000000000001751       0x39 ../build/output/libraries/libproxies.a(PROXY_opendir.o)
 .ARM.attributes
                0x000000000000178a       0x39 ../build/output/libraries/libproxies.a(PROXY_prctl.o)
 .ARM.attributes
                0x00000000000017c3       0x39 ../build/output/libraries/libproxies.a(PROXY_pthread_exit.o)
 .ARM.attributes
                0x00000000000017fc       0x39 ../build/output/libraries/libproxies.a(PROXY_pthread_mutex_lock.o)
 .ARM.attributes
                0x0000000000001835       0x39 ../build/output/libraries/libproxies.a(PROXY_pthread_mutex_unlock.o)
 .ARM.attributes
                0x000000000000186e       0x39 ../build/output/libraries/libproxies.a(PROXY_read.o)
 .ARM.attributes
                0x00000000000018a7       0x39 ../build/output/libraries/libproxies.a(PROXY_readdir.o)
 .ARM.attributes
                0x00000000000018e0       0x39 ../build/output/libraries/libproxies.a(PROXY_recvfrom.o)
 .ARM.attributes
                0x0000000000001919       0x39 ../build/output/libraries/libproxies.a(PROXY_rename.o)
 .ARM.attributes
                0x0000000000001952       0x39 ../build/output/libraries/libproxies.a(PROXY_rmdir.o)
 .ARM.attributes
                0x000000000000198b       0x39 ../build/output/libraries/libproxies.a(PROXY_select.o)
 .ARM.attributes
                0x00000000000019c4       0x39 ../build/output/libraries/libproxies.a(PROXY_sem_post.o)
 .ARM.attributes
                0x00000000000019fd       0x39 ../build/output/libraries/libproxies.a(PROXY_sem_wait.o)
 .ARM.attributes
                0x0000000000001a36       0x39 ../build/output/libraries/libproxies.a(PROXY_sendto.o)
 .ARM.attributes
                0x0000000000001a6f       0x39 ../build/output/libraries/libproxies.a(PROXY_set_errno.o)
 .ARM.attributes
                0x0000000000001aa8       0x39 ../build/output/libraries/libproxies.a(PROXY_setsockopt.o)
 .ARM.attributes
                0x0000000000001ae1       0x39 ../build/output/libraries/libproxies.a(PROXY_socket.o)
 .ARM.attributes
                0x0000000000001b1a       0x39 ../build/output/libraries/libproxies.a(PROXY_stat.o)
 .ARM.attributes
                0x0000000000001b53       0x39 ../build/output/libraries/libproxies.a(PROXY_statfs.o)
 .ARM.attributes
                0x0000000000001b8c       0x39 ../build/output/libraries/libproxies.a(PROXY_task_create.o)
 .ARM.attributes
                0x0000000000001bc5       0x39 ../build/output/libraries/libproxies.a(PROXY_umount.o)
 .ARM.attributes
                0x0000000000001bfe       0x39 ../build/output/libraries/libproxies.a(PROXY_unlink.o)
 .ARM.attributes
                0x0000000000001c37       0x39 ../build/output/libraries/libproxies.a(PROXY_up_assert.o)
 .ARM.attributes
                0x0000000000001c70       0x39 ../build/output/libraries/libproxies.a(PROXY_write.o)
 .ARM.attributes
                0x0000000000001ca9       0x39 ../build/output/libraries/libuc.a(lib_sprintf.o)
 .ARM.attributes
                0x0000000000001ce2       0x39 ../build/output/libraries/libuc.a(lib_asprintf.o)
 .ARM.attributes
                0x0000000000001d1b       0x39 ../build/output/libraries/libuc.a(lib_snprintf.o)
 .ARM.attributes
                0x0000000000001d54       0x39 ../build/output/libraries/libuc.a(lib_vasprintf.o)
 .ARM.attributes
                0x0000000000001d8d       0x39 ../build/output/libraries/libuc.a(lib_memoutstream.o)
 .ARM.attributes
                0x0000000000001dc6       0x39 ../build/output/libraries/libuc.a(lib_nulloutstream.o)
 .ARM.attributes
                0x0000000000001dff       0x39 ../build/output/libraries/libuc.a(lib_fwrite.o)
 .ARM.attributes
                0x0000000000001e38       0x39 ../build/output/libraries/libuc.a(lib_fputs.o)
 .ARM.attributes
                0x0000000000001e71       0x39 ../build/output/libraries/libuc.a(lib_fprintf.o)
 .ARM.attributes
                0x0000000000001eaa       0x39 ../build/output/libraries/libuc.a(lib_perror.o)
 .ARM.attributes
                0x0000000000001ee3       0x39 ../build/output/libraries/libuc.a(lib_abort.o)
 .ARM.attributes
                0x0000000000001f1c       0x39 ../build/output/libraries/libuc.a(lib_strtol.o)
 .ARM.attributes
                0x0000000000001f55       0x39 ../build/output/libraries/libuc.a(lib_strtoul.o)
 .ARM.attributes
                0x0000000000001f8e       0x39 ../build/output/libraries/libuc.a(lib_checkbase.o)
 .ARM.attributes
                0x0000000000001fc7       0x39 ../build/output/libraries/libuc.a(lib_getopt.o)
 .ARM.attributes
                0x0000000000002000       0x39 ../build/output/libraries/libuc.a(lib_chdir.o)
 .ARM.attributes
                0x0000000000002039       0x39 ../build/output/libraries/libuc.a(lib_usleep.o)
 .ARM.attributes
                0x0000000000002072       0x39 ../build/output/libraries/libuc.a(lib_syslog.o)
 .ARM.attributes
                0x00000000000020ab       0x39 ../build/output/libraries/libuc.a(lib_setlogmask.o)
 .ARM.attributes
                0x00000000000020e4       0x39 ../build/output/libraries/libuc.a(lib_isbasedigit.o)
 .ARM.attributes
                0x000000000000211d       0x39 ../build/output/libraries/libuc.a(lib_memset.o)
 .ARM.attributes
                0x0000000000002156       0x39 ../build/output/libraries/libuc.a(lib_memcmp.o)
 .ARM.attributes
                0x000000000000218f       0x39 ../build/output/libraries/libuc.a(lib_memmove.o)
 .ARM.attributes
                0x00000000000021c8       0x39 ../build/output/libraries/libuc.a(lib_skipspace.o)
 .ARM.attributes
                0x0000000000002201       0x39 ../build/output/libraries/libuc.a(lib_strchr.o)
 .ARM.attributes
                0x000000000000223a       0x39 ../build/output/libraries/libuc.a(lib_strcmp.o)
 .ARM.attributes
                0x0000000000002273       0x39 ../build/output/libraries/libuc.a(lib_strdup.o)
 .ARM.attributes
                0x00000000000022ac       0x39 ../build/output/libraries/libuc.a(lib_strerror.o)
 .ARM.attributes
                0x00000000000022e5       0x39 ../build/output/libraries/libuc.a(lib_strlen.o)
 .ARM.attributes
                0x000000000000231e       0x39 ../build/output/libraries/libuc.a(lib_strncasecmp.o)
 .ARM.attributes
                0x0000000000002357       0x39 ../build/output/libraries/libuc.a(lib_strncmp.o)
 .ARM.attributes
                0x0000000000002390       0x39 ../build/output/libraries/libuc.a(lib_strncpy.o)
 .ARM.attributes
                0x00000000000023c9       0x39 ../build/output/libraries/libuc.a(lib_strstr.o)
 .ARM.attributes
                0x0000000000002402       0x39 ../build/output/libraries/libuc.a(lib_strtokr.o)
 .ARM.attributes
                0x000000000000243b       0x39 ../build/output/libraries/libuc.a(lib_vikmemcpy.o)
 .ARM.attributes
                0x0000000000002474       0x39 ../build/output/libraries/libuc.a(lib_etherntoa.o)
 .ARM.attributes
                0x00000000000024ad       0x39 ../build/output/libraries/libuc.a(lib_inetaddr.o)
 .ARM.attributes
                0x00000000000024e6       0x39 ../build/output/libraries/libuc.a(lib_inetntoa.o)
 .ARM.attributes
                0x000000000000251f       0x39 ../build/output/libraries/libuc.a(lib_inetntop.o)
 .ARM.attributes
                0x0000000000002558       0x39 ../build/output/libraries/libuc.a(lib_inetpton.o)
 .ARM.attributes
                0x0000000000002591       0x39 ../build/output/libraries/libuc.a(lib_freeaddrinfo.o)
 .ARM.attributes
                0x00000000000025ca       0x39 ../build/output/libraries/libuc.a(lib_getaddrinfo.o)
 .ARM.attributes
                0x0000000000002603       0x39 ../build/output/libraries/libuc.a(lib_gethostbyname.o)
 .ARM.attributes
                0x000000000000263c       0x39 ../build/output/libraries/libuc.a(lib_strftime.o)
 .ARM.attributes
                0x0000000000002675       0x39 ../build/output/libraries/libuc.a(lib_daysbeforemonth.o)
 .ARM.attributes
                0x00000000000026ae       0x39 ../build/output/libraries/libuc.a(lib_isleapyear.o)
 .ARM.attributes
                0x00000000000026e7       0x39 ../build/output/libraries/libuc.a(lib_time.o)
 .ARM.attributes
                0x0000000000002720       0x39 ../build/output/libraries/libuc.a(lib_localtime.o)
 .ARM.attributes
                0x0000000000002759       0x39 ../build/output/libraries/libuc.a(lib_dirname.o)
 .ARM.attributes
                0x0000000000002792       0x39 ../build/output/libraries/libuc.a(lib_ioctl.o)
 .ARM.attributes
                0x00000000000027cb       0x39 ../build/output/libraries/libuc.a(lib_sscanf.o)
 .ARM.attributes
                0x0000000000002804       0x39 ../build/output/libraries/libuc.a(lib_rawoutstream.o)
 .ARM.attributes
                0x000000000000283d       0x39 ../build/output/libraries/libuc.a(lib_strtoll.o)
 .ARM.attributes
                0x0000000000002876       0x39 ../build/output/libraries/libuc.a(lib_strtoull.o)
 .ARM.attributes
                0x00000000000028af       0x39 ../build/output/libraries/libuc.a(lib_strtod.o)
 .ARM.attributes
                0x00000000000028e8       0x39 ../build/output/libraries/libuc.a(lib_strtof.o)
 .ARM.attributes
                0x0000000000002921       0x39 ../build/output/libraries/libuc.a(lib_access.o)
 .ARM.attributes
                0x000000000000295a       0x39 ../build/output/libraries/libuc.a(lib_strcspn.o)
 .ARM.attributes
                0x0000000000002993       0x39 ../build/output/libraries/libuc.a(lib_strncat.o)
 .ARM.attributes
                0x00000000000029cc       0x39 ../build/output/libraries/libuc.a(lib_strrchr.o)
 .ARM.attributes
                0x0000000000002a05       0x39 ../build/output/libraries/libuc.a(lib_htons.o)
 .ARM.attributes
                0x0000000000002a3e       0x39 ../build/output/libraries/libumm.a(mm_heapinfo_utils.o)
 .ARM.attributes
                0x0000000000002a77       0x39 ../build/output/libraries/libumm.a(umm_free.o)
 .ARM.attributes
                0x0000000000002ab0       0x39 ../build/output/libraries/libumm.a(umm_malloc.o)
 .ARM.attributes
                0x0000000000002ae9       0x39 ../build/output/libraries/libumm.a(umm_realloc.o)
 .ARM.attributes
                0x0000000000002b22       0x39 ../build/output/libraries/libumm.a(umm_zalloc.o)
 .ARM.attributes
                0x0000000000002b5b       0x39 ../build/output/libraries/libumm.a(mm_sem.o)
 .ARM.attributes
                0x0000000000002b94       0x39 ../build/output/libraries/libumm.a(mm_free.o)
 .ARM.attributes
                0x0000000000002bcd       0x39 ../build/output/libraries/libumm.a(mm_malloc.o)
 .ARM.attributes
                0x0000000000002c06       0x39 ../build/output/libraries/libumm.a(mm_realloc.o)
 .ARM.attributes
                0x0000000000002c3f       0x39 ../build/output/libraries/libumm.a(mm_zalloc.o)
 .ARM.attributes
                0x0000000000002c78       0x39 ../build/output/libraries/libumm.a(mm_getheap.o)
 .ARM.attributes
                0x0000000000002cb1       0x39 ../build/output/libraries/libumm.a(mm_manage_allocfail.o)
 .ARM.attributes
                0x0000000000002cea       0x39 ../build/output/libraries/libumm.a(mm_heap_dbg.o)
 .ARM.attributes
                0x0000000000002d23       0x39 ../build/output/libraries/libumm.a(umm_initialize.o)
 .ARM.attributes
                0x0000000000002d5c       0x39 ../build/output/libraries/libumm.a(mm_initialize.o)
 .ARM.attributes
                0x0000000000002d95       0x39 ../build/output/libraries/libumm.a(mm_addfreechunk.o)
 .ARM.attributes
                0x0000000000002dce       0x39 ../build/output/libraries/libumm.a(mm_size2ndx.o)
 .ARM.attributes
                0x0000000000002e07       0x39 ../build/output/libraries/libumm.a(mm_shrinkchunk.o)
 .ARM.attributes
                0x0000000000002e40       0x39 ../build/output/libraries/libuwque.a(uwork_thread.o)
 .ARM.attributes
                0x0000000000002e79       0x39 ../build/output/libraries/libuwque.a(work_process.o)
 .ARM.attributes
                0x0000000000002eb2       0x39 ../build/output/libraries/libuwque.a(uwork_lock.o)
 .ARM.attributes
                0x0000000000002eeb       0x39 ../build/output/libraries/libframework.a(wifi_manager_msghandler.o)
 .ARM.attributes
                0x0000000000002f24       0x39 ../build/output/libraries/libframework.a(security_common.o)
 .ARM.attributes
                0x0000000000002f5d       0x39 ../build/output/libraries/libframework.a(security_utils.o)
 .ARM.attributes
                0x0000000000002f96       0x39 ../build/output/libraries/libframework.a(security_ss.o)
 .ARM.attributes
                0x0000000000002fcf       0x39 ../build/output/libraries/libframework.a(ble_manager_msghandler.o)
 .ARM.attributes
                0x0000000000003008       0x39 ../build/output/libraries/libframework.a(seclink.o)
 .ARM.attributes
                0x0000000000003041       0x39 ../build/output/libraries/libframework.a(wifi_manager_message.o)
 .ARM.attributes
                0x000000000000307a       0x39 ../build/output/libraries/libframework.a(wifi_manager_state.o)
 .ARM.attributes
                0x00000000000030b3       0x39 ../build/output/libraries/libframework.a(wifi_manager_stats.o)
 .ARM.attributes
                0x00000000000030ec       0x39 ../build/output/libraries/libframework.a(wifi_manager_event.o)
 .ARM.attributes
                0x0000000000003125       0x39 ../build/output/libraries/libframework.a(wifi_manager_utils.o)
 .ARM.attributes
                0x000000000000315e       0x39 ../build/output/libraries/libframework.a(wifi_manager_info.o)
 .ARM.attributes
                0x0000000000003197       0x39 ../build/output/libraries/libframework.a(wifi_manager_dhcpc.o)
 .ARM.attributes
                0x00000000000031d0       0x39 ../build/output/libraries/libframework.a(wifi_manager_dhcps.o)
 .ARM.attributes
                0x0000000000003209       0x39 ../build/output/libraries/libframework.a(wifi_manager_lwnl.o)
 .ARM.attributes
                0x0000000000003242       0x39 ../build/output/libraries/libframework.a(wifi_manager_lwnl_listener.o)
 .ARM.attributes
                0x000000000000327b       0x39 ../build/output/libraries/libframework.a(ble_manager_message.o)
 .ARM.attributes
                0x00000000000032b4       0x39 ../build/output/libraries/libframework.a(wifi_manager_cb.o)
 .ARM.attributes
                0x00000000000032ed       0x39 ../build/output/libraries/libframework.a(ble_manager_lwnl_listener.o)
 .ARM.attributes
                0x0000000000003326       0x39 ../build/output/libraries/libframework.a(ble_manager_state.o)
 .ARM.attributes
                0x000000000000335f       0x39 ../build/output/libraries/libframework.a(ble_manager_autoconnect.o)
 .ARM.attributes
                0x0000000000003398       0x39 ../build/output/libraries/libframework.a(ble_queue.o)
 .ARM.attributes
                0x00000000000033d1       0x39 ../build/output/libraries/libframework.a(ble_manager_api.o)
 .ARM.attributes
                0x000000000000340a       0x39 ../build/output/libraries/libframework.a(ble_manager_lwnl.o)
 .ARM.attributes
                0x0000000000003443       0x39 ../build/output/libraries/libcxx.a(libxx_newlib_impure.o)
 .ARM.attributes
                0x000000000000347c       0x39 ../build/output/libraries/libcxx.a(libxx_cxa_atexit.o)
 .ARM.attributes
                0x00000000000034b5       0x39 ../build/output/libraries/libexternal.a(netlib.o)
 .ARM.attributes
                0x00000000000034ee       0x39 ../build/output/libraries/libexternal.a(netlib_setifstatus.o)
 .ARM.attributes
                0x0000000000003527       0x39 ../build/output/libraries/libexternal.a(netlib_getifstatus.o)
 .ARM.attributes
                0x0000000000003560       0x39 ../build/output/libraries/libexternal.a(netlib_getifaddrs.o)
 .ARM.attributes
                0x0000000000003599       0x39 ../build/output/libraries/libexternal.a(netlib_getstats.o)
 .ARM.attributes
                0x00000000000035d2       0x39 ../build/output/libraries/libexternal.a(netlib_netmon.o)
 .ARM.attributes
                0x000000000000360b       0x39 ../build/output/libraries/libexternal.a(netlib_setipv4addr.o)
 .ARM.attributes
                0x0000000000003644       0x39 ../build/output/libraries/libexternal.a(netlib_getipv4addr.o)
 .ARM.attributes
                0x000000000000367d       0x39 ../build/output/libraries/libexternal.a(netlib_setdripv4addr.o)
 .ARM.attributes
                0x00000000000036b6       0x39 ../build/output/libraries/libexternal.a(netlib_setipv4netmask.o)
 .ARM.attributes
                0x00000000000036ef       0x39 ../build/output/libraries/libexternal.a(netlib_setipv6addr.o)
 .ARM.attributes
                0x0000000000003728       0x39 ../build/output/libraries/libexternal.a(netlib_setmacaddr.o)
 .ARM.attributes
                0x0000000000003761       0x39 ../build/output/libraries/libexternal.a(netlib_getmacaddr.o)
 .ARM.attributes
                0x000000000000379a       0x39 ../build/output/libraries/libexternal.a(netlib_setdnsserver.o)
 .ARM.attributes
                0x00000000000037d3       0x39 ../build/output/libraries/libexternal.a(dhcpd_lwip.o)
 .ARM.attributes
                0x000000000000380c       0x39 ../build/output/libraries/libexternal.a(dhcpc_lwip.o)
 .ARM.attributes
                0x0000000000003845       0x39 ../build/output/libraries/libproxies.a(PROXY_bind.o)
 .ARM.attributes
                0x000000000000387e       0x39 ../build/output/libraries/libproxies.a(PROXY_fs_ioctl.o)
 .ARM.attributes
                0x00000000000038b7       0x39 ../build/output/libraries/libproxies.a(PROXY_gettimeofday.o)
 .ARM.attributes
                0x00000000000038f0       0x39 ../build/output/libraries/libproxies.a(PROXY_mkfifo.o)
 .ARM.attributes
                0x0000000000003929       0x39 ../build/output/libraries/libproxies.a(PROXY_mq_getattr.o)
 .ARM.attributes
                0x0000000000003962       0x39 ../build/output/libraries/libproxies.a(PROXY_mq_timedreceive.o)
 .ARM.attributes
                0x000000000000399b       0x39 ../build/output/libraries/libproxies.a(PROXY_on_exit.o)
 .ARM.attributes
                0x00000000000039d4       0x39 ../build/output/libraries/libproxies.a(PROXY_pthread_create.o)
 .ARM.attributes
                0x0000000000003a0d       0x39 ../build/output/libraries/libproxies.a(PROXY_pthread_detach.o)
 .ARM.attributes
                0x0000000000003a46       0x39 ../build/output/libraries/libproxies.a(PROXY_pthread_join.o)
 .ARM.attributes
                0x0000000000003a7f       0x39 ../build/output/libraries/libproxies.a(PROXY_sched_lock.o)
 .ARM.attributes
                0x0000000000003ab8       0x39 ../build/output/libraries/libproxies.a(PROXY_sched_unlock.o)
 .ARM.attributes
                0x0000000000003af1       0x39 ../build/output/libraries/libproxies.a(PROXY_sem_destroy.o)
 .ARM.attributes
                0x0000000000003b2a       0x39 ../build/output/libraries/libproxies.a(PROXY_sem_trywait.o)
 .ARM.attributes
                0x0000000000003b63       0x39 ../build/output/libraries/libproxies.a(PROXY_setenv.o)
 .ARM.attributes
                0x0000000000003b9c       0x39 ../build/output/libraries/libproxies.a(PROXY_sigwaitinfo.o)
 .ARM.attributes
                0x0000000000003bd5       0x39 ../build/output/libraries/libuc.a(lib_lowsyslog.o)
 .ARM.attributes
                0x0000000000003c0e       0x39 ../build/output/libraries/libuc.a(pthread_attrinit.o)
 .ARM.attributes
                0x0000000000003c47       0x39 ../build/output/libraries/libuc.a(pthread_attrsetstacksize.o)
 .ARM.attributes
                0x0000000000003c80       0x39 ../build/output/libraries/libuc.a(pthread_attrsetschedparam.o)
 .ARM.attributes
                0x0000000000003cb9       0x39 ../build/output/libraries/libuc.a(sig_addset.o)
 .ARM.attributes
                0x0000000000003cf2       0x39 ../build/output/libraries/libuc.a(sig_emptyset.o)
 .ARM.attributes
                0x0000000000003d2b       0x39 ../build/output/libraries/libuc.a(dq_rem.o)
 .ARM.attributes
                0x0000000000003d64       0x39 ../build/output/libraries/libuc.a(lib_lowoutstream.o)
 .ARM.attributes
                0x0000000000003d9d       0x39 ../build/output/libraries/libumm.a(umm_calloc.o)
 .ARM.attributes
                0x0000000000003dd6       0x39 ../build/output/libraries/libumm.a(mm_calloc.o)

.debug_abbrev   0x0000000000000000    0x17ae5
 *(.debug_abbrev)
 .debug_abbrev  0x0000000000000000      0x128 /root/tizenrt/os/userspace/up_userspace_common.o
 .debug_abbrev  0x0000000000000128       0xc9 ../build/output/libraries/libproxies.a(PROXY_getpid.o)
 .debug_abbrev  0x00000000000001f1      0x21c ../build/output/libraries/libproxies.a(PROXY_sched_getstreams.o)
 .debug_abbrev  0x000000000000040d       0xfa ../build/output/libraries/libuc.a(lib_printf.o)
 .debug_abbrev  0x0000000000000507      0x21e ../build/output/libraries/libuc.a(lib_fgetc.o)
 .debug_abbrev  0x0000000000000725      0x26e ../build/output/libraries/libuc.a(lib_vfprintf.o)
 .debug_abbrev  0x0000000000000993      0x294 ../build/output/libraries/libuc.a(lib_stdoutstream.o)
 .debug_abbrev  0x0000000000000c27       0xc0 ../build/output/libraries/libuc.a(lib_libnoflush.o)
 .debug_abbrev  0x0000000000000ce7       0xf0 ../build/output/libraries/libuc.a(lib_sleep.o)
 .debug_abbrev  0x0000000000000dd7       0xff ../build/output/libraries/libuc.a(task_startup.o)
 .debug_abbrev  0x0000000000000ed6      0x117 ../build/output/libraries/libuc.a(pthread_startup.o)
 .debug_abbrev  0x0000000000000fed      0x244 ../build/output/libraries/libuc.a(lib_filesem.o)
 .debug_abbrev  0x0000000000001231      0x2a1 ../build/output/libraries/libuc.a(lib_libvsprintf.o)
 .debug_abbrev  0x00000000000014d2      0x26d ../build/output/libraries/libuc.a(lib_libfread.o)
 .debug_abbrev  0x000000000000173f      0x241 ../build/output/libraries/libuc.a(lib_libfflush.o)
 .debug_abbrev  0x0000000000001980      0x1fc ../build/output/libraries/libuc.a(lib_wrflush.o)
 .debug_abbrev  0x0000000000001b7c      0x23f ../build/output/libraries/libuc.a(lib_fputc.o)
 .debug_abbrev  0x0000000000001dbb       0xa3 ../build/output/libraries/libuc.a(lib_strnlen.o)
 .debug_abbrev  0x0000000000001e5e       0xdd ../build/output/libraries/libuc.a(sem_init.o)
 .debug_abbrev  0x0000000000001f3b      0x137 ../build/output/libraries/libuc.a(lib_dtoa_engine.o)
 .debug_abbrev  0x0000000000002072       0xc2 ../build/output/libraries/libuc.a(lib_ultoa_invert.o)
 .debug_abbrev  0x0000000000002134      0x283 ../build/output/libraries/libuc.a(lib_libfwrite.o)
 .debug_abbrev  0x00000000000023b7      0x241 ../build/output/libraries/libuc.a(lib_rdflush.o)
 .debug_abbrev  0x00000000000025f8       0x77 ../build/output/libraries/libuc.a(lib_dtoa_data.o)
 .debug_abbrev  0x000000000000266f      0x219 ../build/output/libraries/libuc.a(lib_fseek.o)
 .debug_abbrev  0x0000000000002888       0x14 ../build/output/libraries/libuarch.a(arm_signal_handler.o)
 .debug_abbrev  0x000000000000289c      0x171 ../build/output/libraries/libframework.a(binary_manager_notify.o)
 .debug_abbrev  0x0000000000002a0d      0x257 ../build/output/libraries/libframework.a(binary_manager_interface.o)
 .debug_abbrev  0x0000000000002c64       0xd1 ../build/output/libraries/libapps.a(init.o)
 .debug_abbrev  0x0000000000002d35      0x11c ../build/output/libraries/libapps.a(builtin_list.o)
 .debug_abbrev  0x0000000000002e51      0x49c ../build/output/libraries/libapps.a(tash_command.o)
 .debug_abbrev  0x00000000000032ed       0xd4 ../build/output/libraries/libapps.a(tash_sleep.o)
 .debug_abbrev  0x00000000000033c1      0x354 ../build/output/libraries/libapps.a(tash_main.o)
 .debug_abbrev  0x0000000000003715       0xec ../build/output/libraries/libapps.a(mem_leak_checker_main.o)
 .debug_abbrev  0x0000000000003801       0xff ../build/output/libraries/libapps.a(sysinfo.o)
 .debug_abbrev  0x0000000000003900       0xe9 ../build/output/libraries/libapps.a(systemcmd.o)
 .debug_abbrev  0x00000000000039e9      0x1c8 ../build/output/libraries/libapps.a(security_level_cmd.o)
 .debug_abbrev  0x0000000000003bb1      0x42a ../build/output/libraries/libapps.a(fscmd.o)
 .debug_abbrev  0x0000000000003fdb      0x3bf ../build/output/libraries/libapps.a(netcmd.o)
 .debug_abbrev  0x000000000000439a      0x3b7 ../build/output/libraries/libapps.a(netcmd_ping.o)
 .debug_abbrev  0x0000000000004751      0x1aa ../build/output/libraries/libapps.a(netcmd_netmon.o)
 .debug_abbrev  0x00000000000048fb      0x14b ../build/output/libraries/libapps.a(netcmd_dhcpd.o)
 .debug_abbrev  0x0000000000004a46      0x202 ../build/output/libraries/libapps.a(utils_date.o)
 .debug_abbrev  0x0000000000004c48      0x11b ../build/output/libraries/libapps.a(utils_free.o)
 .debug_abbrev  0x0000000000004d63      0x212 ../build/output/libraries/libapps.a(utils_heapinfo.o)
 .debug_abbrev  0x0000000000004f75       0xdf ../build/output/libraries/libapps.a(utils_prodconfig.o)
 .debug_abbrev  0x0000000000005054      0x1df ../build/output/libraries/libapps.a(utils_ps.o)
 .debug_abbrev  0x0000000000005233       0xed ../build/output/libraries/libapps.a(utils_uptime.o)
 .debug_abbrev  0x0000000000005320      0x202 ../build/output/libraries/libapps.a(utils_proc.o)
 .debug_abbrev  0x0000000000005522      0x42c ../build/output/libraries/libapps.a(helloxx_main.o)
 .debug_abbrev  0x000000000000594e       0x8f ../build/output/libraries/libapps.a(hello_main.o)
 .debug_abbrev  0x00000000000059dd       0x77 ../build/output/libraries/libapps.a(tash_init.o)
 .debug_abbrev  0x0000000000005a54      0x133 ../build/output/libraries/libapps.a(tash_pm.o)
 .debug_abbrev  0x0000000000005b87      0x15f ../build/output/libraries/libapps.a(netdb_main.o)
 .debug_abbrev  0x0000000000005ce6      0x10e ../build/output/libraries/libapps.a(fs_getpath.o)
 .debug_abbrev  0x0000000000005df4       0xea ../build/output/libraries/libproxies.a(PROXY_boardctl.o)
 .debug_abbrev  0x0000000000005ede       0xc7 ../build/output/libraries/libproxies.a(PROXY_clock.o)
 .debug_abbrev  0x0000000000005fa5      0x115 ../build/output/libraries/libproxies.a(PROXY_clock_gettime.o)
 .debug_abbrev  0x00000000000060ba      0x11c ../build/output/libraries/libproxies.a(PROXY_clock_settime.o)
 .debug_abbrev  0x00000000000061d6       0xec ../build/output/libraries/libproxies.a(PROXY_close.o)
 .debug_abbrev  0x00000000000062c2      0x102 ../build/output/libraries/libproxies.a(PROXY_closedir.o)
 .debug_abbrev  0x00000000000063c4       0xeb ../build/output/libraries/libproxies.a(PROXY_exit.o)
 .debug_abbrev  0x00000000000064af       0xc9 ../build/output/libraries/libproxies.a(PROXY_get_errno.o)
 .debug_abbrev  0x0000000000006578       0xfa ../build/output/libraries/libproxies.a(PROXY_getenv.o)
 .debug_abbrev  0x0000000000006672       0xe7 ../build/output/libraries/libproxies.a(PROXY_lseek.o)
 .debug_abbrev  0x0000000000006759       0xfa ../build/output/libraries/libproxies.a(PROXY_mkdir.o)
 .debug_abbrev  0x0000000000006853      0x10d ../build/output/libraries/libproxies.a(PROXY_mount.o)
 .debug_abbrev  0x0000000000006960       0xfc ../build/output/libraries/libproxies.a(PROXY_mq_close.o)
 .debug_abbrev  0x0000000000006a5c      0x163 ../build/output/libraries/libproxies.a(PROXY_mq_open.o)
 .debug_abbrev  0x0000000000006bbf       0xf7 ../build/output/libraries/libproxies.a(PROXY_mq_receive.o)
 .debug_abbrev  0x0000000000006cb6       0xfe ../build/output/libraries/libproxies.a(PROXY_mq_send.o)
 .debug_abbrev  0x0000000000006db4       0xfa ../build/output/libraries/libproxies.a(PROXY_mq_unlink.o)
 .debug_abbrev  0x0000000000006eae      0x11c ../build/output/libraries/libproxies.a(PROXY_nanosleep.o)
 .debug_abbrev  0x0000000000006fca      0x15c ../build/output/libraries/libproxies.a(PROXY_open.o)
 .debug_abbrev  0x0000000000007126      0x109 ../build/output/libraries/libproxies.a(PROXY_opendir.o)
 .debug_abbrev  0x000000000000722f      0x138 ../build/output/libraries/libproxies.a(PROXY_prctl.o)
 .debug_abbrev  0x0000000000007367       0xf2 ../build/output/libraries/libproxies.a(PROXY_pthread_exit.o)
 .debug_abbrev  0x0000000000007459      0x151 ../build/output/libraries/libproxies.a(PROXY_pthread_mutex_lock.o)
 .debug_abbrev  0x00000000000075aa      0x151 ../build/output/libraries/libproxies.a(PROXY_pthread_mutex_unlock.o)
 .debug_abbrev  0x00000000000076fb       0xee ../build/output/libraries/libproxies.a(PROXY_read.o)
 .debug_abbrev  0x00000000000077e9      0x136 ../build/output/libraries/libproxies.a(PROXY_readdir.o)
 .debug_abbrev  0x000000000000791f      0x13a ../build/output/libraries/libproxies.a(PROXY_recvfrom.o)
 .debug_abbrev  0x0000000000007a59       0xfa ../build/output/libraries/libproxies.a(PROXY_rename.o)
 .debug_abbrev  0x0000000000007b53       0xfc ../build/output/libraries/libproxies.a(PROXY_rmdir.o)
 .debug_abbrev  0x0000000000007c4f      0x133 ../build/output/libraries/libproxies.a(PROXY_select.o)
 .debug_abbrev  0x0000000000007d82      0x120 ../build/output/libraries/libproxies.a(PROXY_sem_post.o)
 .debug_abbrev  0x0000000000007ea2      0x120 ../build/output/libraries/libproxies.a(PROXY_sem_wait.o)
 .debug_abbrev  0x0000000000007fc2      0x13f ../build/output/libraries/libproxies.a(PROXY_sendto.o)
 .debug_abbrev  0x0000000000008101       0xea ../build/output/libraries/libproxies.a(PROXY_set_errno.o)
 .debug_abbrev  0x00000000000081eb      0x104 ../build/output/libraries/libproxies.a(PROXY_setsockopt.o)
 .debug_abbrev  0x00000000000082ef       0xe5 ../build/output/libraries/libproxies.a(PROXY_socket.o)
 .debug_abbrev  0x00000000000083d4      0x11c ../build/output/libraries/libproxies.a(PROXY_stat.o)
 .debug_abbrev  0x00000000000084f0      0x11e ../build/output/libraries/libproxies.a(PROXY_statfs.o)
 .debug_abbrev  0x000000000000860e      0x118 ../build/output/libraries/libproxies.a(PROXY_task_create.o)
 .debug_abbrev  0x0000000000008726       0xfc ../build/output/libraries/libproxies.a(PROXY_umount.o)
 .debug_abbrev  0x0000000000008822       0xfc ../build/output/libraries/libproxies.a(PROXY_unlink.o)
 .debug_abbrev  0x000000000000891e       0xfa ../build/output/libraries/libproxies.a(PROXY_up_assert.o)
 .debug_abbrev  0x0000000000008a18       0xf5 ../build/output/libraries/libproxies.a(PROXY_write.o)
 .debug_abbrev  0x0000000000008b0d      0x16f ../build/output/libraries/libuc.a(lib_sprintf.o)
 .debug_abbrev  0x0000000000008c7c      0x110 ../build/output/libraries/libuc.a(lib_asprintf.o)
 .debug_abbrev  0x0000000000008d8c      0x1a4 ../build/output/libraries/libuc.a(lib_snprintf.o)
 .debug_abbrev  0x0000000000008f30      0x17a ../build/output/libraries/libuc.a(lib_vasprintf.o)
 .debug_abbrev  0x00000000000090aa      0x13d ../build/output/libraries/libuc.a(lib_memoutstream.o)
 .debug_abbrev  0x00000000000091e7      0x129 ../build/output/libraries/libuc.a(lib_nulloutstream.o)
 .debug_abbrev  0x0000000000009310      0x232 ../build/output/libraries/libuc.a(lib_fwrite.o)
 .debug_abbrev  0x0000000000009542      0x264 ../build/output/libraries/libuc.a(lib_fputs.o)
 .debug_abbrev  0x00000000000097a6      0x250 ../build/output/libraries/libuc.a(lib_fprintf.o)
 .debug_abbrev  0x00000000000099f6       0xb5 ../build/output/libraries/libuc.a(lib_perror.o)
 .debug_abbrev  0x0000000000009aab       0x73 ../build/output/libraries/libuc.a(lib_abort.o)
 .debug_abbrev  0x0000000000009b1e       0xd3 ../build/output/libraries/libuc.a(lib_strtol.o)
 .debug_abbrev  0x0000000000009bf1       0xdb ../build/output/libraries/libuc.a(lib_strtoul.o)
 .debug_abbrev  0x0000000000009ccc       0xaa ../build/output/libraries/libuc.a(lib_checkbase.o)
 .debug_abbrev  0x0000000000009d76       0xd2 ../build/output/libraries/libuc.a(lib_getopt.o)
 .debug_abbrev  0x0000000000009e48      0x13e ../build/output/libraries/libuc.a(lib_chdir.o)
 .debug_abbrev  0x0000000000009f86       0xeb ../build/output/libraries/libuc.a(lib_usleep.o)
 .debug_abbrev  0x000000000000a071      0x249 ../build/output/libraries/libuc.a(lib_syslog.o)
 .debug_abbrev  0x000000000000a2ba       0x9f ../build/output/libraries/libuc.a(lib_setlogmask.o)
 .debug_abbrev  0x000000000000a359       0x9e ../build/output/libraries/libuc.a(lib_isbasedigit.o)
 .debug_abbrev  0x000000000000a3f7       0xa4 ../build/output/libraries/libuc.a(lib_memset.o)
 .debug_abbrev  0x000000000000a49b       0x8d ../build/output/libraries/libuc.a(lib_memcmp.o)
 .debug_abbrev  0x000000000000a528       0xb9 ../build/output/libraries/libuc.a(lib_memmove.o)
 .debug_abbrev  0x000000000000a5e1       0xbf ../build/output/libraries/libuc.a(lib_skipspace.o)
 .debug_abbrev  0x000000000000a6a0       0x7d ../build/output/libraries/libuc.a(lib_strchr.o)
 .debug_abbrev  0x000000000000a71d       0x80 ../build/output/libraries/libuc.a(lib_strcmp.o)
 .debug_abbrev  0x000000000000a79d       0xf6 ../build/output/libraries/libuc.a(lib_strdup.o)
 .debug_abbrev  0x000000000000a893       0xe3 ../build/output/libraries/libuc.a(lib_strerror.o)
 .debug_abbrev  0x000000000000a976       0x8f ../build/output/libraries/libuc.a(lib_strlen.o)
 .debug_abbrev  0x000000000000aa05       0xe7 ../build/output/libraries/libuc.a(lib_strncasecmp.o)
 .debug_abbrev  0x000000000000aaec       0x8f ../build/output/libraries/libuc.a(lib_strncmp.o)
 .debug_abbrev  0x000000000000ab7b       0xa3 ../build/output/libraries/libuc.a(lib_strncpy.o)
 .debug_abbrev  0x000000000000ac1e       0xea ../build/output/libraries/libuc.a(lib_strstr.o)
 .debug_abbrev  0x000000000000ad08       0xcb ../build/output/libraries/libuc.a(lib_strtokr.o)
 .debug_abbrev  0x000000000000add3       0xe3 ../build/output/libraries/libuc.a(lib_vikmemcpy.o)
 .debug_abbrev  0x000000000000aeb6       0xea ../build/output/libraries/libuc.a(lib_etherntoa.o)
 .debug_abbrev  0x000000000000afa0       0xca ../build/output/libraries/libuc.a(lib_inetaddr.o)
 .debug_abbrev  0x000000000000b06a       0xf7 ../build/output/libraries/libuc.a(lib_inetntoa.o)
 .debug_abbrev  0x000000000000b161      0x1f4 ../build/output/libraries/libuc.a(lib_inetntop.o)
 .debug_abbrev  0x000000000000b355      0x181 ../build/output/libraries/libuc.a(lib_inetpton.o)
 .debug_abbrev  0x000000000000b4d6      0x1c1 ../build/output/libraries/libuc.a(lib_freeaddrinfo.o)
 .debug_abbrev  0x000000000000b697      0x1c7 ../build/output/libraries/libuc.a(lib_getaddrinfo.o)
 .debug_abbrev  0x000000000000b85e      0x1cf ../build/output/libraries/libuc.a(lib_gethostbyname.o)
 .debug_abbrev  0x000000000000ba2d      0x179 ../build/output/libraries/libuc.a(lib_strftime.o)
 .debug_abbrev  0x000000000000bba6       0xb8 ../build/output/libraries/libuc.a(lib_daysbeforemonth.o)
 .debug_abbrev  0x000000000000bc5e       0x5a ../build/output/libraries/libuc.a(lib_isleapyear.o)
 .debug_abbrev  0x000000000000bcb8       0xe5 ../build/output/libraries/libuc.a(lib_time.o)
 .debug_abbrev  0x000000000000bd9d      0x4dc ../build/output/libraries/libuc.a(lib_localtime.o)
 .debug_abbrev  0x000000000000c279       0xe2 ../build/output/libraries/libuc.a(lib_dirname.o)
 .debug_abbrev  0x000000000000c35b       0xee ../build/output/libraries/libuc.a(lib_ioctl.o)
 .debug_abbrev  0x000000000000c449      0x301 ../build/output/libraries/libuc.a(lib_sscanf.o)
 .debug_abbrev  0x000000000000c74a      0x18a ../build/output/libraries/libuc.a(lib_rawoutstream.o)
 .debug_abbrev  0x000000000000c8d4       0xd3 ../build/output/libraries/libuc.a(lib_strtoll.o)
 .debug_abbrev  0x000000000000c9a7       0xdb ../build/output/libraries/libuc.a(lib_strtoull.o)
 .debug_abbrev  0x000000000000ca82      0x15f ../build/output/libraries/libuc.a(lib_strtod.o)
 .debug_abbrev  0x000000000000cbe1      0x16e ../build/output/libraries/libuc.a(lib_strtof.o)
 .debug_abbrev  0x000000000000cd4f       0x7d ../build/output/libraries/libuc.a(lib_access.o)
 .debug_abbrev  0x000000000000cdcc       0xcd ../build/output/libraries/libuc.a(lib_strcspn.o)
 .debug_abbrev  0x000000000000ce99       0xcd ../build/output/libraries/libuc.a(lib_strncat.o)
 .debug_abbrev  0x000000000000cf66       0xa7 ../build/output/libraries/libuc.a(lib_strrchr.o)
 .debug_abbrev  0x000000000000d00d       0x8f ../build/output/libraries/libuc.a(lib_htons.o)
 .debug_abbrev  0x000000000000d09c      0x297 ../build/output/libraries/libumm.a(mm_heapinfo_utils.o)
 .debug_abbrev  0x000000000000d333      0x21b ../build/output/libraries/libumm.a(umm_free.o)
 .debug_abbrev  0x000000000000d54e      0x241 ../build/output/libraries/libumm.a(umm_malloc.o)
 .debug_abbrev  0x000000000000d78f      0x241 ../build/output/libraries/libumm.a(umm_realloc.o)
 .debug_abbrev  0x000000000000d9d0      0x241 ../build/output/libraries/libumm.a(umm_zalloc.o)
 .debug_abbrev  0x000000000000dc11      0x2f1 ../build/output/libraries/libumm.a(mm_sem.o)
 .debug_abbrev  0x000000000000df02      0x29a ../build/output/libraries/libumm.a(mm_free.o)
 .debug_abbrev  0x000000000000e19c      0x27d ../build/output/libraries/libumm.a(mm_malloc.o)
 .debug_abbrev  0x000000000000e419      0x265 ../build/output/libraries/libumm.a(mm_realloc.o)
 .debug_abbrev  0x000000000000e67e      0x21a ../build/output/libraries/libumm.a(mm_zalloc.o)
 .debug_abbrev  0x000000000000e898      0x25d ../build/output/libraries/libumm.a(mm_getheap.o)
 .debug_abbrev  0x000000000000eaf5      0x144 ../build/output/libraries/libumm.a(mm_manage_allocfail.o)
 .debug_abbrev  0x000000000000ec39      0x175 ../build/output/libraries/libumm.a(mm_heap_dbg.o)
 .debug_abbrev  0x000000000000edae      0x218 ../build/output/libraries/libumm.a(umm_initialize.o)
 .debug_abbrev  0x000000000000efc6      0x22e ../build/output/libraries/libumm.a(mm_initialize.o)
 .debug_abbrev  0x000000000000f1f4      0x213 ../build/output/libraries/libumm.a(mm_addfreechunk.o)
 .debug_abbrev  0x000000000000f407       0x91 ../build/output/libraries/libumm.a(mm_size2ndx.o)
 .debug_abbrev  0x000000000000f498      0x23e ../build/output/libraries/libumm.a(mm_shrinkchunk.o)
 .debug_abbrev  0x000000000000f6d6      0x2c7 ../build/output/libraries/libuwque.a(uwork_thread.o)
 .debug_abbrev  0x000000000000f99d      0x1db ../build/output/libraries/libuwque.a(work_process.o)
 .debug_abbrev  0x000000000000fb78      0x125 ../build/output/libraries/libuwque.a(uwork_lock.o)
 .debug_abbrev  0x000000000000fc9d      0x322 ../build/output/libraries/libframework.a(wifi_manager_msghandler.o)
 .debug_abbrev  0x000000000000ffbf      0x16a ../build/output/libraries/libframework.a(security_common.o)
 .debug_abbrev  0x0000000000010129      0x1d6 ../build/output/libraries/libframework.a(security_utils.o)
 .debug_abbrev  0x00000000000102ff      0x1b8 ../build/output/libraries/libframework.a(security_ss.o)
 .debug_abbrev  0x00000000000104b7      0x377 ../build/output/libraries/libframework.a(ble_manager_msghandler.o)
 .debug_abbrev  0x000000000001082e      0x300 ../build/output/libraries/libframework.a(seclink.o)
 .debug_abbrev  0x0000000000010b2e      0x363 ../build/output/libraries/libframework.a(wifi_manager_message.o)
 .debug_abbrev  0x0000000000010e91      0x5a4 ../build/output/libraries/libframework.a(wifi_manager_state.o)
 .debug_abbrev  0x0000000000011435      0x146 ../build/output/libraries/libframework.a(wifi_manager_stats.o)
 .debug_abbrev  0x000000000001157b       0xb3 ../build/output/libraries/libframework.a(wifi_manager_event.o)
 .debug_abbrev  0x000000000001162e      0x10d ../build/output/libraries/libframework.a(wifi_manager_utils.o)
 .debug_abbrev  0x000000000001173b      0x158 ../build/output/libraries/libframework.a(wifi_manager_info.o)
 .debug_abbrev  0x0000000000011893      0x15d ../build/output/libraries/libframework.a(wifi_manager_dhcpc.o)
 .debug_abbrev  0x00000000000119f0      0x3b1 ../build/output/libraries/libframework.a(wifi_manager_dhcps.o)
 .debug_abbrev  0x0000000000011da1      0x1fd ../build/output/libraries/libframework.a(wifi_manager_lwnl.o)
 .debug_abbrev  0x0000000000011f9e      0x3c3 ../build/output/libraries/libframework.a(wifi_manager_lwnl_listener.o)
 .debug_abbrev  0x0000000000012361      0x35a ../build/output/libraries/libframework.a(ble_manager_message.o)
 .debug_abbrev  0x00000000000126bb      0x37e ../build/output/libraries/libframework.a(wifi_manager_cb.o)
 .debug_abbrev  0x0000000000012a39      0x353 ../build/output/libraries/libframework.a(ble_manager_lwnl_listener.o)
 .debug_abbrev  0x0000000000012d8c      0x4b6 ../build/output/libraries/libframework.a(ble_manager_state.o)
 .debug_abbrev  0x0000000000013242      0x3c3 ../build/output/libraries/libframework.a(ble_manager_autoconnect.o)
 .debug_abbrev  0x0000000000013605      0x258 ../build/output/libraries/libframework.a(ble_queue.o)
 .debug_abbrev  0x000000000001385d      0x310 ../build/output/libraries/libframework.a(ble_manager_api.o)
 .debug_abbrev  0x0000000000013b6d      0x368 ../build/output/libraries/libframework.a(ble_manager_lwnl.o)
 .debug_abbrev  0x0000000000013ed5       0x2a ../build/output/libraries/libcxx.a(libxx_newlib_impure.o)
 .debug_abbrev  0x0000000000013eff      0x2a3 ../build/output/libraries/libcxx.a(libxx_cxa_atexit.o)
 .debug_abbrev  0x00000000000141a2       0xed ../build/output/libraries/libexternal.a(netlib.o)
 .debug_abbrev  0x000000000001428f      0x17c ../build/output/libraries/libexternal.a(netlib_setifstatus.o)
 .debug_abbrev  0x000000000001440b      0x17c ../build/output/libraries/libexternal.a(netlib_getifstatus.o)
 .debug_abbrev  0x0000000000014587      0x1fa ../build/output/libraries/libexternal.a(netlib_getifaddrs.o)
 .debug_abbrev  0x0000000000014781      0x1ad ../build/output/libraries/libexternal.a(netlib_getstats.o)
 .debug_abbrev  0x000000000001492e      0x1bb ../build/output/libraries/libexternal.a(netlib_netmon.o)
 .debug_abbrev  0x0000000000014ae9      0x17c ../build/output/libraries/libexternal.a(netlib_setipv4addr.o)
 .debug_abbrev  0x0000000000014c65      0x183 ../build/output/libraries/libexternal.a(netlib_getipv4addr.o)
 .debug_abbrev  0x0000000000014de8      0x17c ../build/output/libraries/libexternal.a(netlib_setdripv4addr.o)
 .debug_abbrev  0x0000000000014f64      0x17c ../build/output/libraries/libexternal.a(netlib_setipv4netmask.o)
 .debug_abbrev  0x00000000000150e0      0x18b ../build/output/libraries/libexternal.a(netlib_setipv6addr.o)
 .debug_abbrev  0x000000000001526b      0x1b7 ../build/output/libraries/libexternal.a(netlib_setmacaddr.o)
 .debug_abbrev  0x0000000000015422      0x173 ../build/output/libraries/libexternal.a(netlib_getmacaddr.o)
 .debug_abbrev  0x0000000000015595      0x1a6 ../build/output/libraries/libexternal.a(netlib_setdnsserver.o)
 .debug_abbrev  0x000000000001573b      0x426 ../build/output/libraries/libexternal.a(dhcpd_lwip.o)
 .debug_abbrev  0x0000000000015b61      0x1df ../build/output/libraries/libexternal.a(dhcpc_lwip.o)
 .debug_abbrev  0x0000000000015d40      0x129 ../build/output/libraries/libproxies.a(PROXY_bind.o)
 .debug_abbrev  0x0000000000015e69       0xe5 ../build/output/libraries/libproxies.a(PROXY_fs_ioctl.o)
 .debug_abbrev  0x0000000000015f4e      0x115 ../build/output/libraries/libproxies.a(PROXY_gettimeofday.o)
 .debug_abbrev  0x0000000000016063       0xfa ../build/output/libraries/libproxies.a(PROXY_mkfifo.o)
 .debug_abbrev  0x000000000001615d      0x11e ../build/output/libraries/libproxies.a(PROXY_mq_getattr.o)
 .debug_abbrev  0x000000000001627b      0x131 ../build/output/libraries/libproxies.a(PROXY_mq_timedreceive.o)
 .debug_abbrev  0x00000000000163ac      0x10a ../build/output/libraries/libproxies.a(PROXY_on_exit.o)
 .debug_abbrev  0x00000000000164b6      0x149 ../build/output/libraries/libproxies.a(PROXY_pthread_create.o)
 .debug_abbrev  0x00000000000165ff       0xea ../build/output/libraries/libproxies.a(PROXY_pthread_detach.o)
 .debug_abbrev  0x00000000000166e9       0xfa ../build/output/libraries/libproxies.a(PROXY_pthread_join.o)
 .debug_abbrev  0x00000000000167e3       0xc7 ../build/output/libraries/libproxies.a(PROXY_sched_lock.o)
 .debug_abbrev  0x00000000000168aa       0xc7 ../build/output/libraries/libproxies.a(PROXY_sched_unlock.o)
 .debug_abbrev  0x0000000000016971      0x120 ../build/output/libraries/libproxies.a(PROXY_sem_destroy.o)
 .debug_abbrev  0x0000000000016a91      0x120 ../build/output/libraries/libproxies.a(PROXY_sem_trywait.o)
 .debug_abbrev  0x0000000000016bb1       0xf5 ../build/output/libraries/libproxies.a(PROXY_setenv.o)
 .debug_abbrev  0x0000000000016ca6      0x143 ../build/output/libraries/libproxies.a(PROXY_sigwaitinfo.o)
 .debug_abbrev  0x0000000000016de9      0x208 ../build/output/libraries/libuc.a(lib_lowsyslog.o)
 .debug_abbrev  0x0000000000016ff1      0x126 ../build/output/libraries/libuc.a(pthread_attrinit.o)
 .debug_abbrev  0x0000000000017117       0xea ../build/output/libraries/libuc.a(pthread_attrsetstacksize.o)
 .debug_abbrev  0x0000000000017201      0x113 ../build/output/libraries/libuc.a(pthread_attrsetschedparam.o)
 .debug_abbrev  0x0000000000017314       0xab ../build/output/libraries/libuc.a(sig_addset.o)
 .debug_abbrev  0x00000000000173bf       0x83 ../build/output/libraries/libuc.a(sig_emptyset.o)
 .debug_abbrev  0x0000000000017442       0xb6 ../build/output/libraries/libuc.a(dq_rem.o)
 .debug_abbrev  0x00000000000174f8      0x177 ../build/output/libraries/libuc.a(lib_lowoutstream.o)
 .debug_abbrev  0x000000000001766f      0x255 ../build/output/libraries/libumm.a(umm_calloc.o)
 .debug_abbrev  0x00000000000178c4      0x221 ../build/output/libraries/libumm.a(mm_calloc.o)

.debug_info     0x0000000000000000    0x7f738
 *(.debug_info)
 .debug_info    0x0000000000000000      0x47e /root/tizenrt/os/userspace/up_userspace_common.o
 .debug_info    0x000000000000047e      0x136 ../build/output/libraries/libproxies.a(PROXY_getpid.o)
 .debug_info    0x00000000000005b4     0x151d ../build/output/libraries/libproxies.a(PROXY_sched_getstreams.o)
 .debug_info    0x0000000000001ad1      0x139 ../build/output/libraries/libuc.a(lib_printf.o)
 .debug_info    0x0000000000001c0a     0x1522 ../build/output/libraries/libuc.a(lib_fgetc.o)
 .debug_info    0x000000000000312c     0x1679 ../build/output/libraries/libuc.a(lib_vfprintf.o)
 .debug_info    0x00000000000047a5     0x16ac ../build/output/libraries/libuc.a(lib_stdoutstream.o)
 .debug_info    0x0000000000005e51      0x132 ../build/output/libraries/libuc.a(lib_libnoflush.o)
 .debug_info    0x0000000000005f83      0x16c ../build/output/libraries/libuc.a(lib_sleep.o)
 .debug_info    0x00000000000060ef      0x18f ../build/output/libraries/libuc.a(task_startup.o)
 .debug_info    0x000000000000627e      0x173 ../build/output/libraries/libuc.a(pthread_startup.o)
 .debug_info    0x00000000000063f1     0x1637 ../build/output/libraries/libuc.a(lib_filesem.o)
 .debug_info    0x0000000000007a28      0x8fa ../build/output/libraries/libuc.a(lib_libvsprintf.o)
 .debug_info    0x0000000000008322     0x164d ../build/output/libraries/libuc.a(lib_libfread.o)
 .debug_info    0x000000000000996f     0x15cc ../build/output/libraries/libuc.a(lib_libfflush.o)
 .debug_info    0x000000000000af3b     0x14f9 ../build/output/libraries/libuc.a(lib_wrflush.o)
 .debug_info    0x000000000000c434     0x1559 ../build/output/libraries/libuc.a(lib_fputc.o)
 .debug_info    0x000000000000d98d      0x104 ../build/output/libraries/libuc.a(lib_strnlen.o)
 .debug_info    0x000000000000da91      0x1c4 ../build/output/libraries/libuc.a(sem_init.o)
 .debug_info    0x000000000000dc55      0x271 ../build/output/libraries/libuc.a(lib_dtoa_engine.o)
 .debug_info    0x000000000000dec6       0xda ../build/output/libraries/libuc.a(lib_ultoa_invert.o)
 .debug_info    0x000000000000dfa0     0x163c ../build/output/libraries/libuc.a(lib_libfwrite.o)
 .debug_info    0x000000000000f5dc     0x157c ../build/output/libraries/libuc.a(lib_rdflush.o)
 .debug_info    0x0000000000010b58      0x11e ../build/output/libraries/libuc.a(lib_dtoa_data.o)
 .debug_info    0x0000000000010c76     0x1563 ../build/output/libraries/libuc.a(lib_fseek.o)
 .debug_info    0x00000000000121d9       0x26 ../build/output/libraries/libuarch.a(arm_signal_handler.o)
 .debug_info    0x00000000000121ff      0x314 ../build/output/libraries/libframework.a(binary_manager_notify.o)
 .debug_info    0x0000000000012513      0xfee ../build/output/libraries/libframework.a(binary_manager_interface.o)
 .debug_info    0x0000000000013501      0x208 ../build/output/libraries/libapps.a(init.o)
 .debug_info    0x0000000000013709      0x1c4 ../build/output/libraries/libapps.a(builtin_list.o)
 .debug_info    0x00000000000138cd     0x25b9 ../build/output/libraries/libapps.a(tash_command.o)
 .debug_info    0x0000000000015e86      0x135 ../build/output/libraries/libapps.a(tash_sleep.o)
 .debug_info    0x0000000000015fbb      0xb5d ../build/output/libraries/libapps.a(tash_main.o)
 .debug_info    0x0000000000016b18      0x1e2 ../build/output/libraries/libapps.a(mem_leak_checker_main.o)
 .debug_info    0x0000000000016cfa      0x2b6 ../build/output/libraries/libapps.a(sysinfo.o)
 .debug_info    0x0000000000016fb0      0x16b ../build/output/libraries/libapps.a(systemcmd.o)
 .debug_info    0x000000000001711b      0x69d ../build/output/libraries/libapps.a(security_level_cmd.o)
 .debug_info    0x00000000000177b8     0x295f ../build/output/libraries/libapps.a(fscmd.o)
 .debug_info    0x000000000001a117     0x1905 ../build/output/libraries/libapps.a(netcmd.o)
 .debug_info    0x000000000001ba1c     0x1605 ../build/output/libraries/libapps.a(netcmd_ping.o)
 .debug_info    0x000000000001d021      0x525 ../build/output/libraries/libapps.a(netcmd_netmon.o)
 .debug_info    0x000000000001d546      0x48e ../build/output/libraries/libapps.a(netcmd_dhcpd.o)
 .debug_info    0x000000000001d9d4      0x88f ../build/output/libraries/libapps.a(utils_date.o)
 .debug_info    0x000000000001e263      0x268 ../build/output/libraries/libapps.a(utils_free.o)
 .debug_info    0x000000000001e4cb      0x9fb ../build/output/libraries/libapps.a(utils_heapinfo.o)
 .debug_info    0x000000000001eec6      0x1b1 ../build/output/libraries/libapps.a(utils_prodconfig.o)
 .debug_info    0x000000000001f077      0x5a0 ../build/output/libraries/libapps.a(utils_ps.o)
 .debug_info    0x000000000001f617      0x16c ../build/output/libraries/libapps.a(utils_uptime.o)
 .debug_info    0x000000000001f783      0x4de ../build/output/libraries/libapps.a(utils_proc.o)
 .debug_info    0x000000000001fc61     0x1ee7 ../build/output/libraries/libapps.a(helloxx_main.o)
 .debug_info    0x0000000000021b48       0xf7 ../build/output/libraries/libapps.a(hello_main.o)
 .debug_info    0x0000000000021c3f       0xc5 ../build/output/libraries/libapps.a(tash_init.o)
 .debug_info    0x0000000000021d04      0x268 ../build/output/libraries/libapps.a(tash_pm.o)
 .debug_info    0x0000000000021f6c      0x3b7 ../build/output/libraries/libapps.a(netdb_main.o)
 .debug_info    0x0000000000022323      0x32b ../build/output/libraries/libapps.a(fs_getpath.o)
 .debug_info    0x000000000002264e      0x18e ../build/output/libraries/libproxies.a(PROXY_boardctl.o)
 .debug_info    0x00000000000227dc      0x134 ../build/output/libraries/libproxies.a(PROXY_clock.o)
 .debug_info    0x0000000000022910      0x204 ../build/output/libraries/libproxies.a(PROXY_clock_gettime.o)
 .debug_info    0x0000000000022b14      0x209 ../build/output/libraries/libproxies.a(PROXY_clock_settime.o)
 .debug_info    0x0000000000022d1d      0x153 ../build/output/libraries/libproxies.a(PROXY_close.o)
 .debug_info    0x0000000000022e70      0x160 ../build/output/libraries/libproxies.a(PROXY_closedir.o)
 .debug_info    0x0000000000022fd0      0x14b ../build/output/libraries/libproxies.a(PROXY_exit.o)
 .debug_info    0x000000000002311b       0xf7 ../build/output/libraries/libproxies.a(PROXY_get_errno.o)
 .debug_info    0x0000000000023212      0x15f ../build/output/libraries/libproxies.a(PROXY_getenv.o)
 .debug_info    0x0000000000023371      0x1f6 ../build/output/libraries/libproxies.a(PROXY_lseek.o)
 .debug_info    0x0000000000023567      0x1a5 ../build/output/libraries/libproxies.a(PROXY_mkdir.o)
 .debug_info    0x000000000002370c      0x255 ../build/output/libraries/libproxies.a(PROXY_mount.o)
 .debug_info    0x0000000000023961      0x165 ../build/output/libraries/libproxies.a(PROXY_mq_close.o)
 .debug_info    0x0000000000023ac6      0x2ae ../build/output/libraries/libproxies.a(PROXY_mq_open.o)
 .debug_info    0x0000000000023d74      0x282 ../build/output/libraries/libproxies.a(PROXY_mq_receive.o)
 .debug_info    0x0000000000023ff6      0x25d ../build/output/libraries/libproxies.a(PROXY_mq_send.o)
 .debug_info    0x0000000000024253      0x159 ../build/output/libraries/libproxies.a(PROXY_mq_unlink.o)
 .debug_info    0x00000000000243ac      0x1ec ../build/output/libraries/libproxies.a(PROXY_nanosleep.o)
 .debug_info    0x0000000000024598      0x29b ../build/output/libraries/libproxies.a(PROXY_open.o)
 .debug_info    0x0000000000024833      0x16b ../build/output/libraries/libproxies.a(PROXY_opendir.o)
 .debug_info    0x000000000002499e      0x264 ../build/output/libraries/libproxies.a(PROXY_prctl.o)
 .debug_info    0x0000000000024c02      0x15a ../build/output/libraries/libproxies.a(PROXY_pthread_exit.o)
 .debug_info    0x0000000000024d5c      0x273 ../build/output/libraries/libproxies.a(PROXY_pthread_mutex_lock.o)
 .debug_info    0x0000000000024fcf      0x273 ../build/output/libraries/libproxies.a(PROXY_pthread_mutex_unlock.o)
 .debug_info    0x0000000000025242      0x21b ../build/output/libraries/libproxies.a(PROXY_read.o)
 .debug_info    0x000000000002545d      0x1b6 ../build/output/libraries/libproxies.a(PROXY_readdir.o)
 .debug_info    0x0000000000025613      0x346 ../build/output/libraries/libproxies.a(PROXY_recvfrom.o)
 .debug_info    0x0000000000025959      0x19a ../build/output/libraries/libproxies.a(PROXY_rename.o)
 .debug_info    0x0000000000025af3      0x15e ../build/output/libraries/libproxies.a(PROXY_rmdir.o)
 .debug_info    0x0000000000025c51      0x2fb ../build/output/libraries/libproxies.a(PROXY_select.o)
 .debug_info    0x0000000000025f4c      0x206 ../build/output/libraries/libproxies.a(PROXY_sem_post.o)
 .debug_info    0x0000000000026152      0x206 ../build/output/libraries/libproxies.a(PROXY_sem_wait.o)
 .debug_info    0x0000000000026358      0x349 ../build/output/libraries/libproxies.a(PROXY_sendto.o)
 .debug_info    0x00000000000266a1      0x133 ../build/output/libraries/libproxies.a(PROXY_set_errno.o)
 .debug_info    0x00000000000267d4      0x269 ../build/output/libraries/libproxies.a(PROXY_setsockopt.o)
 .debug_info    0x0000000000026a3d      0x1cc ../build/output/libraries/libproxies.a(PROXY_socket.o)
 .debug_info    0x0000000000026c09      0x28e ../build/output/libraries/libproxies.a(PROXY_stat.o)
 .debug_info    0x0000000000026e97      0x262 ../build/output/libraries/libproxies.a(PROXY_statfs.o)
 .debug_info    0x00000000000270f9      0x29e ../build/output/libraries/libproxies.a(PROXY_task_create.o)
 .debug_info    0x0000000000027397      0x141 ../build/output/libraries/libproxies.a(PROXY_umount.o)
 .debug_info    0x00000000000274d8      0x15e ../build/output/libraries/libproxies.a(PROXY_unlink.o)
 .debug_info    0x0000000000027636      0x195 ../build/output/libraries/libproxies.a(PROXY_up_assert.o)
 .debug_info    0x00000000000277cb      0x220 ../build/output/libraries/libproxies.a(PROXY_write.o)
 .debug_info    0x00000000000279eb      0x260 ../build/output/libraries/libuc.a(lib_sprintf.o)
 .debug_info    0x0000000000027c4b      0x171 ../build/output/libraries/libuc.a(lib_asprintf.o)
 .debug_info    0x0000000000027dbc      0x2c6 ../build/output/libraries/libuc.a(lib_snprintf.o)
 .debug_info    0x0000000000028082      0x364 ../build/output/libraries/libuc.a(lib_vasprintf.o)
 .debug_info    0x00000000000283e6      0x242 ../build/output/libraries/libuc.a(lib_memoutstream.o)
 .debug_info    0x0000000000028628      0x1a7 ../build/output/libraries/libuc.a(lib_nulloutstream.o)
 .debug_info    0x00000000000287cf     0x1577 ../build/output/libraries/libuc.a(lib_fwrite.o)
 .debug_info    0x0000000000029d46     0x159a ../build/output/libraries/libuc.a(lib_fputs.o)
 .debug_info    0x000000000002b2e0     0x1556 ../build/output/libraries/libuc.a(lib_fprintf.o)
 .debug_info    0x000000000002c836      0x125 ../build/output/libraries/libuc.a(lib_perror.o)
 .debug_info    0x000000000002c95b       0xbc ../build/output/libraries/libuc.a(lib_abort.o)
 .debug_info    0x000000000002ca17      0x1b6 ../build/output/libraries/libuc.a(lib_strtol.o)
 .debug_info    0x000000000002cbcd      0x1ca ../build/output/libraries/libuc.a(lib_strtoul.o)
 .debug_info    0x000000000002cd97      0x112 ../build/output/libraries/libuc.a(lib_checkbase.o)
 .debug_info    0x000000000002cea9      0x1a1 ../build/output/libraries/libuc.a(lib_getopt.o)
 .debug_info    0x000000000002d04a      0x334 ../build/output/libraries/libuc.a(lib_chdir.o)
 .debug_info    0x000000000002d37e      0x169 ../build/output/libraries/libuc.a(lib_usleep.o)
 .debug_info    0x000000000002d4e7      0x3a2 ../build/output/libraries/libuc.a(lib_syslog.o)
 .debug_info    0x000000000002d889       0xf3 ../build/output/libraries/libuc.a(lib_setlogmask.o)
 .debug_info    0x000000000002d97c      0x106 ../build/output/libraries/libuc.a(lib_isbasedigit.o)
 .debug_info    0x000000000002da82      0x16e ../build/output/libraries/libuc.a(lib_memset.o)
 .debug_info    0x000000000002dbf0      0x12c ../build/output/libraries/libuc.a(lib_memcmp.o)
 .debug_info    0x000000000002dd1c      0x12c ../build/output/libraries/libuc.a(lib_memmove.o)
 .debug_info    0x000000000002de48      0x10d ../build/output/libraries/libuc.a(lib_skipspace.o)
 .debug_info    0x000000000002df55       0xcb ../build/output/libraries/libuc.a(lib_strchr.o)
 .debug_info    0x000000000002e020       0xe1 ../build/output/libraries/libuc.a(lib_strcmp.o)
 .debug_info    0x000000000002e101      0x1ac ../build/output/libraries/libuc.a(lib_strdup.o)
 .debug_info    0x000000000002e2ad      0x163 ../build/output/libraries/libuc.a(lib_strerror.o)
 .debug_info    0x000000000002e410       0xf0 ../build/output/libraries/libuc.a(lib_strlen.o)
 .debug_info    0x000000000002e500      0x174 ../build/output/libraries/libuc.a(lib_strncasecmp.o)
 .debug_info    0x000000000002e674      0x118 ../build/output/libraries/libuc.a(lib_strncmp.o)
 .debug_info    0x000000000002e78c      0x133 ../build/output/libraries/libuc.a(lib_strncpy.o)
 .debug_info    0x000000000002e8bf      0x187 ../build/output/libraries/libuc.a(lib_strstr.o)
 .debug_info    0x000000000002ea46      0x148 ../build/output/libraries/libuc.a(lib_strtokr.o)
 .debug_info    0x000000000002eb8e      0x319 ../build/output/libraries/libuc.a(lib_vikmemcpy.o)
 .debug_info    0x000000000002eea7      0x158 ../build/output/libraries/libuc.a(lib_etherntoa.o)
 .debug_info    0x000000000002efff      0x186 ../build/output/libraries/libuc.a(lib_inetaddr.o)
 .debug_info    0x000000000002f185      0x156 ../build/output/libraries/libuc.a(lib_inetntoa.o)
 .debug_info    0x000000000002f2db      0x52b ../build/output/libraries/libuc.a(lib_inetntop.o)
 .debug_info    0x000000000002f806      0x4e1 ../build/output/libraries/libuc.a(lib_inetpton.o)
 .debug_info    0x000000000002fce7      0x59a ../build/output/libraries/libuc.a(lib_freeaddrinfo.o)
 .debug_info    0x0000000000030281      0x5cb ../build/output/libraries/libuc.a(lib_getaddrinfo.o)
 .debug_info    0x000000000003084c      0x650 ../build/output/libraries/libuc.a(lib_gethostbyname.o)
 .debug_info    0x0000000000030e9c      0x39a ../build/output/libraries/libuc.a(lib_strftime.o)
 .debug_info    0x0000000000031236      0x119 ../build/output/libraries/libuc.a(lib_daysbeforemonth.o)
 .debug_info    0x000000000003134f       0xb3 ../build/output/libraries/libuc.a(lib_isleapyear.o)
 .debug_info    0x0000000000031402      0x14d ../build/output/libraries/libuc.a(lib_time.o)
 .debug_info    0x000000000003154f     0x2a67 ../build/output/libraries/libuc.a(lib_localtime.o)
 .debug_info    0x0000000000033fb6      0x15f ../build/output/libraries/libuc.a(lib_dirname.o)
 .debug_info    0x0000000000034115      0x142 ../build/output/libraries/libuc.a(lib_ioctl.o)
 .debug_info    0x0000000000034257      0xa81 ../build/output/libraries/libuc.a(lib_sscanf.o)
 .debug_info    0x0000000000034cd8      0x282 ../build/output/libraries/libuc.a(lib_rawoutstream.o)
 .debug_info    0x0000000000034f5a      0x1b6 ../build/output/libraries/libuc.a(lib_strtoll.o)
 .debug_info    0x0000000000035110      0x1ca ../build/output/libraries/libuc.a(lib_strtoull.o)
 .debug_info    0x00000000000352da      0x2f9 ../build/output/libraries/libuc.a(lib_strtod.o)
 .debug_info    0x00000000000355d3      0x305 ../build/output/libraries/libuc.a(lib_strtof.o)
 .debug_info    0x00000000000358d8       0xca ../build/output/libraries/libuc.a(lib_access.o)
 .debug_info    0x00000000000359a2      0x11f ../build/output/libraries/libuc.a(lib_strcspn.o)
 .debug_info    0x0000000000035ac1      0x13b ../build/output/libraries/libuc.a(lib_strncat.o)
 .debug_info    0x0000000000035bfc      0x102 ../build/output/libraries/libuc.a(lib_strrchr.o)
 .debug_info    0x0000000000035cfe       0xe7 ../build/output/libraries/libuc.a(lib_htons.o)
 .debug_info    0x0000000000035de5     0x1bee ../build/output/libraries/libumm.a(mm_heapinfo_utils.o)
 .debug_info    0x00000000000379d3     0x176b ../build/output/libraries/libumm.a(umm_free.o)
 .debug_info    0x000000000003913e     0x17ab ../build/output/libraries/libumm.a(umm_malloc.o)
 .debug_info    0x000000000003a8e9     0x17e8 ../build/output/libraries/libumm.a(umm_realloc.o)
 .debug_info    0x000000000003c0d1     0x17ab ../build/output/libraries/libumm.a(umm_zalloc.o)
 .debug_info    0x000000000003d87c     0x19e0 ../build/output/libraries/libumm.a(mm_sem.o)
 .debug_info    0x000000000003f25c     0x18b6 ../build/output/libraries/libumm.a(mm_free.o)
 .debug_info    0x0000000000040b12     0x192b ../build/output/libraries/libumm.a(mm_malloc.o)
 .debug_info    0x000000000004243d     0x1b77 ../build/output/libraries/libumm.a(mm_realloc.o)
 .debug_info    0x0000000000043fb4     0x17af ../build/output/libraries/libumm.a(mm_zalloc.o)
 .debug_info    0x0000000000045763     0x1819 ../build/output/libraries/libumm.a(mm_getheap.o)
 .debug_info    0x0000000000046f7c      0x1e3 ../build/output/libraries/libumm.a(mm_manage_allocfail.o)
 .debug_info    0x000000000004715f      0x2e6 ../build/output/libraries/libumm.a(mm_heap_dbg.o)
 .debug_info    0x0000000000047445     0x1795 ../build/output/libraries/libumm.a(umm_initialize.o)
 .debug_info    0x0000000000048bda     0x18fe ../build/output/libraries/libumm.a(mm_initialize.o)
 .debug_info    0x000000000004a4d8     0x177e ../build/output/libraries/libumm.a(mm_addfreechunk.o)
 .debug_info    0x000000000004bc56      0x114 ../build/output/libraries/libumm.a(mm_size2ndx.o)
 .debug_info    0x000000000004bd6a     0x17df ../build/output/libraries/libumm.a(mm_shrinkchunk.o)
 .debug_info    0x000000000004d549     0x175d ../build/output/libraries/libuwque.a(uwork_thread.o)
 .debug_info    0x000000000004eca6      0x47f ../build/output/libraries/libuwque.a(work_process.o)
 .debug_info    0x000000000004f125      0x249 ../build/output/libraries/libuwque.a(uwork_lock.o)
 .debug_info    0x000000000004f36e     0x19c8 ../build/output/libraries/libframework.a(wifi_manager_msghandler.o)
 .debug_info    0x0000000000050d36      0x411 ../build/output/libraries/libframework.a(security_common.o)
 .debug_info    0x0000000000051147      0xd18 ../build/output/libraries/libframework.a(security_utils.o)
 .debug_info    0x0000000000051e5f      0x6b6 ../build/output/libraries/libframework.a(security_ss.o)
 .debug_info    0x0000000000052515     0x1bab ../build/output/libraries/libframework.a(ble_manager_msghandler.o)
 .debug_info    0x00000000000540c0     0x22e6 ../build/output/libraries/libframework.a(seclink.o)
 .debug_info    0x00000000000563a6     0x1e38 ../build/output/libraries/libframework.a(wifi_manager_message.o)
 .debug_info    0x00000000000581de     0x3aae ../build/output/libraries/libframework.a(wifi_manager_state.o)
 .debug_info    0x000000000005bc8c      0x2f1 ../build/output/libraries/libframework.a(wifi_manager_stats.o)
 .debug_info    0x000000000005bf7d      0x16c ../build/output/libraries/libframework.a(wifi_manager_event.o)
 .debug_info    0x000000000005c0e9      0x3b9 ../build/output/libraries/libframework.a(wifi_manager_utils.o)
 .debug_info    0x000000000005c4a2      0x41f ../build/output/libraries/libframework.a(wifi_manager_info.o)
 .debug_info    0x000000000005c8c1      0x346 ../build/output/libraries/libframework.a(wifi_manager_dhcpc.o)
 .debug_info    0x000000000005cc07     0x1c21 ../build/output/libraries/libframework.a(wifi_manager_dhcps.o)
 .debug_info    0x000000000005e828      0xaff ../build/output/libraries/libframework.a(wifi_manager_lwnl.o)
 .debug_info    0x000000000005f327     0x2126 ../build/output/libraries/libframework.a(wifi_manager_lwnl_listener.o)
 .debug_info    0x000000000006144d     0x2153 ../build/output/libraries/libframework.a(ble_manager_message.o)
 .debug_info    0x00000000000635a0      0xe34 ../build/output/libraries/libframework.a(wifi_manager_cb.o)
 .debug_info    0x00000000000643d4     0x1e0f ../build/output/libraries/libframework.a(ble_manager_lwnl_listener.o)
 .debug_info    0x00000000000661e3     0x3ce3 ../build/output/libraries/libframework.a(ble_manager_state.o)
 .debug_info    0x0000000000069ec6     0x16eb ../build/output/libraries/libframework.a(ble_manager_autoconnect.o)
 .debug_info    0x000000000006b5b1      0xaa9 ../build/output/libraries/libframework.a(ble_queue.o)
 .debug_info    0x000000000006c05a     0x370e ../build/output/libraries/libframework.a(ble_manager_api.o)
 .debug_info    0x000000000006f768     0x3359 ../build/output/libraries/libframework.a(ble_manager_lwnl.o)
 .debug_info    0x0000000000072ac1       0x32 ../build/output/libraries/libcxx.a(libxx_newlib_impure.o)
 .debug_info    0x0000000000072af3      0x819 ../build/output/libraries/libcxx.a(libxx_cxa_atexit.o)
 .debug_info    0x000000000007330c      0x20a ../build/output/libraries/libexternal.a(netlib.o)
 .debug_info    0x0000000000073516      0x4b3 ../build/output/libraries/libexternal.a(netlib_setifstatus.o)
 .debug_info    0x00000000000739c9      0x3c8 ../build/output/libraries/libexternal.a(netlib_getifstatus.o)
 .debug_info    0x0000000000073d91      0x47e ../build/output/libraries/libexternal.a(netlib_getifaddrs.o)
 .debug_info    0x000000000007420f      0x554 ../build/output/libraries/libexternal.a(netlib_getstats.o)
 .debug_info    0x0000000000074763      0x5b3 ../build/output/libraries/libexternal.a(netlib_netmon.o)
 .debug_info    0x0000000000074d16      0x492 ../build/output/libraries/libexternal.a(netlib_setipv4addr.o)
 .debug_info    0x00000000000751a8      0x4af ../build/output/libraries/libexternal.a(netlib_getipv4addr.o)
 .debug_info    0x0000000000075657      0x492 ../build/output/libraries/libexternal.a(netlib_setdripv4addr.o)
 .debug_info    0x0000000000075ae9      0x492 ../build/output/libraries/libexternal.a(netlib_setipv4netmask.o)
 .debug_info    0x0000000000075f7b      0x574 ../build/output/libraries/libexternal.a(netlib_setipv6addr.o)
 .debug_info    0x00000000000764ef      0x44c ../build/output/libraries/libexternal.a(netlib_setmacaddr.o)
 .debug_info    0x000000000007693b      0x45d ../build/output/libraries/libexternal.a(netlib_getmacaddr.o)
 .debug_info    0x0000000000076d98      0x566 ../build/output/libraries/libexternal.a(netlib_setdnsserver.o)
 .debug_info    0x00000000000772fe     0x1ec2 ../build/output/libraries/libexternal.a(dhcpd_lwip.o)
 .debug_info    0x00000000000791c0      0x78a ../build/output/libraries/libexternal.a(dhcpc_lwip.o)
 .debug_info    0x000000000007994a      0x235 ../build/output/libraries/libproxies.a(PROXY_bind.o)
 .debug_info    0x0000000000079b7f      0x1cd ../build/output/libraries/libproxies.a(PROXY_fs_ioctl.o)
 .debug_info    0x0000000000079d4c      0x20e ../build/output/libraries/libproxies.a(PROXY_gettimeofday.o)
 .debug_info    0x0000000000079f5a      0x1a5 ../build/output/libraries/libproxies.a(PROXY_mkfifo.o)
 .debug_info    0x000000000007a0ff      0x229 ../build/output/libraries/libproxies.a(PROXY_mq_getattr.o)
 .debug_info    0x000000000007a328      0x2fe ../build/output/libraries/libproxies.a(PROXY_mq_timedreceive.o)
 .debug_info    0x000000000007a626      0x1a7 ../build/output/libraries/libproxies.a(PROXY_on_exit.o)
 .debug_info    0x000000000007a7cd      0x392 ../build/output/libraries/libproxies.a(PROXY_pthread_create.o)
 .debug_info    0x000000000007ab5f      0x180 ../build/output/libraries/libproxies.a(PROXY_pthread_detach.o)
 .debug_info    0x000000000007acdf      0x1d5 ../build/output/libraries/libproxies.a(PROXY_pthread_join.o)
 .debug_info    0x000000000007aeb4      0x10f ../build/output/libraries/libproxies.a(PROXY_sched_lock.o)
 .debug_info    0x000000000007afc3      0x10f ../build/output/libraries/libproxies.a(PROXY_sched_unlock.o)
 .debug_info    0x000000000007b0d2      0x206 ../build/output/libraries/libproxies.a(PROXY_sem_destroy.o)
 .debug_info    0x000000000007b2d8      0x206 ../build/output/libraries/libproxies.a(PROXY_sem_trywait.o)
 .debug_info    0x000000000007b4de      0x1d7 ../build/output/libraries/libproxies.a(PROXY_setenv.o)
 .debug_info    0x000000000007b6b5      0x281 ../build/output/libraries/libproxies.a(PROXY_sigwaitinfo.o)
 .debug_info    0x000000000007b936      0x2f3 ../build/output/libraries/libuc.a(lib_lowsyslog.o)
 .debug_info    0x000000000007bc29      0x23c ../build/output/libraries/libuc.a(pthread_attrinit.o)
 .debug_info    0x000000000007be65      0x201 ../build/output/libraries/libuc.a(pthread_attrsetstacksize.o)
 .debug_info    0x000000000007c066      0x227 ../build/output/libraries/libuc.a(pthread_attrsetschedparam.o)
 .debug_info    0x000000000007c28d      0x10b ../build/output/libraries/libuc.a(sig_addset.o)
 .debug_info    0x000000000007c398       0xe3 ../build/output/libraries/libuc.a(sig_emptyset.o)
 .debug_info    0x000000000007c47b      0x151 ../build/output/libraries/libuc.a(dq_rem.o)
 .debug_info    0x000000000007c5cc      0x213 ../build/output/libraries/libuc.a(lib_lowoutstream.o)
 .debug_info    0x000000000007c7df     0x17c6 ../build/output/libraries/libumm.a(umm_calloc.o)
 .debug_info    0x000000000007dfa5     0x1793 ../build/output/libraries/libumm.a(mm_calloc.o)

.debug_line     0x0000000000000000    0x28f39
 *(.debug_line)
 .debug_line    0x0000000000000000      0x135 /root/tizenrt/os/userspace/up_userspace_common.o
 .debug_line    0x0000000000000135      0x129 ../build/output/libraries/libproxies.a(PROXY_getpid.o)
 .debug_line    0x000000000000025e      0x1f7 ../build/output/libraries/libproxies.a(PROXY_sched_getstreams.o)
 .debug_line    0x0000000000000455       0xee ../build/output/libraries/libuc.a(lib_printf.o)
 .debug_line    0x0000000000000543      0x1ef ../build/output/libraries/libuc.a(lib_fgetc.o)
 .debug_line    0x0000000000000732      0x22b ../build/output/libraries/libuc.a(lib_vfprintf.o)
 .debug_line    0x000000000000095d      0x2bf ../build/output/libraries/libuc.a(lib_stdoutstream.o)
 .debug_line    0x0000000000000c1c       0x7f ../build/output/libraries/libuc.a(lib_libnoflush.o)
 .debug_line    0x0000000000000c9b      0x112 ../build/output/libraries/libuc.a(lib_sleep.o)
 .debug_line    0x0000000000000dad      0x14b ../build/output/libraries/libuc.a(task_startup.o)
 .debug_line    0x0000000000000ef8      0x125 ../build/output/libraries/libuc.a(pthread_startup.o)
 .debug_line    0x000000000000101d      0x2e8 ../build/output/libraries/libuc.a(lib_filesem.o)
 .debug_line    0x0000000000001305      0xa3c ../build/output/libraries/libuc.a(lib_libvsprintf.o)
 .debug_line    0x0000000000001d41      0x364 ../build/output/libraries/libuc.a(lib_libfread.o)
 .debug_line    0x00000000000020a5      0x2bc ../build/output/libraries/libuc.a(lib_libfflush.o)
 .debug_line    0x0000000000002361      0x1f8 ../build/output/libraries/libuc.a(lib_wrflush.o)
 .debug_line    0x0000000000002559      0x214 ../build/output/libraries/libuc.a(lib_fputc.o)
 .debug_line    0x000000000000276d       0xfa ../build/output/libraries/libuc.a(lib_strnlen.o)
 .debug_line    0x0000000000002867      0x102 ../build/output/libraries/libuc.a(sem_init.o)
 .debug_line    0x0000000000002969      0x30a ../build/output/libraries/libuc.a(lib_dtoa_engine.o)
 .debug_line    0x0000000000002c73       0xc2 ../build/output/libraries/libuc.a(lib_ultoa_invert.o)
 .debug_line    0x0000000000002d35      0x2db ../build/output/libraries/libuc.a(lib_libfwrite.o)
 .debug_line    0x0000000000003010      0x24a ../build/output/libraries/libuc.a(lib_rdflush.o)
 .debug_line    0x000000000000325a       0x73 ../build/output/libraries/libuc.a(lib_dtoa_data.o)
 .debug_line    0x00000000000032cd      0x21a ../build/output/libraries/libuc.a(lib_fseek.o)
 .debug_line    0x00000000000034e7       0x57 ../build/output/libraries/libuarch.a(arm_signal_handler.o)
 .debug_line    0x000000000000353e      0x182 ../build/output/libraries/libframework.a(binary_manager_notify.o)
 .debug_line    0x00000000000036c0      0x331 ../build/output/libraries/libframework.a(binary_manager_interface.o)
 .debug_line    0x00000000000039f1      0x207 ../build/output/libraries/libapps.a(init.o)
 .debug_line    0x0000000000003bf8       0xe9 ../build/output/libraries/libapps.a(builtin_list.o)
 .debug_line    0x0000000000003ce1      0xc57 ../build/output/libraries/libapps.a(tash_command.o)
 .debug_line    0x0000000000004938       0xb0 ../build/output/libraries/libapps.a(tash_sleep.o)
 .debug_line    0x00000000000049e8      0x7b9 ../build/output/libraries/libapps.a(tash_main.o)
 .debug_line    0x00000000000051a1       0xcb ../build/output/libraries/libapps.a(mem_leak_checker_main.o)
 .debug_line    0x000000000000526c       0xda ../build/output/libraries/libapps.a(sysinfo.o)
 .debug_line    0x0000000000005346       0x99 ../build/output/libraries/libapps.a(systemcmd.o)
 .debug_line    0x00000000000053df      0x28d ../build/output/libraries/libapps.a(security_level_cmd.o)
 .debug_line    0x000000000000566c     0x1410 ../build/output/libraries/libapps.a(fscmd.o)
 .debug_line    0x0000000000006a7c      0x8e8 ../build/output/libraries/libapps.a(netcmd.o)
 .debug_line    0x0000000000007364      0x82d ../build/output/libraries/libapps.a(netcmd_ping.o)
 .debug_line    0x0000000000007b91      0x1cf ../build/output/libraries/libapps.a(netcmd_netmon.o)
 .debug_line    0x0000000000007d60      0x217 ../build/output/libraries/libapps.a(netcmd_dhcpd.o)
 .debug_line    0x0000000000007f77      0x3be ../build/output/libraries/libapps.a(utils_date.o)
 .debug_line    0x0000000000008335       0xe9 ../build/output/libraries/libapps.a(utils_free.o)
 .debug_line    0x000000000000841e      0x412 ../build/output/libraries/libapps.a(utils_heapinfo.o)
 .debug_line    0x0000000000008830       0xe5 ../build/output/libraries/libapps.a(utils_prodconfig.o)
 .debug_line    0x0000000000008915      0x256 ../build/output/libraries/libapps.a(utils_ps.o)
 .debug_line    0x0000000000008b6b       0xf1 ../build/output/libraries/libapps.a(utils_uptime.o)
 .debug_line    0x0000000000008c5c      0x27f ../build/output/libraries/libapps.a(utils_proc.o)
 .debug_line    0x0000000000008edb      0x367 ../build/output/libraries/libapps.a(helloxx_main.o)
 .debug_line    0x0000000000009242       0x74 ../build/output/libraries/libapps.a(hello_main.o)
 .debug_line    0x00000000000092b6       0x62 ../build/output/libraries/libapps.a(tash_init.o)
 .debug_line    0x0000000000009318      0x1ce ../build/output/libraries/libapps.a(tash_pm.o)
 .debug_line    0x00000000000094e6      0x290 ../build/output/libraries/libapps.a(netdb_main.o)
 .debug_line    0x0000000000009776      0x1c0 ../build/output/libraries/libapps.a(fs_getpath.o)
 .debug_line    0x0000000000009936      0x133 ../build/output/libraries/libproxies.a(PROXY_boardctl.o)
 .debug_line    0x0000000000009a69      0x126 ../build/output/libraries/libproxies.a(PROXY_clock.o)
 .debug_line    0x0000000000009b8f      0x115 ../build/output/libraries/libproxies.a(PROXY_clock_gettime.o)
 .debug_line    0x0000000000009ca4      0x115 ../build/output/libraries/libproxies.a(PROXY_clock_settime.o)
 .debug_line    0x0000000000009db9      0x108 ../build/output/libraries/libproxies.a(PROXY_close.o)
 .debug_line    0x0000000000009ec1      0x10b ../build/output/libraries/libproxies.a(PROXY_closedir.o)
 .debug_line    0x0000000000009fcc      0x118 ../build/output/libraries/libproxies.a(PROXY_exit.o)
 .debug_line    0x000000000000a0e4      0x105 ../build/output/libraries/libproxies.a(PROXY_get_errno.o)
 .debug_line    0x000000000000a1e9      0x109 ../build/output/libraries/libproxies.a(PROXY_getenv.o)
 .debug_line    0x000000000000a2f2      0x134 ../build/output/libraries/libproxies.a(PROXY_lseek.o)
 .debug_line    0x000000000000a426      0x137 ../build/output/libraries/libproxies.a(PROXY_mkdir.o)
 .debug_line    0x000000000000a55d      0x132 ../build/output/libraries/libproxies.a(PROXY_mount.o)
 .debug_line    0x000000000000a68f      0x10b ../build/output/libraries/libproxies.a(PROXY_mq_close.o)
 .debug_line    0x000000000000a79a      0x14b ../build/output/libraries/libproxies.a(PROXY_mq_open.o)
 .debug_line    0x000000000000a8e5      0x141 ../build/output/libraries/libproxies.a(PROXY_mq_receive.o)
 .debug_line    0x000000000000aa26      0x13e ../build/output/libraries/libproxies.a(PROXY_mq_send.o)
 .debug_line    0x000000000000ab64      0x10c ../build/output/libraries/libproxies.a(PROXY_mq_unlink.o)
 .debug_line    0x000000000000ac70      0x113 ../build/output/libraries/libproxies.a(PROXY_nanosleep.o)
 .debug_line    0x000000000000ad83      0x147 ../build/output/libraries/libproxies.a(PROXY_open.o)
 .debug_line    0x000000000000aeca      0x10a ../build/output/libraries/libproxies.a(PROXY_opendir.o)
 .debug_line    0x000000000000afd4      0x16d ../build/output/libraries/libproxies.a(PROXY_prctl.o)
 .debug_line    0x000000000000b141      0x123 ../build/output/libraries/libproxies.a(PROXY_pthread_exit.o)
 .debug_line    0x000000000000b264      0x14d ../build/output/libraries/libproxies.a(PROXY_pthread_mutex_lock.o)
 .debug_line    0x000000000000b3b1      0x14f ../build/output/libraries/libproxies.a(PROXY_pthread_mutex_unlock.o)
 .debug_line    0x000000000000b500      0x133 ../build/output/libraries/libproxies.a(PROXY_read.o)
 .debug_line    0x000000000000b633      0x10a ../build/output/libraries/libproxies.a(PROXY_readdir.o)
 .debug_line    0x000000000000b73d      0x1b1 ../build/output/libraries/libproxies.a(PROXY_recvfrom.o)
 .debug_line    0x000000000000b8ee      0x111 ../build/output/libraries/libproxies.a(PROXY_rename.o)
 .debug_line    0x000000000000b9ff      0x108 ../build/output/libraries/libproxies.a(PROXY_rmdir.o)
 .debug_line    0x000000000000bb07      0x13e ../build/output/libraries/libproxies.a(PROXY_select.o)
 .debug_line    0x000000000000bc45      0x10c ../build/output/libraries/libproxies.a(PROXY_sem_post.o)
 .debug_line    0x000000000000bd51      0x10c ../build/output/libraries/libproxies.a(PROXY_sem_wait.o)
 .debug_line    0x000000000000be5d      0x1af ../build/output/libraries/libproxies.a(PROXY_sendto.o)
 .debug_line    0x000000000000c00c      0x10b ../build/output/libraries/libproxies.a(PROXY_set_errno.o)
 .debug_line    0x000000000000c117      0x143 ../build/output/libraries/libproxies.a(PROXY_setsockopt.o)
 .debug_line    0x000000000000c25a      0x12a ../build/output/libraries/libproxies.a(PROXY_socket.o)
 .debug_line    0x000000000000c384      0x140 ../build/output/libraries/libproxies.a(PROXY_stat.o)
 .debug_line    0x000000000000c4c4      0x13a ../build/output/libraries/libproxies.a(PROXY_statfs.o)
 .debug_line    0x000000000000c5fe      0x143 ../build/output/libraries/libproxies.a(PROXY_task_create.o)
 .debug_line    0x000000000000c741      0x125 ../build/output/libraries/libproxies.a(PROXY_umount.o)
 .debug_line    0x000000000000c866      0x109 ../build/output/libraries/libproxies.a(PROXY_unlink.o)
 .debug_line    0x000000000000c96f      0x118 ../build/output/libraries/libproxies.a(PROXY_up_assert.o)
 .debug_line    0x000000000000ca87      0x134 ../build/output/libraries/libproxies.a(PROXY_write.o)
 .debug_line    0x000000000000cbbb      0x147 ../build/output/libraries/libuc.a(lib_sprintf.o)
 .debug_line    0x000000000000cd02       0xfd ../build/output/libraries/libuc.a(lib_asprintf.o)
 .debug_line    0x000000000000cdff      0x152 ../build/output/libraries/libuc.a(lib_snprintf.o)
 .debug_line    0x000000000000cf51      0x208 ../build/output/libraries/libuc.a(lib_vasprintf.o)
 .debug_line    0x000000000000d159      0x198 ../build/output/libraries/libuc.a(lib_memoutstream.o)
 .debug_line    0x000000000000d2f1      0x13e ../build/output/libraries/libuc.a(lib_nulloutstream.o)
 .debug_line    0x000000000000d42f      0x1fe ../build/output/libraries/libuc.a(lib_fwrite.o)
 .debug_line    0x000000000000d62d      0x261 ../build/output/libraries/libuc.a(lib_fputs.o)
 .debug_line    0x000000000000d88e      0x1f3 ../build/output/libraries/libuc.a(lib_fprintf.o)
 .debug_line    0x000000000000da81       0xc2 ../build/output/libraries/libuc.a(lib_perror.o)
 .debug_line    0x000000000000db43       0x87 ../build/output/libraries/libuc.a(lib_abort.o)
 .debug_line    0x000000000000dbca      0x126 ../build/output/libraries/libuc.a(lib_strtol.o)
 .debug_line    0x000000000000dcf0      0x116 ../build/output/libraries/libuc.a(lib_strtoul.o)
 .debug_line    0x000000000000de06       0xfe ../build/output/libraries/libuc.a(lib_checkbase.o)
 .debug_line    0x000000000000df04      0x257 ../build/output/libraries/libuc.a(lib_getopt.o)
 .debug_line    0x000000000000e15b      0x18a ../build/output/libraries/libuc.a(lib_chdir.o)
 .debug_line    0x000000000000e2e5      0x10a ../build/output/libraries/libuc.a(lib_usleep.o)
 .debug_line    0x000000000000e3ef      0x1c7 ../build/output/libraries/libuc.a(lib_syslog.o)
 .debug_line    0x000000000000e5b6       0xd4 ../build/output/libraries/libuc.a(lib_setlogmask.o)
 .debug_line    0x000000000000e68a       0xf5 ../build/output/libraries/libuc.a(lib_isbasedigit.o)
 .debug_line    0x000000000000e77f      0x18d ../build/output/libraries/libuc.a(lib_memset.o)
 .debug_line    0x000000000000e90c      0x10e ../build/output/libraries/libuc.a(lib_memcmp.o)
 .debug_line    0x000000000000ea1a      0x10c ../build/output/libraries/libuc.a(lib_memmove.o)
 .debug_line    0x000000000000eb26       0x9a ../build/output/libraries/libuc.a(lib_skipspace.o)
 .debug_line    0x000000000000ebc0       0x9e ../build/output/libraries/libuc.a(lib_strchr.o)
 .debug_line    0x000000000000ec5e       0x92 ../build/output/libraries/libuc.a(lib_strcmp.o)
 .debug_line    0x000000000000ecf0      0x141 ../build/output/libraries/libuc.a(lib_strdup.o)
 .debug_line    0x000000000000ee31      0x101 ../build/output/libraries/libuc.a(lib_strerror.o)
 .debug_line    0x000000000000ef32       0xea ../build/output/libraries/libuc.a(lib_strlen.o)
 .debug_line    0x000000000000f01c      0x15e ../build/output/libraries/libuc.a(lib_strncasecmp.o)
 .debug_line    0x000000000000f17a      0x105 ../build/output/libraries/libuc.a(lib_strncmp.o)
 .debug_line    0x000000000000f27f      0x112 ../build/output/libraries/libuc.a(lib_strncpy.o)
 .debug_line    0x000000000000f391       0xd9 ../build/output/libraries/libuc.a(lib_strstr.o)
 .debug_line    0x000000000000f46a      0x111 ../build/output/libraries/libuc.a(lib_strtokr.o)
 .debug_line    0x000000000000f57b      0xa2a ../build/output/libraries/libuc.a(lib_vikmemcpy.o)
 .debug_line    0x000000000000ffa5      0x10e ../build/output/libraries/libuc.a(lib_etherntoa.o)
 .debug_line    0x00000000000100b3      0x16e ../build/output/libraries/libuc.a(lib_inetaddr.o)
 .debug_line    0x0000000000010221      0x115 ../build/output/libraries/libuc.a(lib_inetntoa.o)
 .debug_line    0x0000000000010336      0x2fd ../build/output/libraries/libuc.a(lib_inetntop.o)
 .debug_line    0x0000000000010633      0x370 ../build/output/libraries/libuc.a(lib_inetpton.o)
 .debug_line    0x00000000000109a3      0x237 ../build/output/libraries/libuc.a(lib_freeaddrinfo.o)
 .debug_line    0x0000000000010bda      0x248 ../build/output/libraries/libuc.a(lib_getaddrinfo.o)
 .debug_line    0x0000000000010e22      0x249 ../build/output/libraries/libuc.a(lib_gethostbyname.o)
 .debug_line    0x000000000001106b      0x34b ../build/output/libraries/libuc.a(lib_strftime.o)
 .debug_line    0x00000000000113b6       0xf5 ../build/output/libraries/libuc.a(lib_daysbeforemonth.o)
 .debug_line    0x00000000000114ab       0xa0 ../build/output/libraries/libuc.a(lib_isleapyear.o)
 .debug_line    0x000000000001154b       0xf8 ../build/output/libraries/libuc.a(lib_time.o)
 .debug_line    0x0000000000011643     0x2236 ../build/output/libraries/libuc.a(lib_localtime.o)
 .debug_line    0x0000000000013879      0x112 ../build/output/libraries/libuc.a(lib_dirname.o)
 .debug_line    0x000000000001398b      0x12c ../build/output/libraries/libuc.a(lib_ioctl.o)
 .debug_line    0x0000000000013ab7      0x92e ../build/output/libraries/libuc.a(lib_sscanf.o)
 .debug_line    0x00000000000143e5      0x1c5 ../build/output/libraries/libuc.a(lib_rawoutstream.o)
 .debug_line    0x00000000000145aa      0x139 ../build/output/libraries/libuc.a(lib_strtoll.o)
 .debug_line    0x00000000000146e3      0x121 ../build/output/libraries/libuc.a(lib_strtoull.o)
 .debug_line    0x0000000000014804      0x2d3 ../build/output/libraries/libuc.a(lib_strtod.o)
 .debug_line    0x0000000000014ad7      0x2db ../build/output/libraries/libuc.a(lib_strtof.o)
 .debug_line    0x0000000000014db2       0x73 ../build/output/libraries/libuc.a(lib_access.o)
 .debug_line    0x0000000000014e25      0x119 ../build/output/libraries/libuc.a(lib_strcspn.o)
 .debug_line    0x0000000000014f3e      0x12a ../build/output/libraries/libuc.a(lib_strncat.o)
 .debug_line    0x0000000000015068       0xb0 ../build/output/libraries/libuc.a(lib_strrchr.o)
 .debug_line    0x0000000000015118       0xc5 ../build/output/libraries/libuc.a(lib_htons.o)
 .debug_line    0x00000000000151dd      0x5b6 ../build/output/libraries/libumm.a(mm_heapinfo_utils.o)
 .debug_line    0x0000000000015793      0x209 ../build/output/libraries/libumm.a(umm_free.o)
 .debug_line    0x000000000001599c      0x225 ../build/output/libraries/libumm.a(umm_malloc.o)
 .debug_line    0x0000000000015bc1      0x234 ../build/output/libraries/libumm.a(umm_realloc.o)
 .debug_line    0x0000000000015df5      0x228 ../build/output/libraries/libumm.a(umm_zalloc.o)
 .debug_line    0x000000000001601d      0x3ef ../build/output/libraries/libumm.a(mm_sem.o)
 .debug_line    0x000000000001640c      0x36b ../build/output/libraries/libumm.a(mm_free.o)
 .debug_line    0x0000000000016777      0x3b5 ../build/output/libraries/libumm.a(mm_malloc.o)
 .debug_line    0x0000000000016b2c      0x547 ../build/output/libraries/libumm.a(mm_realloc.o)
 .debug_line    0x0000000000017073      0x205 ../build/output/libraries/libumm.a(mm_zalloc.o)
 .debug_line    0x0000000000017278      0x278 ../build/output/libraries/libumm.a(mm_getheap.o)
 .debug_line    0x00000000000174f0      0x13c ../build/output/libraries/libumm.a(mm_manage_allocfail.o)
 .debug_line    0x000000000001762c      0x1a7 ../build/output/libraries/libumm.a(mm_heap_dbg.o)
 .debug_line    0x00000000000177d3      0x1f2 ../build/output/libraries/libumm.a(umm_initialize.o)
 .debug_line    0x00000000000179c5      0x3a5 ../build/output/libraries/libumm.a(mm_initialize.o)
 .debug_line    0x0000000000017d6a      0x260 ../build/output/libraries/libumm.a(mm_addfreechunk.o)
 .debug_line    0x0000000000017fca      0x142 ../build/output/libraries/libumm.a(mm_size2ndx.o)
 .debug_line    0x000000000001810c      0x325 ../build/output/libraries/libumm.a(mm_shrinkchunk.o)
 .debug_line    0x0000000000018431      0x302 ../build/output/libraries/libuwque.a(uwork_thread.o)
 .debug_line    0x0000000000018733      0x267 ../build/output/libraries/libuwque.a(work_process.o)
 .debug_line    0x000000000001899a      0x120 ../build/output/libraries/libuwque.a(uwork_lock.o)
 .debug_line    0x0000000000018aba      0x438 ../build/output/libraries/libframework.a(wifi_manager_msghandler.o)
 .debug_line    0x0000000000018ef2      0x2de ../build/output/libraries/libframework.a(security_common.o)
 .debug_line    0x00000000000191d0      0x4ee ../build/output/libraries/libframework.a(security_utils.o)
 .debug_line    0x00000000000196be      0x46c ../build/output/libraries/libframework.a(security_ss.o)
 .debug_line    0x0000000000019b2a      0x37c ../build/output/libraries/libframework.a(ble_manager_msghandler.o)
 .debug_line    0x0000000000019ea6     0x163b ../build/output/libraries/libframework.a(seclink.o)
 .debug_line    0x000000000001b4e1      0x620 ../build/output/libraries/libframework.a(wifi_manager_message.o)
 .debug_line    0x000000000001bb01     0x11ed ../build/output/libraries/libframework.a(wifi_manager_state.o)
 .debug_line    0x000000000001ccee      0x169 ../build/output/libraries/libframework.a(wifi_manager_stats.o)
 .debug_line    0x000000000001ce57       0x77 ../build/output/libraries/libframework.a(wifi_manager_event.o)
 .debug_line    0x000000000001cece      0x112 ../build/output/libraries/libframework.a(wifi_manager_utils.o)
 .debug_line    0x000000000001cfe0      0x227 ../build/output/libraries/libframework.a(wifi_manager_info.o)
 .debug_line    0x000000000001d207      0x235 ../build/output/libraries/libframework.a(wifi_manager_dhcpc.o)
 .debug_line    0x000000000001d43c      0x645 ../build/output/libraries/libframework.a(wifi_manager_dhcps.o)
 .debug_line    0x000000000001da81      0x55c ../build/output/libraries/libframework.a(wifi_manager_lwnl.o)
 .debug_line    0x000000000001dfdd      0x5f3 ../build/output/libraries/libframework.a(wifi_manager_lwnl_listener.o)
 .debug_line    0x000000000001e5d0      0x5c3 ../build/output/libraries/libframework.a(ble_manager_message.o)
 .debug_line    0x000000000001eb93      0x51b ../build/output/libraries/libframework.a(wifi_manager_cb.o)
 .debug_line    0x000000000001f0ae      0x4c3 ../build/output/libraries/libframework.a(ble_manager_lwnl_listener.o)
 .debug_line    0x000000000001f571     0x1dbf ../build/output/libraries/libframework.a(ble_manager_state.o)
 .debug_line    0x0000000000021330      0x578 ../build/output/libraries/libframework.a(ble_manager_autoconnect.o)
 .debug_line    0x00000000000218a8      0x503 ../build/output/libraries/libframework.a(ble_queue.o)
 .debug_line    0x0000000000021dab     0x106d ../build/output/libraries/libframework.a(ble_manager_api.o)
 .debug_line    0x0000000000022e18     0x13f1 ../build/output/libraries/libframework.a(ble_manager_lwnl.o)
 .debug_line    0x0000000000024209       0x36 ../build/output/libraries/libcxx.a(libxx_newlib_impure.o)
 .debug_line    0x000000000002423f      0x22f ../build/output/libraries/libcxx.a(libxx_cxa_atexit.o)
 .debug_line    0x000000000002446e      0x234 ../build/output/libraries/libexternal.a(netlib.o)
 .debug_line    0x00000000000246a2      0x275 ../build/output/libraries/libexternal.a(netlib_setifstatus.o)
 .debug_line    0x0000000000024917      0x20a ../build/output/libraries/libexternal.a(netlib_getifstatus.o)
 .debug_line    0x0000000000024b21      0x2f1 ../build/output/libraries/libexternal.a(netlib_getifaddrs.o)
 .debug_line    0x0000000000024e12      0x218 ../build/output/libraries/libexternal.a(netlib_getstats.o)
 .debug_line    0x000000000002502a      0x2e8 ../build/output/libraries/libexternal.a(netlib_netmon.o)
 .debug_line    0x0000000000025312      0x21f ../build/output/libraries/libexternal.a(netlib_setipv4addr.o)
 .debug_line    0x0000000000025531      0x22c ../build/output/libraries/libexternal.a(netlib_getipv4addr.o)
 .debug_line    0x000000000002575d      0x221 ../build/output/libraries/libexternal.a(netlib_setdripv4addr.o)
 .debug_line    0x000000000002597e      0x222 ../build/output/libraries/libexternal.a(netlib_setipv4netmask.o)
 .debug_line    0x0000000000025ba0      0x21f ../build/output/libraries/libexternal.a(netlib_setipv6addr.o)
 .debug_line    0x0000000000025dbf      0x273 ../build/output/libraries/libexternal.a(netlib_setmacaddr.o)
 .debug_line    0x0000000000026032      0x271 ../build/output/libraries/libexternal.a(netlib_getmacaddr.o)
 .debug_line    0x00000000000262a3      0x227 ../build/output/libraries/libexternal.a(netlib_setdnsserver.o)
 .debug_line    0x00000000000264ca      0x7cb ../build/output/libraries/libexternal.a(dhcpd_lwip.o)
 .debug_line    0x0000000000026c95      0x339 ../build/output/libraries/libexternal.a(dhcpc_lwip.o)
 .debug_line    0x0000000000026fce      0x1a3 ../build/output/libraries/libproxies.a(PROXY_bind.o)
 .debug_line    0x0000000000027171      0x12f ../build/output/libraries/libproxies.a(PROXY_fs_ioctl.o)
 .debug_line    0x00000000000272a0      0x13b ../build/output/libraries/libproxies.a(PROXY_gettimeofday.o)
 .debug_line    0x00000000000273db      0x138 ../build/output/libraries/libproxies.a(PROXY_mkfifo.o)
 .debug_line    0x0000000000027513      0x13e ../build/output/libraries/libproxies.a(PROXY_mq_getattr.o)
 .debug_line    0x0000000000027651      0x152 ../build/output/libraries/libproxies.a(PROXY_mq_timedreceive.o)
 .debug_line    0x00000000000277a3      0x113 ../build/output/libraries/libproxies.a(PROXY_on_exit.o)
 .debug_line    0x00000000000278b6      0x146 ../build/output/libraries/libproxies.a(PROXY_pthread_create.o)
 .debug_line    0x00000000000279fc      0x13a ../build/output/libraries/libproxies.a(PROXY_pthread_detach.o)
 .debug_line    0x0000000000027b36      0x141 ../build/output/libraries/libproxies.a(PROXY_pthread_join.o)
 .debug_line    0x0000000000027c77      0x104 ../build/output/libraries/libproxies.a(PROXY_sched_lock.o)
 .debug_line    0x0000000000027d7b      0x106 ../build/output/libraries/libproxies.a(PROXY_sched_unlock.o)
 .debug_line    0x0000000000027e81      0x10f ../build/output/libraries/libproxies.a(PROXY_sem_destroy.o)
 .debug_line    0x0000000000027f90      0x10f ../build/output/libraries/libproxies.a(PROXY_sem_trywait.o)
 .debug_line    0x000000000002809f      0x10d ../build/output/libraries/libproxies.a(PROXY_setenv.o)
 .debug_line    0x00000000000281ac      0x13f ../build/output/libraries/libproxies.a(PROXY_sigwaitinfo.o)
 .debug_line    0x00000000000282eb      0x163 ../build/output/libraries/libuc.a(lib_lowsyslog.o)
 .debug_line    0x000000000002844e      0x13b ../build/output/libraries/libuc.a(pthread_attrinit.o)
 .debug_line    0x0000000000028589      0x109 ../build/output/libraries/libuc.a(pthread_attrsetstacksize.o)
 .debug_line    0x0000000000028692      0x115 ../build/output/libraries/libuc.a(pthread_attrsetschedparam.o)
 .debug_line    0x00000000000287a7       0xca ../build/output/libraries/libuc.a(sig_addset.o)
 .debug_line    0x0000000000028871       0xb5 ../build/output/libraries/libuc.a(sig_emptyset.o)
 .debug_line    0x0000000000028926       0xaa ../build/output/libraries/libuc.a(dq_rem.o)
 .debug_line    0x00000000000289d0      0x13b ../build/output/libraries/libuc.a(lib_lowoutstream.o)
 .debug_line    0x0000000000028b0b      0x22e ../build/output/libraries/libumm.a(umm_calloc.o)
 .debug_line    0x0000000000028d39      0x200 ../build/output/libraries/libumm.a(mm_calloc.o)

.debug_pubnames
 *(.debug_pubnames)

.debug_aranges  0x0000000000000000     0x2a18
 *(.debug_aranges)
 .debug_aranges
                0x0000000000000000       0x18 /root/tizenrt/os/userspace/up_userspace_common.o
 .debug_aranges
                0x0000000000000018       0x20 ../build/output/libraries/libproxies.a(PROXY_getpid.o)
 .debug_aranges
                0x0000000000000038       0x20 ../build/output/libraries/libproxies.a(PROXY_sched_getstreams.o)
 .debug_aranges
                0x0000000000000058       0x20 ../build/output/libraries/libuc.a(lib_printf.o)
 .debug_aranges
                0x0000000000000078       0x20 ../build/output/libraries/libuc.a(lib_fgetc.o)
 .debug_aranges
                0x0000000000000098       0x20 ../build/output/libraries/libuc.a(lib_vfprintf.o)
 .debug_aranges
                0x00000000000000b8       0x30 ../build/output/libraries/libuc.a(lib_stdoutstream.o)
 .debug_aranges
                0x00000000000000e8       0x20 ../build/output/libraries/libuc.a(lib_libnoflush.o)
 .debug_aranges
                0x0000000000000108       0x20 ../build/output/libraries/libuc.a(lib_sleep.o)
 .debug_aranges
                0x0000000000000128       0x20 ../build/output/libraries/libuc.a(task_startup.o)
 .debug_aranges
                0x0000000000000148       0x20 ../build/output/libraries/libuc.a(pthread_startup.o)
 .debug_aranges
                0x0000000000000168       0x30 ../build/output/libraries/libuc.a(lib_filesem.o)
 .debug_aranges
                0x0000000000000198       0x20 ../build/output/libraries/libuc.a(lib_libvsprintf.o)
 .debug_aranges
                0x00000000000001b8       0x20 ../build/output/libraries/libuc.a(lib_libfread.o)
 .debug_aranges
                0x00000000000001d8       0x20 ../build/output/libraries/libuc.a(lib_libfflush.o)
 .debug_aranges
                0x00000000000001f8       0x20 ../build/output/libraries/libuc.a(lib_wrflush.o)
 .debug_aranges
                0x0000000000000218       0x20 ../build/output/libraries/libuc.a(lib_fputc.o)
 .debug_aranges
                0x0000000000000238       0x20 ../build/output/libraries/libuc.a(lib_strnlen.o)
 .debug_aranges
                0x0000000000000258       0x20 ../build/output/libraries/libuc.a(sem_init.o)
 .debug_aranges
                0x0000000000000278       0x20 ../build/output/libraries/libuc.a(lib_dtoa_engine.o)
 .debug_aranges
                0x0000000000000298       0x20 ../build/output/libraries/libuc.a(lib_ultoa_invert.o)
 .debug_aranges
                0x00000000000002b8       0x20 ../build/output/libraries/libuc.a(lib_libfwrite.o)
 .debug_aranges
                0x00000000000002d8       0x20 ../build/output/libraries/libuc.a(lib_rdflush.o)
 .debug_aranges
                0x00000000000002f8       0x18 ../build/output/libraries/libuc.a(lib_dtoa_data.o)
 .debug_aranges
                0x0000000000000310       0x20 ../build/output/libraries/libuc.a(lib_fseek.o)
 .debug_aranges
                0x0000000000000330       0x20 ../build/output/libraries/libuarch.a(arm_signal_handler.o)
 .debug_aranges
                0x0000000000000350       0x20 ../build/output/libraries/libframework.a(binary_manager_notify.o)
 .debug_aranges
                0x0000000000000370       0x30 ../build/output/libraries/libframework.a(binary_manager_interface.o)
 .debug_aranges
                0x00000000000003a0       0x20 ../build/output/libraries/libapps.a(init.o)
 .debug_aranges
                0x00000000000003c0       0x28 ../build/output/libraries/libapps.a(builtin_list.o)
 .debug_aranges
                0x00000000000003e8       0x80 ../build/output/libraries/libapps.a(tash_command.o)
 .debug_aranges
                0x0000000000000468       0x20 ../build/output/libraries/libapps.a(tash_sleep.o)
 .debug_aranges
                0x0000000000000488       0x50 ../build/output/libraries/libapps.a(tash_main.o)
 .debug_aranges
                0x00000000000004d8       0x20 ../build/output/libraries/libapps.a(mem_leak_checker_main.o)
 .debug_aranges
                0x00000000000004f8       0x20 ../build/output/libraries/libapps.a(sysinfo.o)
 .debug_aranges
                0x0000000000000518       0x20 ../build/output/libraries/libapps.a(systemcmd.o)
 .debug_aranges
                0x0000000000000538       0x30 ../build/output/libraries/libapps.a(security_level_cmd.o)
 .debug_aranges
                0x0000000000000568       0xf0 ../build/output/libraries/libapps.a(fscmd.o)
 .debug_aranges
                0x0000000000000658       0x48 ../build/output/libraries/libapps.a(netcmd.o)
 .debug_aranges
                0x00000000000006a0       0x40 ../build/output/libraries/libapps.a(netcmd_ping.o)
 .debug_aranges
                0x00000000000006e0       0x28 ../build/output/libraries/libapps.a(netcmd_netmon.o)
 .debug_aranges
                0x0000000000000708       0x28 ../build/output/libraries/libapps.a(netcmd_dhcpd.o)
 .debug_aranges
                0x0000000000000730       0x20 ../build/output/libraries/libapps.a(utils_date.o)
 .debug_aranges
                0x0000000000000750       0x20 ../build/output/libraries/libapps.a(utils_free.o)
 .debug_aranges
                0x0000000000000770       0x30 ../build/output/libraries/libapps.a(utils_heapinfo.o)
 .debug_aranges
                0x00000000000007a0       0x20 ../build/output/libraries/libapps.a(utils_prodconfig.o)
 .debug_aranges
                0x00000000000007c0       0x30 ../build/output/libraries/libapps.a(utils_ps.o)
 .debug_aranges
                0x00000000000007f0       0x20 ../build/output/libraries/libapps.a(utils_uptime.o)
 .debug_aranges
                0x0000000000000810       0x28 ../build/output/libraries/libapps.a(utils_proc.o)
 .debug_aranges
                0x0000000000000838       0x38 ../build/output/libraries/libapps.a(helloxx_main.o)
 .debug_aranges
                0x0000000000000870       0x20 ../build/output/libraries/libapps.a(hello_main.o)
 .debug_aranges
                0x0000000000000890       0x20 ../build/output/libraries/libapps.a(tash_init.o)
 .debug_aranges
                0x00000000000008b0       0x38 ../build/output/libraries/libapps.a(tash_pm.o)
 .debug_aranges
                0x00000000000008e8       0x28 ../build/output/libraries/libapps.a(netdb_main.o)
 .debug_aranges
                0x0000000000000910       0x30 ../build/output/libraries/libapps.a(fs_getpath.o)
 .debug_aranges
                0x0000000000000940       0x20 ../build/output/libraries/libproxies.a(PROXY_boardctl.o)
 .debug_aranges
                0x0000000000000960       0x20 ../build/output/libraries/libproxies.a(PROXY_clock.o)
 .debug_aranges
                0x0000000000000980       0x20 ../build/output/libraries/libproxies.a(PROXY_clock_gettime.o)
 .debug_aranges
                0x00000000000009a0       0x20 ../build/output/libraries/libproxies.a(PROXY_clock_settime.o)
 .debug_aranges
                0x00000000000009c0       0x20 ../build/output/libraries/libproxies.a(PROXY_close.o)
 .debug_aranges
                0x00000000000009e0       0x20 ../build/output/libraries/libproxies.a(PROXY_closedir.o)
 .debug_aranges
                0x0000000000000a00       0x20 ../build/output/libraries/libproxies.a(PROXY_exit.o)
 .debug_aranges
                0x0000000000000a20       0x20 ../build/output/libraries/libproxies.a(PROXY_get_errno.o)
 .debug_aranges
                0x0000000000000a40       0x20 ../build/output/libraries/libproxies.a(PROXY_getenv.o)
 .debug_aranges
                0x0000000000000a60       0x20 ../build/output/libraries/libproxies.a(PROXY_lseek.o)
 .debug_aranges
                0x0000000000000a80       0x20 ../build/output/libraries/libproxies.a(PROXY_mkdir.o)
 .debug_aranges
                0x0000000000000aa0       0x20 ../build/output/libraries/libproxies.a(PROXY_mount.o)
 .debug_aranges
                0x0000000000000ac0       0x20 ../build/output/libraries/libproxies.a(PROXY_mq_close.o)
 .debug_aranges
                0x0000000000000ae0       0x20 ../build/output/libraries/libproxies.a(PROXY_mq_open.o)
 .debug_aranges
                0x0000000000000b00       0x20 ../build/output/libraries/libproxies.a(PROXY_mq_receive.o)
 .debug_aranges
                0x0000000000000b20       0x20 ../build/output/libraries/libproxies.a(PROXY_mq_send.o)
 .debug_aranges
                0x0000000000000b40       0x20 ../build/output/libraries/libproxies.a(PROXY_mq_unlink.o)
 .debug_aranges
                0x0000000000000b60       0x20 ../build/output/libraries/libproxies.a(PROXY_nanosleep.o)
 .debug_aranges
                0x0000000000000b80       0x20 ../build/output/libraries/libproxies.a(PROXY_open.o)
 .debug_aranges
                0x0000000000000ba0       0x20 ../build/output/libraries/libproxies.a(PROXY_opendir.o)
 .debug_aranges
                0x0000000000000bc0       0x20 ../build/output/libraries/libproxies.a(PROXY_prctl.o)
 .debug_aranges
                0x0000000000000be0       0x20 ../build/output/libraries/libproxies.a(PROXY_pthread_exit.o)
 .debug_aranges
                0x0000000000000c00       0x20 ../build/output/libraries/libproxies.a(PROXY_pthread_mutex_lock.o)
 .debug_aranges
                0x0000000000000c20       0x20 ../build/output/libraries/libproxies.a(PROXY_pthread_mutex_unlock.o)
 .debug_aranges
                0x0000000000000c40       0x20 ../build/output/libraries/libproxies.a(PROXY_read.o)
 .debug_aranges
                0x0000000000000c60       0x20 ../build/output/libraries/libproxies.a(PROXY_readdir.o)
 .debug_aranges
                0x0000000000000c80       0x20 ../build/output/libraries/libproxies.a(PROXY_recvfrom.o)
 .debug_aranges
                0x0000000000000ca0       0x20 ../build/output/libraries/libproxies.a(PROXY_rename.o)
 .debug_aranges
                0x0000000000000cc0       0x20 ../build/output/libraries/libproxies.a(PROXY_rmdir.o)
 .debug_aranges
                0x0000000000000ce0       0x20 ../build/output/libraries/libproxies.a(PROXY_select.o)
 .debug_aranges
                0x0000000000000d00       0x20 ../build/output/libraries/libproxies.a(PROXY_sem_post.o)
 .debug_aranges
                0x0000000000000d20       0x20 ../build/output/libraries/libproxies.a(PROXY_sem_wait.o)
 .debug_aranges
                0x0000000000000d40       0x20 ../build/output/libraries/libproxies.a(PROXY_sendto.o)
 .debug_aranges
                0x0000000000000d60       0x20 ../build/output/libraries/libproxies.a(PROXY_set_errno.o)
 .debug_aranges
                0x0000000000000d80       0x20 ../build/output/libraries/libproxies.a(PROXY_setsockopt.o)
 .debug_aranges
                0x0000000000000da0       0x20 ../build/output/libraries/libproxies.a(PROXY_socket.o)
 .debug_aranges
                0x0000000000000dc0       0x20 ../build/output/libraries/libproxies.a(PROXY_stat.o)
 .debug_aranges
                0x0000000000000de0       0x20 ../build/output/libraries/libproxies.a(PROXY_statfs.o)
 .debug_aranges
                0x0000000000000e00       0x20 ../build/output/libraries/libproxies.a(PROXY_task_create.o)
 .debug_aranges
                0x0000000000000e20       0x20 ../build/output/libraries/libproxies.a(PROXY_umount.o)
 .debug_aranges
                0x0000000000000e40       0x20 ../build/output/libraries/libproxies.a(PROXY_unlink.o)
 .debug_aranges
                0x0000000000000e60       0x20 ../build/output/libraries/libproxies.a(PROXY_up_assert.o)
 .debug_aranges
                0x0000000000000e80       0x20 ../build/output/libraries/libproxies.a(PROXY_write.o)
 .debug_aranges
                0x0000000000000ea0       0x20 ../build/output/libraries/libuc.a(lib_sprintf.o)
 .debug_aranges
                0x0000000000000ec0       0x20 ../build/output/libraries/libuc.a(lib_asprintf.o)
 .debug_aranges
                0x0000000000000ee0       0x20 ../build/output/libraries/libuc.a(lib_snprintf.o)
 .debug_aranges
                0x0000000000000f00       0x20 ../build/output/libraries/libuc.a(lib_vasprintf.o)
 .debug_aranges
                0x0000000000000f20       0x28 ../build/output/libraries/libuc.a(lib_memoutstream.o)
 .debug_aranges
                0x0000000000000f48       0x28 ../build/output/libraries/libuc.a(lib_nulloutstream.o)
 .debug_aranges
                0x0000000000000f70       0x20 ../build/output/libraries/libuc.a(lib_fwrite.o)
 .debug_aranges
                0x0000000000000f90       0x20 ../build/output/libraries/libuc.a(lib_fputs.o)
 .debug_aranges
                0x0000000000000fb0       0x20 ../build/output/libraries/libuc.a(lib_fprintf.o)
 .debug_aranges
                0x0000000000000fd0       0x20 ../build/output/libraries/libuc.a(lib_perror.o)
 .debug_aranges
                0x0000000000000ff0       0x20 ../build/output/libraries/libuc.a(lib_abort.o)
 .debug_aranges
                0x0000000000001010       0x20 ../build/output/libraries/libuc.a(lib_strtol.o)
 .debug_aranges
                0x0000000000001030       0x20 ../build/output/libraries/libuc.a(lib_strtoul.o)
 .debug_aranges
                0x0000000000001050       0x20 ../build/output/libraries/libuc.a(lib_checkbase.o)
 .debug_aranges
                0x0000000000001070       0x20 ../build/output/libraries/libuc.a(lib_getopt.o)
 .debug_aranges
                0x0000000000001090       0x20 ../build/output/libraries/libuc.a(lib_chdir.o)
 .debug_aranges
                0x00000000000010b0       0x20 ../build/output/libraries/libuc.a(lib_usleep.o)
 .debug_aranges
                0x00000000000010d0       0x28 ../build/output/libraries/libuc.a(lib_syslog.o)
 .debug_aranges
                0x00000000000010f8       0x20 ../build/output/libraries/libuc.a(lib_setlogmask.o)
 .debug_aranges
                0x0000000000001118       0x20 ../build/output/libraries/libuc.a(lib_isbasedigit.o)
 .debug_aranges
                0x0000000000001138       0x20 ../build/output/libraries/libuc.a(lib_memset.o)
 .debug_aranges
                0x0000000000001158       0x20 ../build/output/libraries/libuc.a(lib_memcmp.o)
 .debug_aranges
                0x0000000000001178       0x20 ../build/output/libraries/libuc.a(lib_memmove.o)
 .debug_aranges
                0x0000000000001198       0x20 ../build/output/libraries/libuc.a(lib_skipspace.o)
 .debug_aranges
                0x00000000000011b8       0x20 ../build/output/libraries/libuc.a(lib_strchr.o)
 .debug_aranges
                0x00000000000011d8       0x20 ../build/output/libraries/libuc.a(lib_strcmp.o)
 .debug_aranges
                0x00000000000011f8       0x20 ../build/output/libraries/libuc.a(lib_strdup.o)
 .debug_aranges
                0x0000000000001218       0x20 ../build/output/libraries/libuc.a(lib_strerror.o)
 .debug_aranges
                0x0000000000001238       0x20 ../build/output/libraries/libuc.a(lib_strlen.o)
 .debug_aranges
                0x0000000000001258       0x20 ../build/output/libraries/libuc.a(lib_strncasecmp.o)
 .debug_aranges
                0x0000000000001278       0x20 ../build/output/libraries/libuc.a(lib_strncmp.o)
 .debug_aranges
                0x0000000000001298       0x20 ../build/output/libraries/libuc.a(lib_strncpy.o)
 .debug_aranges
                0x00000000000012b8       0x20 ../build/output/libraries/libuc.a(lib_strstr.o)
 .debug_aranges
                0x00000000000012d8       0x20 ../build/output/libraries/libuc.a(lib_strtokr.o)
 .debug_aranges
                0x00000000000012f8       0x20 ../build/output/libraries/libuc.a(lib_vikmemcpy.o)
 .debug_aranges
                0x0000000000001318       0x20 ../build/output/libraries/libuc.a(lib_etherntoa.o)
 .debug_aranges
                0x0000000000001338       0x20 ../build/output/libraries/libuc.a(lib_inetaddr.o)
 .debug_aranges
                0x0000000000001358       0x20 ../build/output/libraries/libuc.a(lib_inetntoa.o)
 .debug_aranges
                0x0000000000001378       0x20 ../build/output/libraries/libuc.a(lib_inetntop.o)
 .debug_aranges
                0x0000000000001398       0x20 ../build/output/libraries/libuc.a(lib_inetpton.o)
 .debug_aranges
                0x00000000000013b8       0x20 ../build/output/libraries/libuc.a(lib_freeaddrinfo.o)
 .debug_aranges
                0x00000000000013d8       0x20 ../build/output/libraries/libuc.a(lib_getaddrinfo.o)
 .debug_aranges
                0x00000000000013f8       0x20 ../build/output/libraries/libuc.a(lib_gethostbyname.o)
 .debug_aranges
                0x0000000000001418       0x20 ../build/output/libraries/libuc.a(lib_strftime.o)
 .debug_aranges
                0x0000000000001438       0x20 ../build/output/libraries/libuc.a(lib_daysbeforemonth.o)
 .debug_aranges
                0x0000000000001458       0x20 ../build/output/libraries/libuc.a(lib_isleapyear.o)
 .debug_aranges
                0x0000000000001478       0x20 ../build/output/libraries/libuc.a(lib_time.o)
 .debug_aranges
                0x0000000000001498       0xf0 ../build/output/libraries/libuc.a(lib_localtime.o)
 .debug_aranges
                0x0000000000001588       0x20 ../build/output/libraries/libuc.a(lib_dirname.o)
 .debug_aranges
                0x00000000000015a8       0x20 ../build/output/libraries/libuc.a(lib_ioctl.o)
 .debug_aranges
                0x00000000000015c8       0x38 ../build/output/libraries/libuc.a(lib_sscanf.o)
 .debug_aranges
                0x0000000000001600       0x28 ../build/output/libraries/libuc.a(lib_rawoutstream.o)
 .debug_aranges
                0x0000000000001628       0x20 ../build/output/libraries/libuc.a(lib_strtoll.o)
 .debug_aranges
                0x0000000000001648       0x20 ../build/output/libraries/libuc.a(lib_strtoull.o)
 .debug_aranges
                0x0000000000001668       0x20 ../build/output/libraries/libuc.a(lib_strtod.o)
 .debug_aranges
                0x0000000000001688       0x20 ../build/output/libraries/libuc.a(lib_strtof.o)
 .debug_aranges
                0x00000000000016a8       0x20 ../build/output/libraries/libuc.a(lib_access.o)
 .debug_aranges
                0x00000000000016c8       0x20 ../build/output/libraries/libuc.a(lib_strcspn.o)
 .debug_aranges
                0x00000000000016e8       0x20 ../build/output/libraries/libuc.a(lib_strncat.o)
 .debug_aranges
                0x0000000000001708       0x20 ../build/output/libraries/libuc.a(lib_strrchr.o)
 .debug_aranges
                0x0000000000001728       0x20 ../build/output/libraries/libuc.a(lib_htons.o)
 .debug_aranges
                0x0000000000001748       0x68 ../build/output/libraries/libumm.a(mm_heapinfo_utils.o)
 .debug_aranges
                0x00000000000017b0       0x20 ../build/output/libraries/libumm.a(umm_free.o)
 .debug_aranges
                0x00000000000017d0       0x20 ../build/output/libraries/libumm.a(umm_malloc.o)
 .debug_aranges
                0x00000000000017f0       0x20 ../build/output/libraries/libumm.a(umm_realloc.o)
 .debug_aranges
                0x0000000000001810       0x20 ../build/output/libraries/libumm.a(umm_zalloc.o)
 .debug_aranges
                0x0000000000001830       0x40 ../build/output/libraries/libumm.a(mm_sem.o)
 .debug_aranges
                0x0000000000001870       0x20 ../build/output/libraries/libumm.a(mm_free.o)
 .debug_aranges
                0x0000000000001890       0x20 ../build/output/libraries/libumm.a(mm_malloc.o)
 .debug_aranges
                0x00000000000018b0       0x20 ../build/output/libraries/libumm.a(mm_realloc.o)
 .debug_aranges
                0x00000000000018d0       0x20 ../build/output/libraries/libumm.a(mm_zalloc.o)
 .debug_aranges
                0x00000000000018f0       0x30 ../build/output/libraries/libumm.a(mm_getheap.o)
 .debug_aranges
                0x0000000000001920       0x20 ../build/output/libraries/libumm.a(mm_manage_allocfail.o)
 .debug_aranges
                0x0000000000001940       0x28 ../build/output/libraries/libumm.a(mm_heap_dbg.o)
 .debug_aranges
                0x0000000000001968       0x20 ../build/output/libraries/libumm.a(umm_initialize.o)
 .debug_aranges
                0x0000000000001988       0x28 ../build/output/libraries/libumm.a(mm_initialize.o)
 .debug_aranges
                0x00000000000019b0       0x20 ../build/output/libraries/libumm.a(mm_addfreechunk.o)
 .debug_aranges
                0x00000000000019d0       0x20 ../build/output/libraries/libumm.a(mm_size2ndx.o)
 .debug_aranges
                0x00000000000019f0       0x20 ../build/output/libraries/libumm.a(mm_shrinkchunk.o)
 .debug_aranges
                0x0000000000001a10       0x38 ../build/output/libraries/libuwque.a(uwork_thread.o)
 .debug_aranges
                0x0000000000001a48       0x20 ../build/output/libraries/libuwque.a(work_process.o)
 .debug_aranges
                0x0000000000001a68       0x28 ../build/output/libraries/libuwque.a(uwork_lock.o)
 .debug_aranges
                0x0000000000001a90       0x30 ../build/output/libraries/libframework.a(wifi_manager_msghandler.o)
 .debug_aranges
                0x0000000000001ac0       0x38 ../build/output/libraries/libframework.a(security_common.o)
 .debug_aranges
                0x0000000000001af8       0x80 ../build/output/libraries/libframework.a(security_utils.o)
 .debug_aranges
                0x0000000000001b78       0x40 ../build/output/libraries/libframework.a(security_ss.o)
 .debug_aranges
                0x0000000000001bb8       0x30 ../build/output/libraries/libframework.a(ble_manager_msghandler.o)
 .debug_aranges
                0x0000000000001be8      0x110 ../build/output/libraries/libframework.a(seclink.o)
 .debug_aranges
                0x0000000000001cf8       0x30 ../build/output/libraries/libframework.a(wifi_manager_message.o)
 .debug_aranges
                0x0000000000001d28       0xa8 ../build/output/libraries/libframework.a(wifi_manager_state.o)
 .debug_aranges
                0x0000000000001dd0       0x28 ../build/output/libraries/libframework.a(wifi_manager_stats.o)
 .debug_aranges
                0x0000000000001df8       0x20 ../build/output/libraries/libframework.a(wifi_manager_event.o)
 .debug_aranges
                0x0000000000001e18       0x30 ../build/output/libraries/libframework.a(wifi_manager_utils.o)
 .debug_aranges
                0x0000000000001e48       0x28 ../build/output/libraries/libframework.a(wifi_manager_info.o)
 .debug_aranges
                0x0000000000001e70       0x28 ../build/output/libraries/libframework.a(wifi_manager_dhcpc.o)
 .debug_aranges
                0x0000000000001e98       0x60 ../build/output/libraries/libframework.a(wifi_manager_dhcps.o)
 .debug_aranges
                0x0000000000001ef8       0x80 ../build/output/libraries/libframework.a(wifi_manager_lwnl.o)
 .debug_aranges
                0x0000000000001f78       0x20 ../build/output/libraries/libframework.a(wifi_manager_lwnl_listener.o)
 .debug_aranges
                0x0000000000001f98       0x30 ../build/output/libraries/libframework.a(ble_manager_message.o)
 .debug_aranges
                0x0000000000001fc8       0x38 ../build/output/libraries/libframework.a(wifi_manager_cb.o)
 .debug_aranges
                0x0000000000002000       0x20 ../build/output/libraries/libframework.a(ble_manager_lwnl_listener.o)
 .debug_aranges
                0x0000000000002020       0x30 ../build/output/libraries/libframework.a(ble_manager_state.o)
 .debug_aranges
                0x0000000000002050       0x38 ../build/output/libraries/libframework.a(ble_manager_autoconnect.o)
 .debug_aranges
                0x0000000000002088       0x48 ../build/output/libraries/libframework.a(ble_queue.o)
 .debug_aranges
                0x00000000000020d0      0x1c0 ../build/output/libraries/libframework.a(ble_manager_api.o)
 .debug_aranges
                0x0000000000002290      0x198 ../build/output/libraries/libframework.a(ble_manager_lwnl.o)
 .debug_aranges
                0x0000000000002428       0x18 ../build/output/libraries/libcxx.a(libxx_newlib_impure.o)
 .debug_aranges
                0x0000000000002440       0x28 ../build/output/libraries/libcxx.a(libxx_cxa_atexit.o)
 .debug_aranges
                0x0000000000002468       0x28 ../build/output/libraries/libexternal.a(netlib.o)
 .debug_aranges
                0x0000000000002490       0x28 ../build/output/libraries/libexternal.a(netlib_setifstatus.o)
 .debug_aranges
                0x00000000000024b8       0x20 ../build/output/libraries/libexternal.a(netlib_getifstatus.o)
 .debug_aranges
                0x00000000000024d8       0x28 ../build/output/libraries/libexternal.a(netlib_getifaddrs.o)
 .debug_aranges
                0x0000000000002500       0x20 ../build/output/libraries/libexternal.a(netlib_getstats.o)
 .debug_aranges
                0x0000000000002520       0x28 ../build/output/libraries/libexternal.a(netlib_netmon.o)
 .debug_aranges
                0x0000000000002548       0x20 ../build/output/libraries/libexternal.a(netlib_setipv4addr.o)
 .debug_aranges
                0x0000000000002568       0x20 ../build/output/libraries/libexternal.a(netlib_getipv4addr.o)
 .debug_aranges
                0x0000000000002588       0x20 ../build/output/libraries/libexternal.a(netlib_setdripv4addr.o)
 .debug_aranges
                0x00000000000025a8       0x20 ../build/output/libraries/libexternal.a(netlib_setipv4netmask.o)
 .debug_aranges
                0x00000000000025c8       0x20 ../build/output/libraries/libexternal.a(netlib_setipv6addr.o)
 .debug_aranges
                0x00000000000025e8       0x28 ../build/output/libraries/libexternal.a(netlib_setmacaddr.o)
 .debug_aranges
                0x0000000000002610       0x20 ../build/output/libraries/libexternal.a(netlib_getmacaddr.o)
 .debug_aranges
                0x0000000000002630       0x20 ../build/output/libraries/libexternal.a(netlib_setdnsserver.o)
 .debug_aranges
                0x0000000000002650       0x48 ../build/output/libraries/libexternal.a(dhcpd_lwip.o)
 .debug_aranges
                0x0000000000002698       0x30 ../build/output/libraries/libexternal.a(dhcpc_lwip.o)
 .debug_aranges
                0x00000000000026c8       0x20 ../build/output/libraries/libproxies.a(PROXY_bind.o)
 .debug_aranges
                0x00000000000026e8       0x20 ../build/output/libraries/libproxies.a(PROXY_fs_ioctl.o)
 .debug_aranges
                0x0000000000002708       0x20 ../build/output/libraries/libproxies.a(PROXY_gettimeofday.o)
 .debug_aranges
                0x0000000000002728       0x20 ../build/output/libraries/libproxies.a(PROXY_mkfifo.o)
 .debug_aranges
                0x0000000000002748       0x20 ../build/output/libraries/libproxies.a(PROXY_mq_getattr.o)
 .debug_aranges
                0x0000000000002768       0x20 ../build/output/libraries/libproxies.a(PROXY_mq_timedreceive.o)
 .debug_aranges
                0x0000000000002788       0x20 ../build/output/libraries/libproxies.a(PROXY_on_exit.o)
 .debug_aranges
                0x00000000000027a8       0x20 ../build/output/libraries/libproxies.a(PROXY_pthread_create.o)
 .debug_aranges
                0x00000000000027c8       0x20 ../build/output/libraries/libproxies.a(PROXY_pthread_detach.o)
 .debug_aranges
                0x00000000000027e8       0x20 ../build/output/libraries/libproxies.a(PROXY_pthread_join.o)
 .debug_aranges
                0x0000000000002808       0x20 ../build/output/libraries/libproxies.a(PROXY_sched_lock.o)
 .debug_aranges
                0x0000000000002828       0x20 ../build/output/libraries/libproxies.a(PROXY_sched_unlock.o)
 .debug_aranges
                0x0000000000002848       0x20 ../build/output/libraries/libproxies.a(PROXY_sem_destroy.o)
 .debug_aranges
                0x0000000000002868       0x20 ../build/output/libraries/libproxies.a(PROXY_sem_trywait.o)
 .debug_aranges
                0x0000000000002888       0x20 ../build/output/libraries/libproxies.a(PROXY_setenv.o)
 .debug_aranges
                0x00000000000028a8       0x20 ../build/output/libraries/libproxies.a(PROXY_sigwaitinfo.o)
 .debug_aranges
                0x00000000000028c8       0x28 ../build/output/libraries/libuc.a(lib_lowsyslog.o)
 .debug_aranges
                0x00000000000028f0       0x20 ../build/output/libraries/libuc.a(pthread_attrinit.o)
 .debug_aranges
                0x0000000000002910       0x20 ../build/output/libraries/libuc.a(pthread_attrsetstacksize.o)
 .debug_aranges
                0x0000000000002930       0x20 ../build/output/libraries/libuc.a(pthread_attrsetschedparam.o)
 .debug_aranges
                0x0000000000002950       0x20 ../build/output/libraries/libuc.a(sig_addset.o)
 .debug_aranges
                0x0000000000002970       0x20 ../build/output/libraries/libuc.a(sig_emptyset.o)
 .debug_aranges
                0x0000000000002990       0x20 ../build/output/libraries/libuc.a(dq_rem.o)
 .debug_aranges
                0x00000000000029b0       0x28 ../build/output/libraries/libuc.a(lib_lowoutstream.o)
 .debug_aranges
                0x00000000000029d8       0x20 ../build/output/libraries/libumm.a(umm_calloc.o)
 .debug_aranges
                0x00000000000029f8       0x20 ../build/output/libraries/libumm.a(mm_calloc.o)
                0x00000000607f0000                _eapp_heap = ABSOLUTE ((ORIGIN (usram) + LENGTH (usram)))
                0x0000000060600000                _sapp_ram = ABSOLUTE (ORIGIN (usram))
                0x00000000607f0000                _eapp_ram = ABSOLUTE ((ORIGIN (usram) + LENGTH (usram)))
                0x000000000e45a000                _eapp_flash = ABSOLUTE ((ORIGIN (uflash) + LENGTH (uflash)))
LOAD /root/tizenrt/os/userspace/up_userspace_common.o
START GROUP
LOAD ../build/output/libraries/libproxies.a
LOAD ../build/output/libraries/libuc.a
LOAD ../build/output/libraries/libumm.a
LOAD ../build/output/libraries/libuarch.a
LOAD ../build/output/libraries/libuwque.a
LOAD ../build/output/libraries/libframework.a
LOAD ../build/output/libraries/libcxx.a
LOAD ../build/output/libraries/libexternal.a
LOAD ../build/output/libraries/libiotivity.a
LOAD ../build/output/libraries/libapps.a
LOAD /bin/../lib/gcc/arm-none-eabi/10.3.1/thumb/v8-a+simd/hard/libgcc.a
LOAD /bin/../lib/gcc/arm-none-eabi/10.3.1/../../../../arm-none-eabi/lib/thumb/v8-a+simd/hard/libsupc++.a
END GROUP
OUTPUT(../build/output/bin/common elf32-littlearm)
LOAD linker stubs

.debug_str      0x0000000000000000     0xba6f
 .debug_str     0x0000000000000000      0x3d9 /root/tizenrt/os/userspace/up_userspace_common.o
                                        0x473 (size before relaxing)
 .debug_str     0x00000000000003d9       0x51 ../build/output/libraries/libproxies.a(PROXY_getpid.o)
                                        0x1f1 (size before relaxing)
 .debug_str     0x000000000000042a      0x73d ../build/output/libraries/libproxies.a(PROXY_sched_getstreams.o)
                                        0xad8 (size before relaxing)
 .debug_str     0x0000000000000b67       0x42 ../build/output/libraries/libuc.a(lib_printf.o)
                                        0x1e1 (size before relaxing)
 .debug_str     0x0000000000000ba9       0x27 ../build/output/libraries/libuc.a(lib_fgetc.o)
                                        0xaae (size before relaxing)
 .debug_str     0x0000000000000bd0       0x9a ../build/output/libraries/libuc.a(lib_vfprintf.o)
                                        0xb5e (size before relaxing)
 .debug_str     0x0000000000000c6a       0x69 ../build/output/libraries/libuc.a(lib_stdoutstream.o)
                                        0xb68 (size before relaxing)
 .debug_str     0x0000000000000cd3       0x23 ../build/output/libraries/libuc.a(lib_libnoflush.o)
                                        0x1f0 (size before relaxing)
 .debug_str     0x0000000000000cf6       0x50 ../build/output/libraries/libuc.a(lib_sleep.o)
                                        0x207 (size before relaxing)
 .debug_str     0x0000000000000d46       0x27 ../build/output/libraries/libuc.a(task_startup.o)
                                        0x1f8 (size before relaxing)
 .debug_str     0x0000000000000d6d       0x33 ../build/output/libraries/libuc.a(pthread_startup.o)
                                        0x222 (size before relaxing)
 .debug_str     0x0000000000000da0       0x48 ../build/output/libraries/libuc.a(lib_filesem.o)
                                        0xb10 (size before relaxing)
 .debug_str     0x0000000000000de8       0xb9 ../build/output/libraries/libuc.a(lib_libvsprintf.o)
                                        0x32d (size before relaxing)
 .debug_str     0x0000000000000ea1       0x68 ../build/output/libraries/libuc.a(lib_libfread.o)
                                        0xb34 (size before relaxing)
 .debug_str     0x0000000000000f09       0x33 ../build/output/libraries/libuc.a(lib_libfflush.o)
                                        0xafa (size before relaxing)
 .debug_str     0x0000000000000f3c       0x14 ../build/output/libraries/libuc.a(lib_wrflush.o)
                                        0xab7 (size before relaxing)
 .debug_str     0x0000000000000f50       0x1d ../build/output/libraries/libuc.a(lib_fputc.o)
                                        0xaba (size before relaxing)
 .debug_str     0x0000000000000f6d       0x1c ../build/output/libraries/libuc.a(lib_strnlen.o)
                                        0x1cb (size before relaxing)
 .debug_str     0x0000000000000f89       0x1d ../build/output/libraries/libuc.a(sem_init.o)
                                        0x22a (size before relaxing)
 .debug_str     0x0000000000000fa6       0x8d ../build/output/libraries/libuc.a(lib_dtoa_engine.o)
                                        0x27d (size before relaxing)
 .debug_str     0x0000000000001033       0x19 ../build/output/libraries/libuc.a(lib_ultoa_invert.o)
                                        0x15a (size before relaxing)
 .debug_str     0x000000000000104c       0x58 ../build/output/libraries/libuc.a(lib_libfwrite.o)
                                        0xb35 (size before relaxing)
 .debug_str     0x00000000000010a4       0x23 ../build/output/libraries/libuc.a(lib_rdflush.o)
                                        0xaeb (size before relaxing)
 .debug_str     0x00000000000010c7       0x16 ../build/output/libraries/libuc.a(lib_dtoa_data.o)
                                        0x1db (size before relaxing)
 .debug_str     0x00000000000010dd       0x1f ../build/output/libraries/libuc.a(lib_fseek.o)
                                        0xad0 (size before relaxing)
 .debug_str     0x00000000000010fc       0x49 ../build/output/libraries/libuarch.a(arm_signal_handler.o)
 .debug_str     0x0000000000001145      0x2ea ../build/output/libraries/libframework.a(binary_manager_notify.o)
                                        0x490 (size before relaxing)
 .debug_str     0x000000000000142f       0xe5 ../build/output/libraries/libframework.a(binary_manager_interface.o)
                                        0x835 (size before relaxing)
 .debug_str     0x0000000000001514      0x116 ../build/output/libraries/libapps.a(init.o)
                                        0x2b5 (size before relaxing)
 .debug_str     0x000000000000162a       0x92 ../build/output/libraries/libapps.a(builtin_list.o)
                                        0x23d (size before relaxing)
 .debug_str     0x00000000000016bc      0x6f3 ../build/output/libraries/libapps.a(tash_command.o)
                                       0x1246 (size before relaxing)
 .debug_str     0x0000000000001daf       0x1f ../build/output/libraries/libapps.a(tash_sleep.o)
                                        0x1d3 (size before relaxing)
 .debug_str     0x0000000000001dce      0x1db ../build/output/libraries/libapps.a(tash_main.o)
                                        0x4b4 (size before relaxing)
 .debug_str     0x0000000000001fa9       0x59 ../build/output/libraries/libapps.a(mem_leak_checker_main.o)
                                        0x3bc (size before relaxing)
 .debug_str     0x0000000000002002       0x91 ../build/output/libraries/libapps.a(sysinfo.o)
                                        0x23e (size before relaxing)
 .debug_str     0x0000000000002093       0x38 ../build/output/libraries/libapps.a(systemcmd.o)
                                        0x220 (size before relaxing)
 .debug_str     0x00000000000020cb      0x2eb ../build/output/libraries/libapps.a(security_level_cmd.o)
                                        0x6c9 (size before relaxing)
 .debug_str     0x00000000000023b6      0x432 ../build/output/libraries/libapps.a(fscmd.o)
                                        0x7ca (size before relaxing)
 .debug_str     0x00000000000027e8      0x46a ../build/output/libraries/libapps.a(netcmd.o)
                                        0x806 (size before relaxing)
 .debug_str     0x0000000000002c52      0x690 ../build/output/libraries/libapps.a(netcmd_ping.o)
                                        0xac4 (size before relaxing)
 .debug_str     0x00000000000032e2       0x9b ../build/output/libraries/libapps.a(netcmd_netmon.o)
                                        0x26c (size before relaxing)
 .debug_str     0x000000000000337d       0x62 ../build/output/libraries/libapps.a(netcmd_dhcpd.o)
                                        0x254 (size before relaxing)
 .debug_str     0x00000000000033df       0xe3 ../build/output/libraries/libapps.a(utils_date.o)
                                        0x351 (size before relaxing)
 .debug_str     0x00000000000034c2       0x42 ../build/output/libraries/libapps.a(utils_free.o)
                                        0x21a (size before relaxing)
 .debug_str     0x0000000000003504      0x1fe ../build/output/libraries/libapps.a(utils_heapinfo.o)
                                        0x44c (size before relaxing)
 .debug_str     0x0000000000003702       0x32 ../build/output/libraries/libapps.a(utils_prodconfig.o)
                                        0x203 (size before relaxing)
 .debug_str     0x0000000000003734       0x5b ../build/output/libraries/libapps.a(utils_ps.o)
                                        0x3b4 (size before relaxing)
 .debug_str     0x000000000000378f       0x40 ../build/output/libraries/libapps.a(utils_uptime.o)
                                        0x203 (size before relaxing)
 .debug_str     0x00000000000037cf       0x61 ../build/output/libraries/libapps.a(utils_proc.o)
                                        0x2c1 (size before relaxing)
 .debug_str     0x0000000000003830      0x354 ../build/output/libraries/libapps.a(helloxx_main.o)
                                        0xda4 (size before relaxing)
 .debug_str     0x0000000000003b84       0x3a ../build/output/libraries/libapps.a(hello_main.o)
                                        0x1ca (size before relaxing)
 .debug_str     0x0000000000003bbe        0xc ../build/output/libraries/libapps.a(tash_init.o)
                                        0x1c7 (size before relaxing)
 .debug_str     0x0000000000003bca       0x7f ../build/output/libraries/libapps.a(tash_pm.o)
                                        0x2d4 (size before relaxing)
 .debug_str     0x0000000000003c49       0x93 ../build/output/libraries/libapps.a(netdb_main.o)
                                        0x26e (size before relaxing)
 .debug_str     0x0000000000003cdc       0x14 ../build/output/libraries/libapps.a(fs_getpath.o)
                                        0x219 (size before relaxing)
 .debug_str     0x0000000000003cf0       0x39 ../build/output/libraries/libproxies.a(PROXY_boardctl.o)
                                        0x1f4 (size before relaxing)
 .debug_str     0x0000000000003d29       0x16 ../build/output/libraries/libproxies.a(PROXY_clock.o)
                                        0x1f3 (size before relaxing)
 .debug_str     0x0000000000003d3f       0x28 ../build/output/libraries/libproxies.a(PROXY_clock_gettime.o)
                                        0x24b (size before relaxing)
 .debug_str     0x0000000000003d67       0x1e ../build/output/libraries/libproxies.a(PROXY_clock_settime.o)
                                        0x24b (size before relaxing)
 .debug_str     0x0000000000003d85       0x20 ../build/output/libraries/libproxies.a(PROXY_close.o)
                                        0x1e3 (size before relaxing)
 .debug_str     0x0000000000003da5       0x19 ../build/output/libraries/libproxies.a(PROXY_closedir.o)
                                        0x1e9 (size before relaxing)
 .debug_str     0x0000000000003dbe       0x15 ../build/output/libraries/libproxies.a(PROXY_exit.o)
                                        0x1e1 (size before relaxing)
 .debug_str     0x0000000000003dd3       0x1a ../build/output/libraries/libproxies.a(PROXY_get_errno.o)
                                        0x1bb (size before relaxing)
 .debug_str     0x0000000000003ded       0x17 ../build/output/libraries/libproxies.a(PROXY_getenv.o)
                                        0x1e5 (size before relaxing)
 .debug_str     0x0000000000003e04       0x2b ../build/output/libraries/libproxies.a(PROXY_lseek.o)
                                        0x210 (size before relaxing)
 .debug_str     0x0000000000003e2f       0x16 ../build/output/libraries/libproxies.a(PROXY_mkdir.o)
                                        0x1f5 (size before relaxing)
 .debug_str     0x0000000000003e45       0x36 ../build/output/libraries/libproxies.a(PROXY_mount.o)
                                        0x1fc (size before relaxing)
 .debug_str     0x0000000000003e7b       0x19 ../build/output/libraries/libproxies.a(PROXY_mq_close.o)
                                        0x1f6 (size before relaxing)
 .debug_str     0x0000000000003e94       0x2d ../build/output/libraries/libproxies.a(PROXY_mq_open.o)
                                        0x242 (size before relaxing)
 .debug_str     0x0000000000003ec1       0x25 ../build/output/libraries/libproxies.a(PROXY_mq_receive.o)
                                        0x24e (size before relaxing)
 .debug_str     0x0000000000003ee6       0x18 ../build/output/libraries/libproxies.a(PROXY_mq_send.o)
                                        0x22f (size before relaxing)
 .debug_str     0x0000000000003efe       0x1a ../build/output/libraries/libproxies.a(PROXY_mq_unlink.o)
                                        0x1eb (size before relaxing)
 .debug_str     0x0000000000003f18       0x1a ../build/output/libraries/libproxies.a(PROXY_nanosleep.o)
                                        0x228 (size before relaxing)
 .debug_str     0x0000000000003f32       0x15 ../build/output/libraries/libproxies.a(PROXY_open.o)
                                        0x22f (size before relaxing)
 .debug_str     0x0000000000003f47       0x18 ../build/output/libraries/libproxies.a(PROXY_opendir.o)
                                        0x1e7 (size before relaxing)
 .debug_str     0x0000000000003f5f       0x16 ../build/output/libraries/libproxies.a(PROXY_prctl.o)
                                        0x20c (size before relaxing)
 .debug_str     0x0000000000003f75       0x1d ../build/output/libraries/libproxies.a(PROXY_pthread_exit.o)
                                        0x200 (size before relaxing)
 .debug_str     0x0000000000003f92       0x23 ../build/output/libraries/libproxies.a(PROXY_pthread_mutex_lock.o)
                                        0x290 (size before relaxing)
 .debug_str     0x0000000000003fb5       0x25 ../build/output/libraries/libproxies.a(PROXY_pthread_mutex_unlock.o)
                                        0x294 (size before relaxing)
 .debug_str     0x0000000000003fda       0x15 ../build/output/libraries/libproxies.a(PROXY_read.o)
                                        0x22a (size before relaxing)
 .debug_str     0x0000000000003fef       0x18 ../build/output/libraries/libproxies.a(PROXY_readdir.o)
                                        0x20d (size before relaxing)
 .debug_str     0x0000000000004007       0x19 ../build/output/libraries/libproxies.a(PROXY_recvfrom.o)
                                        0x284 (size before relaxing)
 .debug_str     0x0000000000004020       0x17 ../build/output/libraries/libproxies.a(PROXY_rename.o)
                                        0x1f0 (size before relaxing)
 .debug_str     0x0000000000004037       0x16 ../build/output/libraries/libproxies.a(PROXY_rmdir.o)
                                        0x1e3 (size before relaxing)
 .debug_str     0x000000000000404d       0x17 ../build/output/libraries/libproxies.a(PROXY_select.o)
                                        0x262 (size before relaxing)
 .debug_str     0x0000000000004064       0x19 ../build/output/libraries/libproxies.a(PROXY_sem_post.o)
                                        0x22b (size before relaxing)
 .debug_str     0x000000000000407d       0x19 ../build/output/libraries/libproxies.a(PROXY_sem_wait.o)
                                        0x22b (size before relaxing)
 .debug_str     0x0000000000004096       0x17 ../build/output/libraries/libproxies.a(PROXY_sendto.o)
                                        0x280 (size before relaxing)
 .debug_str     0x00000000000040ad       0x1a ../build/output/libraries/libproxies.a(PROXY_set_errno.o)
                                        0x1c6 (size before relaxing)
 .debug_str     0x00000000000040c7       0x1b ../build/output/libraries/libproxies.a(PROXY_setsockopt.o)
                                        0x223 (size before relaxing)
 .debug_str     0x00000000000040e2       0x17 ../build/output/libraries/libproxies.a(PROXY_socket.o)
                                        0x1fb (size before relaxing)
 .debug_str     0x00000000000040f9       0x15 ../build/output/libraries/libproxies.a(PROXY_stat.o)
                                        0x288 (size before relaxing)
 .debug_str     0x000000000000410e       0x17 ../build/output/libraries/libproxies.a(PROXY_statfs.o)
                                        0x264 (size before relaxing)
 .debug_str     0x0000000000004125       0x1c ../build/output/libraries/libproxies.a(PROXY_task_create.o)
                                        0x222 (size before relaxing)
 .debug_str     0x0000000000004141       0x17 ../build/output/libraries/libproxies.a(PROXY_umount.o)
                                        0x1c0 (size before relaxing)
 .debug_str     0x0000000000004158       0x17 ../build/output/libraries/libproxies.a(PROXY_unlink.o)
                                        0x1e5 (size before relaxing)
 .debug_str     0x000000000000416f       0x1a ../build/output/libraries/libproxies.a(PROXY_up_assert.o)
                                        0x1e2 (size before relaxing)
 .debug_str     0x0000000000004189       0x16 ../build/output/libraries/libproxies.a(PROXY_write.o)
                                        0x22c (size before relaxing)
 .debug_str     0x000000000000419f       0x38 ../build/output/libraries/libuc.a(lib_sprintf.o)
                                        0x268 (size before relaxing)
 .debug_str     0x00000000000041d7       0x2e ../build/output/libraries/libuc.a(lib_asprintf.o)
                                        0x1ee (size before relaxing)
 .debug_str     0x0000000000004205       0x27 ../build/output/libraries/libuc.a(lib_snprintf.o)
                                        0x29d (size before relaxing)
 .debug_str     0x000000000000422c       0x16 ../build/output/libraries/libuc.a(lib_vasprintf.o)
                                        0x2ce (size before relaxing)
 .debug_str     0x0000000000004242       0x31 ../build/output/libraries/libuc.a(lib_memoutstream.o)
                                        0x27f (size before relaxing)
 .debug_str     0x0000000000004273       0x2d ../build/output/libraries/libuc.a(lib_nulloutstream.o)
                                        0x235 (size before relaxing)
 .debug_str     0x00000000000042a0       0x33 ../build/output/libraries/libuc.a(lib_fwrite.o)
                                        0xae4 (size before relaxing)
 .debug_str     0x00000000000042d3       0x12 ../build/output/libraries/libuc.a(lib_fputs.o)
                                        0xad7 (size before relaxing)
 .debug_str     0x00000000000042e5       0x14 ../build/output/libraries/libuc.a(lib_fprintf.o)
                                        0xac8 (size before relaxing)
 .debug_str     0x00000000000042f9       0x13 ../build/output/libraries/libuc.a(lib_perror.o)
                                        0x1dc (size before relaxing)
 .debug_str     0x000000000000430c       0x19 ../build/output/libraries/libuc.a(lib_abort.o)
                                        0x1bc (size before relaxing)
 .debug_str     0x0000000000004325       0x42 ../build/output/libraries/libuc.a(lib_strtol.o)
                                        0x1f5 (size before relaxing)
 .debug_str     0x0000000000004367       0x33 ../build/output/libraries/libuc.a(lib_strtoul.o)
                                        0x20b (size before relaxing)
 .debug_str     0x000000000000439a       0x1c ../build/output/libraries/libuc.a(lib_checkbase.o)
                                        0x1d5 (size before relaxing)
 .debug_str     0x00000000000043b6       0x56 ../build/output/libraries/libuc.a(lib_getopt.o)
                                        0x202 (size before relaxing)
 .debug_str     0x000000000000440c       0x32 ../build/output/libraries/libuc.a(lib_chdir.o)
                                        0x2a5 (size before relaxing)
 .debug_str     0x000000000000443e       0x1f ../build/output/libraries/libuc.a(lib_usleep.o)
                                        0x202 (size before relaxing)
 .debug_str     0x000000000000445d       0x46 ../build/output/libraries/libuc.a(lib_syslog.o)
                                        0x2bf (size before relaxing)
 .debug_str     0x00000000000044a3       0x2b ../build/output/libraries/libuc.a(lib_setlogmask.o)
                                        0x1dc (size before relaxing)
 .debug_str     0x00000000000044ce       0x19 ../build/output/libraries/libuc.a(lib_isbasedigit.o)
                                        0x1ca (size before relaxing)
 .debug_str     0x00000000000044e7       0x20 ../build/output/libraries/libuc.a(lib_memset.o)
                                        0x20c (size before relaxing)
 .debug_str     0x0000000000004507       0x1b ../build/output/libraries/libuc.a(lib_memcmp.o)
                                        0x1c2 (size before relaxing)
 .debug_str     0x0000000000004522       0x15 ../build/output/libraries/libuc.a(lib_memmove.o)
                                        0x1cf (size before relaxing)
 .debug_str     0x0000000000004537       0x1f ../build/output/libraries/libuc.a(lib_skipspace.o)
                                        0x1c8 (size before relaxing)
 .debug_str     0x0000000000004556       0x14 ../build/output/libraries/libuc.a(lib_strchr.o)
                                        0x1a8 (size before relaxing)
 .debug_str     0x000000000000456a       0x14 ../build/output/libraries/libuc.a(lib_strcmp.o)
                                        0x1af (size before relaxing)
 .debug_str     0x000000000000457e       0x19 ../build/output/libraries/libuc.a(lib_strdup.o)
                                        0x1ff (size before relaxing)
 .debug_str     0x0000000000004597       0x4b ../build/output/libraries/libuc.a(lib_strerror.o)
                                        0x1f2 (size before relaxing)
 .debug_str     0x00000000000045e2       0x14 ../build/output/libraries/libuc.a(lib_strlen.o)
                                        0x1c2 (size before relaxing)
 .debug_str     0x00000000000045f6       0x21 ../build/output/libraries/libuc.a(lib_strncasecmp.o)
                                        0x1db (size before relaxing)
 .debug_str     0x0000000000004617       0x15 ../build/output/libraries/libuc.a(lib_strncmp.o)
                                        0x1cb (size before relaxing)
 .debug_str     0x000000000000462c       0x15 ../build/output/libraries/libuc.a(lib_strncpy.o)
                                        0x1c9 (size before relaxing)
 .debug_str     0x0000000000004641       0x25 ../build/output/libraries/libuc.a(lib_strstr.o)
                                        0x1cf (size before relaxing)
 .debug_str     0x0000000000004666       0x22 ../build/output/libraries/libuc.a(lib_strtokr.o)
                                        0x1cc (size before relaxing)
 .debug_str     0x0000000000004688       0x41 ../build/output/libraries/libuc.a(lib_vikmemcpy.o)
                                        0x227 (size before relaxing)
 .debug_str     0x00000000000046c9       0x14 ../build/output/libraries/libuc.a(lib_etherntoa.o)
                                        0x1f7 (size before relaxing)
 .debug_str     0x00000000000046dd       0x13 ../build/output/libraries/libuc.a(lib_inetaddr.o)
                                        0x1e9 (size before relaxing)
 .debug_str     0x00000000000046f0       0x13 ../build/output/libraries/libuc.a(lib_inetntoa.o)
                                        0x1e2 (size before relaxing)
 .debug_str     0x0000000000004703       0x50 ../build/output/libraries/libuc.a(lib_inetntop.o)
                                        0x29a (size before relaxing)
 .debug_str     0x0000000000004753       0x63 ../build/output/libraries/libuc.a(lib_inetpton.o)
                                        0x262 (size before relaxing)
 .debug_str     0x00000000000047b6      0x15f ../build/output/libraries/libuc.a(lib_freeaddrinfo.o)
                                        0x461 (size before relaxing)
 .debug_str     0x0000000000004915       0x21 ../build/output/libraries/libuc.a(lib_getaddrinfo.o)
                                        0x46d (size before relaxing)
 .debug_str     0x0000000000004936       0x51 ../build/output/libraries/libuc.a(lib_gethostbyname.o)
                                        0x4be (size before relaxing)
 .debug_str     0x0000000000004987       0x82 ../build/output/libraries/libuc.a(lib_strftime.o)
                                        0x2c7 (size before relaxing)
 .debug_str     0x0000000000004a09       0x34 ../build/output/libraries/libuc.a(lib_daysbeforemonth.o)
                                        0x202 (size before relaxing)
 .debug_str     0x0000000000004a3d       0x16 ../build/output/libraries/libuc.a(lib_isleapyear.o)
                                        0x1c2 (size before relaxing)
 .debug_str     0x0000000000004a53       0x22 ../build/output/libraries/libuc.a(lib_time.o)
                                        0x1ee (size before relaxing)
 .debug_str     0x0000000000004a75      0x51a ../build/output/libraries/libuc.a(lib_localtime.o)
                                        0x839 (size before relaxing)
 .debug_str     0x0000000000004f8f       0x33 ../build/output/libraries/libuc.a(lib_dirname.o)
                                        0x1d4 (size before relaxing)
 .debug_str     0x0000000000004fc2       0x1a ../build/output/libraries/libuc.a(lib_ioctl.o)
                                        0x1de (size before relaxing)
 .debug_str     0x0000000000004fdc       0xd0 ../build/output/libraries/libuc.a(lib_sscanf.o)
                                        0x333 (size before relaxing)
 .debug_str     0x00000000000050ac       0x3a ../build/output/libraries/libuc.a(lib_rawoutstream.o)
                                        0x276 (size before relaxing)
 .debug_str     0x00000000000050e6       0x15 ../build/output/libraries/libuc.a(lib_strtoll.o)
                                        0x1f8 (size before relaxing)
 .debug_str     0x00000000000050fb       0x16 ../build/output/libraries/libuc.a(lib_strtoull.o)
                                        0x20d (size before relaxing)
 .debug_str     0x0000000000005111       0x56 ../build/output/libraries/libuc.a(lib_strtod.o)
                                        0x214 (size before relaxing)
 .debug_str     0x0000000000005167       0x14 ../build/output/libraries/libuc.a(lib_strtof.o)
                                        0x21b (size before relaxing)
 .debug_str     0x000000000000517b       0x1a ../build/output/libraries/libuc.a(lib_access.o)
                                        0x1b3 (size before relaxing)
 .debug_str     0x0000000000005195       0x15 ../build/output/libraries/libuc.a(lib_strcspn.o)
                                        0x1d2 (size before relaxing)
 .debug_str     0x00000000000051aa       0x15 ../build/output/libraries/libuc.a(lib_strncat.o)
                                        0x1d0 (size before relaxing)
 .debug_str     0x00000000000051bf       0x15 ../build/output/libraries/libuc.a(lib_strrchr.o)
                                        0x1b1 (size before relaxing)
 .debug_str     0x00000000000051d4       0x16 ../build/output/libraries/libuc.a(lib_htons.o)
                                        0x1c5 (size before relaxing)
 .debug_str     0x00000000000051ea      0x2a9 ../build/output/libraries/libumm.a(mm_heapinfo_utils.o)
                                        0xd6c (size before relaxing)
 .debug_str     0x0000000000005493       0x1c ../build/output/libraries/libumm.a(umm_free.o)
                                        0xbf8 (size before relaxing)
 .debug_str     0x00000000000054af       0x45 ../build/output/libraries/libumm.a(umm_malloc.o)
                                        0xc21 (size before relaxing)
 .debug_str     0x00000000000054f4       0x29 ../build/output/libraries/libumm.a(umm_realloc.o)
                                        0xc30 (size before relaxing)
 .debug_str     0x000000000000551d       0x20 ../build/output/libraries/libumm.a(umm_zalloc.o)
                                        0xc21 (size before relaxing)
 .debug_str     0x000000000000553d       0x52 ../build/output/libraries/libumm.a(mm_sem.o)
                                        0xc90 (size before relaxing)
 .debug_str     0x000000000000558f       0x3d ../build/output/libraries/libumm.a(mm_free.o)
                                        0xc8b (size before relaxing)
 .debug_str     0x00000000000055cc       0x3c ../build/output/libraries/libumm.a(mm_malloc.o)
                                        0xcc5 (size before relaxing)
 .debug_str     0x0000000000005608       0x76 ../build/output/libraries/libumm.a(mm_realloc.o)
                                        0xd24 (size before relaxing)
 .debug_str     0x000000000000567e       0x14 ../build/output/libraries/libumm.a(mm_zalloc.o)
                                        0xc0f (size before relaxing)
 .debug_str     0x0000000000005692       0x4b ../build/output/libraries/libumm.a(mm_getheap.o)
                                        0xc59 (size before relaxing)
 .debug_str     0x00000000000056dd       0x33 ../build/output/libraries/libumm.a(mm_manage_allocfail.o)
                                        0x21d (size before relaxing)
 .debug_str     0x0000000000005710       0x1f ../build/output/libraries/libumm.a(mm_heap_dbg.o)
                                        0x3ca (size before relaxing)
 .debug_str     0x000000000000572f       0x3d ../build/output/libraries/libumm.a(umm_initialize.o)
                                        0xc2d (size before relaxing)
 .debug_str     0x000000000000576c       0x2e ../build/output/libraries/libumm.a(mm_initialize.o)
                                        0xc79 (size before relaxing)
 .debug_str     0x000000000000579a       0x1a ../build/output/libraries/libumm.a(mm_addfreechunk.o)
                                        0xc10 (size before relaxing)
 .debug_str     0x00000000000057b4       0x1d ../build/output/libraries/libumm.a(mm_size2ndx.o)
                                        0x1e0 (size before relaxing)
 .debug_str     0x00000000000057d1       0x19 ../build/output/libraries/libumm.a(mm_shrinkchunk.o)
                                        0xc29 (size before relaxing)
 .debug_str     0x00000000000057ea       0xba ../build/output/libraries/libuwque.a(uwork_thread.o)
                                        0xb6c (size before relaxing)
 .debug_str     0x00000000000058a4       0x75 ../build/output/libraries/libuwque.a(work_process.o)
                                        0x2fd (size before relaxing)
 .debug_str     0x0000000000005919       0x15 ../build/output/libraries/libuwque.a(uwork_lock.o)
                                        0x261 (size before relaxing)
 .debug_str     0x000000000000592e      0x3ff ../build/output/libraries/libframework.a(wifi_manager_msghandler.o)
                                        0xf34 (size before relaxing)
 .debug_str     0x0000000000005d2d       0xb0 ../build/output/libraries/libframework.a(security_common.o)
                                        0x4f8 (size before relaxing)
 .debug_str     0x0000000000005ddd      0x91c ../build/output/libraries/libframework.a(security_utils.o)
                                       0x11c6 (size before relaxing)
 .debug_str     0x00000000000066f9       0xe4 ../build/output/libraries/libframework.a(security_ss.o)
                                        0x613 (size before relaxing)
 .debug_str     0x00000000000067dd      0x761 ../build/output/libraries/libframework.a(ble_manager_msghandler.o)
                                       0x129d (size before relaxing)
 .debug_str     0x0000000000006f3e      0x47b ../build/output/libraries/libframework.a(seclink.o)
                                        0xe52 (size before relaxing)
 .debug_str     0x00000000000073b9       0xe0 ../build/output/libraries/libframework.a(wifi_manager_message.o)
                                        0xfe9 (size before relaxing)
 .debug_str     0x0000000000007499     0x12f6 ../build/output/libraries/libframework.a(wifi_manager_state.o)
                                       0x21fc (size before relaxing)
 .debug_str     0x000000000000878f       0x48 ../build/output/libraries/libframework.a(wifi_manager_stats.o)
                                        0x3c3 (size before relaxing)
 .debug_str     0x00000000000087d7       0x36 ../build/output/libraries/libframework.a(wifi_manager_event.o)
                                        0x39d (size before relaxing)
 .debug_str     0x000000000000880d       0x6d ../build/output/libraries/libframework.a(wifi_manager_utils.o)
                                        0x971 (size before relaxing)
 .debug_str     0x000000000000887a       0xf8 ../build/output/libraries/libframework.a(wifi_manager_info.o)
                                        0x4b2 (size before relaxing)
 .debug_str     0x0000000000008972       0x37 ../build/output/libraries/libframework.a(wifi_manager_dhcpc.o)
                                        0x3ef (size before relaxing)
 .debug_str     0x00000000000089a9       0xa6 ../build/output/libraries/libframework.a(wifi_manager_dhcps.o)
                                       0x100d (size before relaxing)
 .debug_str     0x0000000000008a4f      0x23b ../build/output/libraries/libframework.a(wifi_manager_lwnl.o)
                                        0x9fc (size before relaxing)
 .debug_str     0x0000000000008c8a      0x1d5 ../build/output/libraries/libframework.a(wifi_manager_lwnl_listener.o)
                                       0x1427 (size before relaxing)
 .debug_str     0x0000000000008e5f       0x56 ../build/output/libraries/libframework.a(ble_manager_message.o)
                                       0x1319 (size before relaxing)
 .debug_str     0x0000000000008eb5      0x103 ../build/output/libraries/libframework.a(wifi_manager_cb.o)
                                        0xe58 (size before relaxing)
 .debug_str     0x0000000000008fb8       0xd4 ../build/output/libraries/libframework.a(ble_manager_lwnl_listener.o)
                                       0x132d (size before relaxing)
 .debug_str     0x000000000000908c     0x11da ../build/output/libraries/libframework.a(ble_manager_state.o)
                                       0x210d (size before relaxing)
 .debug_str     0x000000000000a266      0x1f5 ../build/output/libraries/libframework.a(ble_manager_autoconnect.o)
                                       0x1065 (size before relaxing)
 .debug_str     0x000000000000a45b      0x122 ../build/output/libraries/libframework.a(ble_queue.o)
                                        0x781 (size before relaxing)
 .debug_str     0x000000000000a57d      0x71b ../build/output/libraries/libframework.a(ble_manager_api.o)
                                       0x2090 (size before relaxing)
 .debug_str     0x000000000000ac98      0x579 ../build/output/libraries/libframework.a(ble_manager_lwnl.o)
                                       0x1d78 (size before relaxing)
 .debug_str     0x000000000000b211       0x3a ../build/output/libraries/libcxx.a(libxx_newlib_impure.o)
                                        0x11d (size before relaxing)
 .debug_str     0x000000000000b24b      0x110 ../build/output/libraries/libcxx.a(libxx_cxa_atexit.o)
                                        0x3ba (size before relaxing)
 .debug_str     0x000000000000b35b       0x49 ../build/output/libraries/libexternal.a(netlib.o)
                                        0x1ff (size before relaxing)
 .debug_str     0x000000000000b3a4       0x15 ../build/output/libraries/libexternal.a(netlib_setifstatus.o)
                                        0x33c (size before relaxing)
 .debug_str     0x000000000000b3b9       0x15 ../build/output/libraries/libexternal.a(netlib_getifstatus.o)
                                        0x33b (size before relaxing)
 .debug_str     0x000000000000b3ce       0x41 ../build/output/libraries/libexternal.a(netlib_getifaddrs.o)
                                        0x310 (size before relaxing)
 .debug_str     0x000000000000b40f       0x12 ../build/output/libraries/libexternal.a(netlib_getstats.o)
                                        0x459 (size before relaxing)
 .debug_str     0x000000000000b421       0x10 ../build/output/libraries/libexternal.a(netlib_netmon.o)
                                        0x3e3 (size before relaxing)
 .debug_str     0x000000000000b431       0x1c ../build/output/libraries/libexternal.a(netlib_setipv4addr.o)
                                        0x3ab (size before relaxing)
 .debug_str     0x000000000000b44d       0x1e ../build/output/libraries/libexternal.a(netlib_getipv4addr.o)
                                        0x3b4 (size before relaxing)
 .debug_str     0x000000000000b46b       0x17 ../build/output/libraries/libexternal.a(netlib_setdripv4addr.o)
                                        0x3af (size before relaxing)
 .debug_str     0x000000000000b482       0x18 ../build/output/libraries/libexternal.a(netlib_setipv4netmask.o)
                                        0x3b1 (size before relaxing)
 .debug_str     0x000000000000b49a       0xfa ../build/output/libraries/libexternal.a(netlib_setipv6addr.o)
                                        0x43b (size before relaxing)
 .debug_str     0x000000000000b594       0x23 ../build/output/libraries/libexternal.a(netlib_setmacaddr.o)
                                        0x351 (size before relaxing)
 .debug_str     0x000000000000b5b7       0x14 ../build/output/libraries/libexternal.a(netlib_getmacaddr.o)
                                        0x353 (size before relaxing)
 .debug_str     0x000000000000b5cb       0x16 ../build/output/libraries/libexternal.a(netlib_setdnsserver.o)
                                        0x461 (size before relaxing)
 .debug_str     0x000000000000b5e1      0x121 ../build/output/libraries/libexternal.a(dhcpd_lwip.o)
                                        0xc11 (size before relaxing)
 .debug_str     0x000000000000b702       0x2a ../build/output/libraries/libexternal.a(dhcpc_lwip.o)
                                        0x489 (size before relaxing)
 .debug_str     0x000000000000b72c       0x15 ../build/output/libraries/libproxies.a(PROXY_bind.o)
                                        0x228 (size before relaxing)
 .debug_str     0x000000000000b741       0x19 ../build/output/libraries/libproxies.a(PROXY_fs_ioctl.o)
                                        0x1ff (size before relaxing)
 .debug_str     0x000000000000b75a       0x40 ../build/output/libraries/libproxies.a(PROXY_gettimeofday.o)
                                        0x250 (size before relaxing)
 .debug_str     0x000000000000b79a       0x17 ../build/output/libraries/libproxies.a(PROXY_mkfifo.o)
                                        0x1f7 (size before relaxing)
 .debug_str     0x000000000000b7b1       0x1b ../build/output/libraries/libproxies.a(PROXY_mq_getattr.o)
                                        0x263 (size before relaxing)
 .debug_str     0x000000000000b7cc       0x20 ../build/output/libraries/libproxies.a(PROXY_mq_timedreceive.o)
                                        0x282 (size before relaxing)
 .debug_str     0x000000000000b7ec       0x18 ../build/output/libraries/libproxies.a(PROXY_on_exit.o)
                                        0x1f2 (size before relaxing)
 .debug_str     0x000000000000b804       0x1f ../build/output/libraries/libproxies.a(PROXY_pthread_create.o)
                                        0x310 (size before relaxing)
 .debug_str     0x000000000000b823       0x1f ../build/output/libraries/libproxies.a(PROXY_pthread_detach.o)
                                        0x216 (size before relaxing)
 .debug_str     0x000000000000b842       0x1d ../build/output/libraries/libproxies.a(PROXY_pthread_join.o)
                                        0x22c (size before relaxing)
 .debug_str     0x000000000000b85f       0x1b ../build/output/libraries/libproxies.a(PROXY_sched_lock.o)
                                        0x1e2 (size before relaxing)
 .debug_str     0x000000000000b87a       0x1d ../build/output/libraries/libproxies.a(PROXY_sched_unlock.o)
                                        0x1e6 (size before relaxing)
 .debug_str     0x000000000000b897       0x1c ../build/output/libraries/libproxies.a(PROXY_sem_destroy.o)
                                        0x231 (size before relaxing)
 .debug_str     0x000000000000b8b3       0x1c ../build/output/libraries/libproxies.a(PROXY_sem_trywait.o)
                                        0x231 (size before relaxing)
 .debug_str     0x000000000000b8cf       0x17 ../build/output/libraries/libproxies.a(PROXY_setenv.o)
                                        0x1fb (size before relaxing)
 .debug_str     0x000000000000b8e6       0x1c ../build/output/libraries/libproxies.a(PROXY_sigwaitinfo.o)
                                        0x28c (size before relaxing)
 .debug_str     0x000000000000b902       0x47 ../build/output/libraries/libuc.a(lib_lowsyslog.o)
                                        0x26c (size before relaxing)
 .debug_str     0x000000000000b949       0x32 ../build/output/libraries/libuc.a(pthread_attrinit.o)
                                        0x2aa (size before relaxing)
 .debug_str     0x000000000000b97b       0x23 ../build/output/libraries/libuc.a(pthread_attrsetstacksize.o)
                                        0x29c (size before relaxing)
 .debug_str     0x000000000000b99e       0x24 ../build/output/libraries/libuc.a(pthread_attrsetschedparam.o)
                                        0x2bf (size before relaxing)
 .debug_str     0x000000000000b9c2       0x14 ../build/output/libraries/libuc.a(sig_addset.o)
                                        0x1d6 (size before relaxing)
 .debug_str     0x000000000000b9d6       0x16 ../build/output/libraries/libuc.a(sig_emptyset.o)
                                        0x1d4 (size before relaxing)
 .debug_str     0x000000000000b9ec       0x1a ../build/output/libraries/libuc.a(dq_rem.o)
                                        0x1fa (size before relaxing)
 .debug_str     0x000000000000ba06       0x2b ../build/output/libraries/libuc.a(lib_lowoutstream.o)
                                        0x239 (size before relaxing)
 .debug_str     0x000000000000ba31       0x2a ../build/output/libraries/libumm.a(umm_calloc.o)
                                        0xc2b (size before relaxing)
 .debug_str     0x000000000000ba5b       0x14 ../build/output/libraries/libumm.a(mm_calloc.o)
                                        0xc0c (size before relaxing)

.debug_loc      0x0000000000000000    0x2278e
 .debug_loc     0x0000000000000000       0x16 ../build/output/libraries/libproxies.a(PROXY_getpid.o)
 .debug_loc     0x0000000000000016       0x17 ../build/output/libraries/libproxies.a(PROXY_sched_getstreams.o)
 .debug_loc     0x000000000000002d       0x15 ../build/output/libraries/libuc.a(lib_printf.o)
 .debug_loc     0x0000000000000042       0x47 ../build/output/libraries/libuc.a(lib_fgetc.o)
 .debug_loc     0x0000000000000089       0xdd ../build/output/libraries/libuc.a(lib_vfprintf.o)
 .debug_loc     0x0000000000000166       0xe3 ../build/output/libraries/libuc.a(lib_stdoutstream.o)
 .debug_loc     0x0000000000000249       0x25 ../build/output/libraries/libuc.a(lib_libnoflush.o)
 .debug_loc     0x000000000000026e       0x82 ../build/output/libraries/libuc.a(lib_sleep.o)
 .debug_loc     0x00000000000002f0       0x7b ../build/output/libraries/libuc.a(task_startup.o)
 .debug_loc     0x000000000000036b       0x59 ../build/output/libraries/libuc.a(pthread_startup.o)
 .debug_loc     0x00000000000003c4       0xad ../build/output/libraries/libuc.a(lib_filesem.o)
 .debug_loc     0x0000000000000471      0xe43 ../build/output/libraries/libuc.a(lib_libvsprintf.o)
 .debug_loc     0x00000000000012b4      0x23b ../build/output/libraries/libuc.a(lib_libfread.o)
 .debug_loc     0x00000000000014ef       0xf5 ../build/output/libraries/libuc.a(lib_libfflush.o)
 .debug_loc     0x00000000000015e4       0x5f ../build/output/libraries/libuc.a(lib_wrflush.o)
 .debug_loc     0x0000000000001643       0x9d ../build/output/libraries/libuc.a(lib_fputc.o)
 .debug_loc     0x00000000000016e0       0x79 ../build/output/libraries/libuc.a(lib_strnlen.o)
 .debug_loc     0x0000000000001759       0xfd ../build/output/libraries/libuc.a(sem_init.o)
 .debug_loc     0x0000000000001856      0x36e ../build/output/libraries/libuc.a(lib_dtoa_engine.o)
 .debug_loc     0x0000000000001bc4      0x10d ../build/output/libraries/libuc.a(lib_ultoa_invert.o)
 .debug_loc     0x0000000000001cd1      0x2b0 ../build/output/libraries/libuc.a(lib_libfwrite.o)
 .debug_loc     0x0000000000001f81       0x5a ../build/output/libraries/libuc.a(lib_rdflush.o)
 .debug_loc     0x0000000000001fdb       0x66 ../build/output/libraries/libuc.a(lib_fseek.o)
 .debug_loc     0x0000000000002041       0x22 ../build/output/libraries/libframework.a(binary_manager_notify.o)
 .debug_loc     0x0000000000002063      0x3a1 ../build/output/libraries/libframework.a(binary_manager_interface.o)
 .debug_loc     0x0000000000002404       0xd4 ../build/output/libraries/libapps.a(init.o)
 .debug_loc     0x00000000000024d8       0x43 ../build/output/libraries/libapps.a(builtin_list.o)
 .debug_loc     0x000000000000251b      0xb48 ../build/output/libraries/libapps.a(tash_command.o)
 .debug_loc     0x0000000000003063       0x79 ../build/output/libraries/libapps.a(tash_sleep.o)
 .debug_loc     0x00000000000030dc      0x90d ../build/output/libraries/libapps.a(tash_main.o)
 .debug_loc     0x00000000000039e9       0x6c ../build/output/libraries/libapps.a(mem_leak_checker_main.o)
 .debug_loc     0x0000000000003a55       0x22 ../build/output/libraries/libapps.a(sysinfo.o)
 .debug_loc     0x0000000000003a77      0x148 ../build/output/libraries/libapps.a(security_level_cmd.o)
 .debug_loc     0x0000000000003bbf     0x2492 ../build/output/libraries/libapps.a(fscmd.o)
 .debug_loc     0x0000000000006051      0xaeb ../build/output/libraries/libapps.a(netcmd.o)
 .debug_loc     0x0000000000006b3c      0xeea ../build/output/libraries/libapps.a(netcmd_ping.o)
 .debug_loc     0x0000000000007a26      0x1b7 ../build/output/libraries/libapps.a(netcmd_netmon.o)
 .debug_loc     0x0000000000007bdd      0x11f ../build/output/libraries/libapps.a(netcmd_dhcpd.o)
 .debug_loc     0x0000000000007cfc      0x313 ../build/output/libraries/libapps.a(utils_date.o)
 .debug_loc     0x000000000000800f       0xa8 ../build/output/libraries/libapps.a(utils_free.o)
 .debug_loc     0x00000000000080b7      0x355 ../build/output/libraries/libapps.a(utils_heapinfo.o)
 .debug_loc     0x000000000000840c       0x86 ../build/output/libraries/libapps.a(utils_prodconfig.o)
 .debug_loc     0x0000000000008492      0x1e7 ../build/output/libraries/libapps.a(utils_ps.o)
 .debug_loc     0x0000000000008679       0x8a ../build/output/libraries/libapps.a(utils_uptime.o)
 .debug_loc     0x0000000000008703      0x32b ../build/output/libraries/libapps.a(utils_proc.o)
 .debug_loc     0x0000000000008a2e       0xfe ../build/output/libraries/libapps.a(helloxx_main.o)
 .debug_loc     0x0000000000008b2c       0x4a ../build/output/libraries/libapps.a(hello_main.o)
 .debug_loc     0x0000000000008b76       0x32 ../build/output/libraries/libapps.a(tash_pm.o)
 .debug_loc     0x0000000000008ba8      0x1ea ../build/output/libraries/libapps.a(netdb_main.o)
 .debug_loc     0x0000000000008d92      0x182 ../build/output/libraries/libapps.a(fs_getpath.o)
 .debug_loc     0x0000000000008f14       0x9f ../build/output/libraries/libproxies.a(PROXY_boardctl.o)
 .debug_loc     0x0000000000008fb3       0x17 ../build/output/libraries/libproxies.a(PROXY_clock.o)
 .debug_loc     0x0000000000008fca       0xa2 ../build/output/libraries/libproxies.a(PROXY_clock_gettime.o)
 .debug_loc     0x000000000000906c       0xa2 ../build/output/libraries/libproxies.a(PROXY_clock_settime.o)
 .debug_loc     0x000000000000910e       0x5b ../build/output/libraries/libproxies.a(PROXY_close.o)
 .debug_loc     0x0000000000009169       0x5b ../build/output/libraries/libproxies.a(PROXY_closedir.o)
 .debug_loc     0x00000000000091c4       0x5a ../build/output/libraries/libproxies.a(PROXY_exit.o)
 .debug_loc     0x000000000000921e       0x16 ../build/output/libraries/libproxies.a(PROXY_get_errno.o)
 .debug_loc     0x0000000000009234       0x5b ../build/output/libraries/libproxies.a(PROXY_getenv.o)
 .debug_loc     0x000000000000928f       0xe3 ../build/output/libraries/libproxies.a(PROXY_lseek.o)
 .debug_loc     0x0000000000009372       0x9f ../build/output/libraries/libproxies.a(PROXY_mkdir.o)
 .debug_loc     0x0000000000009411      0x13d ../build/output/libraries/libproxies.a(PROXY_mount.o)
 .debug_loc     0x000000000000954e       0x5b ../build/output/libraries/libproxies.a(PROXY_mq_close.o)
 .debug_loc     0x00000000000095a9       0x63 ../build/output/libraries/libproxies.a(PROXY_mq_open.o)
 .debug_loc     0x000000000000960c      0x127 ../build/output/libraries/libproxies.a(PROXY_mq_receive.o)
 .debug_loc     0x0000000000009733      0x127 ../build/output/libraries/libproxies.a(PROXY_mq_send.o)
 .debug_loc     0x000000000000985a       0x5b ../build/output/libraries/libproxies.a(PROXY_mq_unlink.o)
 .debug_loc     0x00000000000098b5       0x9f ../build/output/libraries/libproxies.a(PROXY_nanosleep.o)
 .debug_loc     0x0000000000009954       0x63 ../build/output/libraries/libproxies.a(PROXY_open.o)
 .debug_loc     0x00000000000099b7       0x5b ../build/output/libraries/libproxies.a(PROXY_opendir.o)
 .debug_loc     0x0000000000009a12       0x2c ../build/output/libraries/libproxies.a(PROXY_prctl.o)
 .debug_loc     0x0000000000009a3e       0x5b ../build/output/libraries/libproxies.a(PROXY_pthread_exit.o)
 .debug_loc     0x0000000000009a99       0x5b ../build/output/libraries/libproxies.a(PROXY_pthread_mutex_lock.o)
 .debug_loc     0x0000000000009af4       0x5b ../build/output/libraries/libproxies.a(PROXY_pthread_mutex_unlock.o)
 .debug_loc     0x0000000000009b4f       0xe3 ../build/output/libraries/libproxies.a(PROXY_read.o)
 .debug_loc     0x0000000000009c32       0x5b ../build/output/libraries/libproxies.a(PROXY_readdir.o)
 .debug_loc     0x0000000000009c8d      0x153 ../build/output/libraries/libproxies.a(PROXY_recvfrom.o)
 .debug_loc     0x0000000000009de0       0x9f ../build/output/libraries/libproxies.a(PROXY_rename.o)
 .debug_loc     0x0000000000009e7f       0x5b ../build/output/libraries/libproxies.a(PROXY_rmdir.o)
 .debug_loc     0x0000000000009eda      0x13d ../build/output/libraries/libproxies.a(PROXY_select.o)
 .debug_loc     0x000000000000a017       0x5a ../build/output/libraries/libproxies.a(PROXY_sem_post.o)
 .debug_loc     0x000000000000a071       0x5a ../build/output/libraries/libproxies.a(PROXY_sem_wait.o)
 .debug_loc     0x000000000000a0cb      0x153 ../build/output/libraries/libproxies.a(PROXY_sendto.o)
 .debug_loc     0x000000000000a21e       0x5a ../build/output/libraries/libproxies.a(PROXY_set_errno.o)
 .debug_loc     0x000000000000a278      0x13d ../build/output/libraries/libproxies.a(PROXY_setsockopt.o)
 .debug_loc     0x000000000000a3b5       0xe3 ../build/output/libraries/libproxies.a(PROXY_socket.o)
 .debug_loc     0x000000000000a498       0x9f ../build/output/libraries/libproxies.a(PROXY_stat.o)
 .debug_loc     0x000000000000a537       0x9f ../build/output/libraries/libproxies.a(PROXY_statfs.o)
 .debug_loc     0x000000000000a5d6      0x13c ../build/output/libraries/libproxies.a(PROXY_task_create.o)
 .debug_loc     0x000000000000a712       0x5b ../build/output/libraries/libproxies.a(PROXY_umount.o)
 .debug_loc     0x000000000000a76d       0x5b ../build/output/libraries/libproxies.a(PROXY_unlink.o)
 .debug_loc     0x000000000000a7c8       0x9f ../build/output/libraries/libproxies.a(PROXY_up_assert.o)
 .debug_loc     0x000000000000a867       0xe3 ../build/output/libraries/libproxies.a(PROXY_write.o)
 .debug_loc     0x000000000000a94a       0x3a ../build/output/libraries/libuc.a(lib_sprintf.o)
 .debug_loc     0x000000000000a984       0x61 ../build/output/libraries/libuc.a(lib_asprintf.o)
 .debug_loc     0x000000000000a9e5       0xcc ../build/output/libraries/libuc.a(lib_snprintf.o)
 .debug_loc     0x000000000000aab1       0xe4 ../build/output/libraries/libuc.a(lib_vasprintf.o)
 .debug_loc     0x000000000000ab95       0xba ../build/output/libraries/libuc.a(lib_memoutstream.o)
 .debug_loc     0x000000000000ac4f       0x57 ../build/output/libraries/libuc.a(lib_nulloutstream.o)
 .debug_loc     0x000000000000aca6       0xff ../build/output/libraries/libuc.a(lib_fwrite.o)
 .debug_loc     0x000000000000ada5       0xd1 ../build/output/libraries/libuc.a(lib_fputs.o)
 .debug_loc     0x000000000000ae76       0x3a ../build/output/libraries/libuc.a(lib_fprintf.o)
 .debug_loc     0x000000000000aeb0       0x3f ../build/output/libraries/libuc.a(lib_perror.o)
 .debug_loc     0x000000000000aeef      0x155 ../build/output/libraries/libuc.a(lib_strtol.o)
 .debug_loc     0x000000000000b044      0x123 ../build/output/libraries/libuc.a(lib_strtoul.o)
 .debug_loc     0x000000000000b167       0xfa ../build/output/libraries/libuc.a(lib_checkbase.o)
 .debug_loc     0x000000000000b261      0x15b ../build/output/libraries/libuc.a(lib_getopt.o)
 .debug_loc     0x000000000000b3bc       0xe1 ../build/output/libraries/libuc.a(lib_chdir.o)
 .debug_loc     0x000000000000b49d       0x7a ../build/output/libraries/libuc.a(lib_usleep.o)
 .debug_loc     0x000000000000b517      0x11a ../build/output/libraries/libuc.a(lib_syslog.o)
 .debug_loc     0x000000000000b631       0x3a ../build/output/libraries/libuc.a(lib_setlogmask.o)
 .debug_loc     0x000000000000b66b      0x166 ../build/output/libraries/libuc.a(lib_isbasedigit.o)
 .debug_loc     0x000000000000b7d1      0x140 ../build/output/libraries/libuc.a(lib_memset.o)
 .debug_loc     0x000000000000b911       0xf3 ../build/output/libraries/libuc.a(lib_memcmp.o)
 .debug_loc     0x000000000000ba04      0x1a4 ../build/output/libraries/libuc.a(lib_memmove.o)
 .debug_loc     0x000000000000bba8       0x4f ../build/output/libraries/libuc.a(lib_skipspace.o)
 .debug_loc     0x000000000000bbf7       0x22 ../build/output/libraries/libuc.a(lib_strchr.o)
 .debug_loc     0x000000000000bc19       0x86 ../build/output/libraries/libuc.a(lib_strcmp.o)
 .debug_loc     0x000000000000bc9f       0x8f ../build/output/libraries/libuc.a(lib_strdup.o)
 .debug_loc     0x000000000000bd2e       0xb2 ../build/output/libraries/libuc.a(lib_strerror.o)
 .debug_loc     0x000000000000bde0       0x3a ../build/output/libraries/libuc.a(lib_strlen.o)
 .debug_loc     0x000000000000be1a       0xeb ../build/output/libraries/libuc.a(lib_strncasecmp.o)
 .debug_loc     0x000000000000bf05       0xb0 ../build/output/libraries/libuc.a(lib_strncmp.o)
 .debug_loc     0x000000000000bfb5       0xcd ../build/output/libraries/libuc.a(lib_strncpy.o)
 .debug_loc     0x000000000000c082       0xd4 ../build/output/libraries/libuc.a(lib_strstr.o)
 .debug_loc     0x000000000000c156      0x134 ../build/output/libraries/libuc.a(lib_strtokr.o)
 .debug_loc     0x000000000000c28a     0x1289 ../build/output/libraries/libuc.a(lib_vikmemcpy.o)
 .debug_loc     0x000000000000d513       0x25 ../build/output/libraries/libuc.a(lib_etherntoa.o)
 .debug_loc     0x000000000000d538       0xba ../build/output/libraries/libuc.a(lib_inetaddr.o)
 .debug_loc     0x000000000000d5f2       0x2f ../build/output/libraries/libuc.a(lib_inetntoa.o)
 .debug_loc     0x000000000000d621      0x3bb ../build/output/libraries/libuc.a(lib_inetntop.o)
 .debug_loc     0x000000000000d9dc      0x58b ../build/output/libraries/libuc.a(lib_inetpton.o)
 .debug_loc     0x000000000000df67       0xe8 ../build/output/libraries/libuc.a(lib_freeaddrinfo.o)
 .debug_loc     0x000000000000e04f      0x131 ../build/output/libraries/libuc.a(lib_getaddrinfo.o)
 .debug_loc     0x000000000000e180       0x91 ../build/output/libraries/libuc.a(lib_gethostbyname.o)
 .debug_loc     0x000000000000e211      0x2c9 ../build/output/libraries/libuc.a(lib_strftime.o)
 .debug_loc     0x000000000000e4da       0x37 ../build/output/libraries/libuc.a(lib_daysbeforemonth.o)
 .debug_loc     0x000000000000e511       0x3c ../build/output/libraries/libuc.a(lib_isleapyear.o)
 .debug_loc     0x000000000000e54d       0x44 ../build/output/libraries/libuc.a(lib_time.o)
 .debug_loc     0x000000000000e591     0x2eb0 ../build/output/libraries/libuc.a(lib_localtime.o)
 .debug_loc     0x0000000000011441       0x9b ../build/output/libraries/libuc.a(lib_dirname.o)
 .debug_loc     0x00000000000114dc       0x25 ../build/output/libraries/libuc.a(lib_ioctl.o)
 .debug_loc     0x0000000000011501     0x1061 ../build/output/libraries/libuc.a(lib_sscanf.o)
 .debug_loc     0x0000000000012562       0xc7 ../build/output/libraries/libuc.a(lib_rawoutstream.o)
 .debug_loc     0x0000000000012629      0x204 ../build/output/libraries/libuc.a(lib_strtoll.o)
 .debug_loc     0x000000000001282d      0x158 ../build/output/libraries/libuc.a(lib_strtoull.o)
 .debug_loc     0x0000000000012985      0x4fe ../build/output/libraries/libuc.a(lib_strtod.o)
 .debug_loc     0x0000000000012e83      0x50b ../build/output/libraries/libuc.a(lib_strtof.o)
 .debug_loc     0x000000000001338e       0x25 ../build/output/libraries/libuc.a(lib_access.o)
 .debug_loc     0x00000000000133b3       0x67 ../build/output/libraries/libuc.a(lib_strcspn.o)
 .debug_loc     0x000000000001341a       0xd0 ../build/output/libraries/libuc.a(lib_strncat.o)
 .debug_loc     0x00000000000134ea       0xa1 ../build/output/libraries/libuc.a(lib_strrchr.o)
 .debug_loc     0x000000000001358b       0x25 ../build/output/libraries/libuc.a(lib_htons.o)
 .debug_loc     0x00000000000135b0      0x4b1 ../build/output/libraries/libumm.a(mm_heapinfo_utils.o)
 .debug_loc     0x0000000000013a61       0x6e ../build/output/libraries/libumm.a(umm_free.o)
 .debug_loc     0x0000000000013acf       0x9d ../build/output/libraries/libumm.a(umm_malloc.o)
 .debug_loc     0x0000000000013b6c       0xd0 ../build/output/libraries/libumm.a(umm_realloc.o)
 .debug_loc     0x0000000000013c3c       0x8f ../build/output/libraries/libumm.a(umm_zalloc.o)
 .debug_loc     0x0000000000013ccb      0x177 ../build/output/libraries/libumm.a(mm_sem.o)
 .debug_loc     0x0000000000013e42      0x12a ../build/output/libraries/libumm.a(mm_free.o)
 .debug_loc     0x0000000000013f6c      0x219 ../build/output/libraries/libumm.a(mm_malloc.o)
 .debug_loc     0x0000000000014185      0x78c ../build/output/libraries/libumm.a(mm_realloc.o)
 .debug_loc     0x0000000000014911       0x8e ../build/output/libraries/libumm.a(mm_zalloc.o)
 .debug_loc     0x000000000001499f       0xbc ../build/output/libraries/libumm.a(mm_getheap.o)
 .debug_loc     0x0000000000014a5b       0x88 ../build/output/libraries/libumm.a(mm_manage_allocfail.o)
 .debug_loc     0x0000000000014ae3       0xa7 ../build/output/libraries/libumm.a(mm_heap_dbg.o)
 .debug_loc     0x0000000000014b8a       0x64 ../build/output/libraries/libumm.a(umm_initialize.o)
 .debug_loc     0x0000000000014bee      0x1cb ../build/output/libraries/libumm.a(mm_initialize.o)
 .debug_loc     0x0000000000014db9       0xc8 ../build/output/libraries/libumm.a(mm_addfreechunk.o)
 .debug_loc     0x0000000000014e81      0x10e ../build/output/libraries/libumm.a(mm_size2ndx.o)
 .debug_loc     0x0000000000014f8f      0x16b ../build/output/libraries/libumm.a(mm_shrinkchunk.o)
 .debug_loc     0x00000000000150fa       0x6c ../build/output/libraries/libuwque.a(uwork_thread.o)
 .debug_loc     0x0000000000015166      0x15d ../build/output/libraries/libuwque.a(work_process.o)
 .debug_loc     0x00000000000152c3       0x3f ../build/output/libraries/libuwque.a(uwork_lock.o)
 .debug_loc     0x0000000000015302      0x123 ../build/output/libraries/libframework.a(wifi_manager_msghandler.o)
 .debug_loc     0x0000000000015425      0x1b4 ../build/output/libraries/libframework.a(security_common.o)
 .debug_loc     0x00000000000155d9      0x315 ../build/output/libraries/libframework.a(security_utils.o)
 .debug_loc     0x00000000000158ee      0x450 ../build/output/libraries/libframework.a(security_ss.o)
 .debug_loc     0x0000000000015d3e      0x10c ../build/output/libraries/libframework.a(ble_manager_msghandler.o)
 .debug_loc     0x0000000000015e4a     0x22e7 ../build/output/libraries/libframework.a(seclink.o)
 .debug_loc     0x0000000000018131      0x31e ../build/output/libraries/libframework.a(wifi_manager_message.o)
 .debug_loc     0x000000000001844f      0xd8c ../build/output/libraries/libframework.a(wifi_manager_state.o)
 .debug_loc     0x00000000000191db       0x25 ../build/output/libraries/libframework.a(wifi_manager_event.o)
 .debug_loc     0x0000000000019200       0x93 ../build/output/libraries/libframework.a(wifi_manager_utils.o)
 .debug_loc     0x0000000000019293       0xdd ../build/output/libraries/libframework.a(wifi_manager_info.o)
 .debug_loc     0x0000000000019370       0x9a ../build/output/libraries/libframework.a(wifi_manager_dhcpc.o)
 .debug_loc     0x000000000001940a      0x252 ../build/output/libraries/libframework.a(wifi_manager_dhcps.o)
 .debug_loc     0x000000000001965c      0x319 ../build/output/libraries/libframework.a(wifi_manager_lwnl.o)
 .debug_loc     0x0000000000019975      0x613 ../build/output/libraries/libframework.a(wifi_manager_lwnl_listener.o)
 .debug_loc     0x0000000000019f88      0x2ae ../build/output/libraries/libframework.a(ble_manager_message.o)
 .debug_loc     0x000000000001a236      0x4e9 ../build/output/libraries/libframework.a(wifi_manager_cb.o)
 .debug_loc     0x000000000001a71f      0x428 ../build/output/libraries/libframework.a(ble_manager_lwnl_listener.o)
 .debug_loc     0x000000000001ab47     0x26e5 ../build/output/libraries/libframework.a(ble_manager_state.o)
 .debug_loc     0x000000000001d22c      0x417 ../build/output/libraries/libframework.a(ble_manager_autoconnect.o)
 .debug_loc     0x000000000001d643      0x408 ../build/output/libraries/libframework.a(ble_queue.o)
 .debug_loc     0x000000000001da4b     0x1263 ../build/output/libraries/libframework.a(ble_manager_api.o)
 .debug_loc     0x000000000001ecae      0xd0e ../build/output/libraries/libframework.a(ble_manager_lwnl.o)
 .debug_loc     0x000000000001f9bc      0x1dd ../build/output/libraries/libcxx.a(libxx_cxa_atexit.o)
 .debug_loc     0x000000000001fb99      0x2fb ../build/output/libraries/libexternal.a(netlib.o)
 .debug_loc     0x000000000001fe94      0x17c ../build/output/libraries/libexternal.a(netlib_setifstatus.o)
 .debug_loc     0x0000000000020010       0xfa ../build/output/libraries/libexternal.a(netlib_getifstatus.o)
 .debug_loc     0x000000000002010a      0x1ea ../build/output/libraries/libexternal.a(netlib_getifaddrs.o)
 .debug_loc     0x00000000000202f4       0xb0 ../build/output/libraries/libexternal.a(netlib_getstats.o)
 .debug_loc     0x00000000000203a4      0x1f1 ../build/output/libraries/libexternal.a(netlib_netmon.o)
 .debug_loc     0x0000000000020595      0x111 ../build/output/libraries/libexternal.a(netlib_setipv4addr.o)
 .debug_loc     0x00000000000206a6      0x111 ../build/output/libraries/libexternal.a(netlib_getipv4addr.o)
 .debug_loc     0x00000000000207b7      0x111 ../build/output/libraries/libexternal.a(netlib_setdripv4addr.o)
 .debug_loc     0x00000000000208c8      0x111 ../build/output/libraries/libexternal.a(netlib_setipv4netmask.o)
 .debug_loc     0x00000000000209d9      0x111 ../build/output/libraries/libexternal.a(netlib_setipv6addr.o)
 .debug_loc     0x0000000000020aea      0x16b ../build/output/libraries/libexternal.a(netlib_setmacaddr.o)
 .debug_loc     0x0000000000020c55       0xc3 ../build/output/libraries/libexternal.a(netlib_getmacaddr.o)
 .debug_loc     0x0000000000020d18      0x116 ../build/output/libraries/libexternal.a(netlib_setdnsserver.o)
 .debug_loc     0x0000000000020e2e      0x7a2 ../build/output/libraries/libexternal.a(dhcpd_lwip.o)
 .debug_loc     0x00000000000215d0      0x250 ../build/output/libraries/libexternal.a(dhcpc_lwip.o)
 .debug_loc     0x0000000000021820       0xe3 ../build/output/libraries/libproxies.a(PROXY_bind.o)
 .debug_loc     0x0000000000021903       0xe3 ../build/output/libraries/libproxies.a(PROXY_fs_ioctl.o)
 .debug_loc     0x00000000000219e6       0x9f ../build/output/libraries/libproxies.a(PROXY_gettimeofday.o)
 .debug_loc     0x0000000000021a85       0x9f ../build/output/libraries/libproxies.a(PROXY_mkfifo.o)
 .debug_loc     0x0000000000021b24       0x9f ../build/output/libraries/libproxies.a(PROXY_mq_getattr.o)
 .debug_loc     0x0000000000021bc3      0x13d ../build/output/libraries/libproxies.a(PROXY_mq_timedreceive.o)
 .debug_loc     0x0000000000021d00       0x9f ../build/output/libraries/libproxies.a(PROXY_on_exit.o)
 .debug_loc     0x0000000000021d9f      0x127 ../build/output/libraries/libproxies.a(PROXY_pthread_create.o)
 .debug_loc     0x0000000000021ec6       0x57 ../build/output/libraries/libproxies.a(PROXY_pthread_detach.o)
 .debug_loc     0x0000000000021f1d       0x9b ../build/output/libraries/libproxies.a(PROXY_pthread_join.o)
 .debug_loc     0x0000000000021fb8       0x16 ../build/output/libraries/libproxies.a(PROXY_sched_lock.o)
 .debug_loc     0x0000000000021fce       0x16 ../build/output/libraries/libproxies.a(PROXY_sched_unlock.o)
 .debug_loc     0x0000000000021fe4       0x5a ../build/output/libraries/libproxies.a(PROXY_sem_destroy.o)
 .debug_loc     0x000000000002203e       0x5a ../build/output/libraries/libproxies.a(PROXY_sem_trywait.o)
 .debug_loc     0x0000000000022098       0xe3 ../build/output/libraries/libproxies.a(PROXY_setenv.o)
 .debug_loc     0x000000000002217b       0x9f ../build/output/libraries/libproxies.a(PROXY_sigwaitinfo.o)
 .debug_loc     0x000000000002221a       0xf8 ../build/output/libraries/libuc.a(lib_lowsyslog.o)
 .debug_loc     0x0000000000022312       0x74 ../build/output/libraries/libuc.a(pthread_attrinit.o)
 .debug_loc     0x0000000000022386       0x66 ../build/output/libraries/libuc.a(pthread_attrsetstacksize.o)
 .debug_loc     0x00000000000223ec       0x66 ../build/output/libraries/libuc.a(pthread_attrsetschedparam.o)
 .debug_loc     0x0000000000022452       0x7e ../build/output/libraries/libuc.a(sig_addset.o)
 .debug_loc     0x00000000000224d0       0x22 ../build/output/libraries/libuc.a(sig_emptyset.o)
 .debug_loc     0x00000000000224f2       0x22 ../build/output/libraries/libuc.a(dq_rem.o)
 .debug_loc     0x0000000000022514       0x9f ../build/output/libraries/libuc.a(lib_lowoutstream.o)
 .debug_loc     0x00000000000225b3       0xd9 ../build/output/libraries/libumm.a(umm_calloc.o)
 .debug_loc     0x000000000002268c      0x102 ../build/output/libraries/libumm.a(mm_calloc.o)

.debug_ranges   0x0000000000000000     0x3a30
 .debug_ranges  0x0000000000000000       0x28 ../build/output/libraries/libproxies.a(PROXY_getpid.o)
 .debug_ranges  0x0000000000000028       0x28 ../build/output/libraries/libproxies.a(PROXY_sched_getstreams.o)
 .debug_ranges  0x0000000000000050       0x10 ../build/output/libraries/libuc.a(lib_printf.o)
 .debug_ranges  0x0000000000000060       0x10 ../build/output/libraries/libuc.a(lib_fgetc.o)
 .debug_ranges  0x0000000000000070       0x10 ../build/output/libraries/libuc.a(lib_vfprintf.o)
 .debug_ranges  0x0000000000000080       0x20 ../build/output/libraries/libuc.a(lib_stdoutstream.o)
 .debug_ranges  0x00000000000000a0       0x10 ../build/output/libraries/libuc.a(lib_libnoflush.o)
 .debug_ranges  0x00000000000000b0       0x10 ../build/output/libraries/libuc.a(lib_sleep.o)
 .debug_ranges  0x00000000000000c0       0x10 ../build/output/libraries/libuc.a(task_startup.o)
 .debug_ranges  0x00000000000000d0       0x10 ../build/output/libraries/libuc.a(pthread_startup.o)
 .debug_ranges  0x00000000000000e0       0x20 ../build/output/libraries/libuc.a(lib_filesem.o)
 .debug_ranges  0x0000000000000100      0x108 ../build/output/libraries/libuc.a(lib_libvsprintf.o)
 .debug_ranges  0x0000000000000208       0x28 ../build/output/libraries/libuc.a(lib_libfread.o)
 .debug_ranges  0x0000000000000230       0x10 ../build/output/libraries/libuc.a(lib_libfflush.o)
 .debug_ranges  0x0000000000000240       0x10 ../build/output/libraries/libuc.a(lib_wrflush.o)
 .debug_ranges  0x0000000000000250       0x10 ../build/output/libraries/libuc.a(lib_fputc.o)
 .debug_ranges  0x0000000000000260       0x10 ../build/output/libraries/libuc.a(lib_strnlen.o)
 .debug_ranges  0x0000000000000270       0x10 ../build/output/libraries/libuc.a(sem_init.o)
 .debug_ranges  0x0000000000000280       0x10 ../build/output/libraries/libuc.a(lib_dtoa_engine.o)
 .debug_ranges  0x0000000000000290       0x38 ../build/output/libraries/libuc.a(lib_ultoa_invert.o)
 .debug_ranges  0x00000000000002c8       0x28 ../build/output/libraries/libuc.a(lib_libfwrite.o)
 .debug_ranges  0x00000000000002f0       0x28 ../build/output/libraries/libuc.a(lib_rdflush.o)
 .debug_ranges  0x0000000000000318       0x10 ../build/output/libraries/libuc.a(lib_fseek.o)
 .debug_ranges  0x0000000000000328       0x10 ../build/output/libraries/libframework.a(binary_manager_notify.o)
 .debug_ranges  0x0000000000000338       0x20 ../build/output/libraries/libframework.a(binary_manager_interface.o)
 .debug_ranges  0x0000000000000358       0x28 ../build/output/libraries/libapps.a(init.o)
 .debug_ranges  0x0000000000000380       0x18 ../build/output/libraries/libapps.a(builtin_list.o)
 .debug_ranges  0x0000000000000398       0xf0 ../build/output/libraries/libapps.a(tash_command.o)
 .debug_ranges  0x0000000000000488       0x10 ../build/output/libraries/libapps.a(tash_sleep.o)
 .debug_ranges  0x0000000000000498       0xb8 ../build/output/libraries/libapps.a(tash_main.o)
 .debug_ranges  0x0000000000000550       0x10 ../build/output/libraries/libapps.a(mem_leak_checker_main.o)
 .debug_ranges  0x0000000000000560       0x10 ../build/output/libraries/libapps.a(sysinfo.o)
 .debug_ranges  0x0000000000000570       0x10 ../build/output/libraries/libapps.a(systemcmd.o)
 .debug_ranges  0x0000000000000580       0x68 ../build/output/libraries/libapps.a(security_level_cmd.o)
 .debug_ranges  0x00000000000005e8      0x1b8 ../build/output/libraries/libapps.a(fscmd.o)
 .debug_ranges  0x00000000000007a0      0x100 ../build/output/libraries/libapps.a(netcmd.o)
 .debug_ranges  0x00000000000008a0      0x190 ../build/output/libraries/libapps.a(netcmd_ping.o)
 .debug_ranges  0x0000000000000a30       0x60 ../build/output/libraries/libapps.a(netcmd_netmon.o)
 .debug_ranges  0x0000000000000a90       0x18 ../build/output/libraries/libapps.a(netcmd_dhcpd.o)
 .debug_ranges  0x0000000000000aa8       0x28 ../build/output/libraries/libapps.a(utils_date.o)
 .debug_ranges  0x0000000000000ad0       0x10 ../build/output/libraries/libapps.a(utils_free.o)
 .debug_ranges  0x0000000000000ae0       0x20 ../build/output/libraries/libapps.a(utils_heapinfo.o)
 .debug_ranges  0x0000000000000b00       0x10 ../build/output/libraries/libapps.a(utils_prodconfig.o)
 .debug_ranges  0x0000000000000b10       0x20 ../build/output/libraries/libapps.a(utils_ps.o)
 .debug_ranges  0x0000000000000b30       0x10 ../build/output/libraries/libapps.a(utils_uptime.o)
 .debug_ranges  0x0000000000000b40       0x18 ../build/output/libraries/libapps.a(utils_proc.o)
 .debug_ranges  0x0000000000000b58       0x40 ../build/output/libraries/libapps.a(helloxx_main.o)
 .debug_ranges  0x0000000000000b98       0x10 ../build/output/libraries/libapps.a(hello_main.o)
 .debug_ranges  0x0000000000000ba8       0x10 ../build/output/libraries/libapps.a(tash_init.o)
 .debug_ranges  0x0000000000000bb8       0x28 ../build/output/libraries/libapps.a(tash_pm.o)
 .debug_ranges  0x0000000000000be0       0x30 ../build/output/libraries/libapps.a(netdb_main.o)
 .debug_ranges  0x0000000000000c10       0x20 ../build/output/libraries/libapps.a(fs_getpath.o)
 .debug_ranges  0x0000000000000c30       0x28 ../build/output/libraries/libproxies.a(PROXY_boardctl.o)
 .debug_ranges  0x0000000000000c58       0x28 ../build/output/libraries/libproxies.a(PROXY_clock.o)
 .debug_ranges  0x0000000000000c80       0x28 ../build/output/libraries/libproxies.a(PROXY_clock_gettime.o)
 .debug_ranges  0x0000000000000ca8       0x28 ../build/output/libraries/libproxies.a(PROXY_clock_settime.o)
 .debug_ranges  0x0000000000000cd0       0x28 ../build/output/libraries/libproxies.a(PROXY_close.o)
 .debug_ranges  0x0000000000000cf8       0x28 ../build/output/libraries/libproxies.a(PROXY_closedir.o)
 .debug_ranges  0x0000000000000d20       0x28 ../build/output/libraries/libproxies.a(PROXY_exit.o)
 .debug_ranges  0x0000000000000d48       0x28 ../build/output/libraries/libproxies.a(PROXY_get_errno.o)
 .debug_ranges  0x0000000000000d70       0x28 ../build/output/libraries/libproxies.a(PROXY_getenv.o)
 .debug_ranges  0x0000000000000d98       0x10 ../build/output/libraries/libproxies.a(PROXY_lseek.o)
 .debug_ranges  0x0000000000000da8       0x28 ../build/output/libraries/libproxies.a(PROXY_mkdir.o)
 .debug_ranges  0x0000000000000dd0       0x10 ../build/output/libraries/libproxies.a(PROXY_mount.o)
 .debug_ranges  0x0000000000000de0       0x28 ../build/output/libraries/libproxies.a(PROXY_mq_close.o)
 .debug_ranges  0x0000000000000e08       0x28 ../build/output/libraries/libproxies.a(PROXY_mq_open.o)
 .debug_ranges  0x0000000000000e30       0x10 ../build/output/libraries/libproxies.a(PROXY_mq_receive.o)
 .debug_ranges  0x0000000000000e40       0x10 ../build/output/libraries/libproxies.a(PROXY_mq_send.o)
 .debug_ranges  0x0000000000000e50       0x28 ../build/output/libraries/libproxies.a(PROXY_mq_unlink.o)
 .debug_ranges  0x0000000000000e78       0x28 ../build/output/libraries/libproxies.a(PROXY_nanosleep.o)
 .debug_ranges  0x0000000000000ea0       0x28 ../build/output/libraries/libproxies.a(PROXY_open.o)
 .debug_ranges  0x0000000000000ec8       0x28 ../build/output/libraries/libproxies.a(PROXY_opendir.o)
 .debug_ranges  0x0000000000000ef0       0x30 ../build/output/libraries/libproxies.a(PROXY_prctl.o)
 .debug_ranges  0x0000000000000f20       0x28 ../build/output/libraries/libproxies.a(PROXY_pthread_exit.o)
 .debug_ranges  0x0000000000000f48       0x28 ../build/output/libraries/libproxies.a(PROXY_pthread_mutex_lock.o)
 .debug_ranges  0x0000000000000f70       0x28 ../build/output/libraries/libproxies.a(PROXY_pthread_mutex_unlock.o)
 .debug_ranges  0x0000000000000f98       0x10 ../build/output/libraries/libproxies.a(PROXY_read.o)
 .debug_ranges  0x0000000000000fa8       0x28 ../build/output/libraries/libproxies.a(PROXY_readdir.o)
 .debug_ranges  0x0000000000000fd0       0x10 ../build/output/libraries/libproxies.a(PROXY_recvfrom.o)
 .debug_ranges  0x0000000000000fe0       0x28 ../build/output/libraries/libproxies.a(PROXY_rename.o)
 .debug_ranges  0x0000000000001008       0x28 ../build/output/libraries/libproxies.a(PROXY_rmdir.o)
 .debug_ranges  0x0000000000001030       0x10 ../build/output/libraries/libproxies.a(PROXY_select.o)
 .debug_ranges  0x0000000000001040       0x28 ../build/output/libraries/libproxies.a(PROXY_sem_post.o)
 .debug_ranges  0x0000000000001068       0x28 ../build/output/libraries/libproxies.a(PROXY_sem_wait.o)
 .debug_ranges  0x0000000000001090       0x10 ../build/output/libraries/libproxies.a(PROXY_sendto.o)
 .debug_ranges  0x00000000000010a0       0x28 ../build/output/libraries/libproxies.a(PROXY_set_errno.o)
 .debug_ranges  0x00000000000010c8       0x10 ../build/output/libraries/libproxies.a(PROXY_setsockopt.o)
 .debug_ranges  0x00000000000010d8       0x10 ../build/output/libraries/libproxies.a(PROXY_socket.o)
 .debug_ranges  0x00000000000010e8       0x28 ../build/output/libraries/libproxies.a(PROXY_stat.o)
 .debug_ranges  0x0000000000001110       0x28 ../build/output/libraries/libproxies.a(PROXY_statfs.o)
 .debug_ranges  0x0000000000001138       0x10 ../build/output/libraries/libproxies.a(PROXY_task_create.o)
 .debug_ranges  0x0000000000001148       0x28 ../build/output/libraries/libproxies.a(PROXY_umount.o)
 .debug_ranges  0x0000000000001170       0x28 ../build/output/libraries/libproxies.a(PROXY_unlink.o)
 .debug_ranges  0x0000000000001198       0x28 ../build/output/libraries/libproxies.a(PROXY_up_assert.o)
 .debug_ranges  0x00000000000011c0       0x10 ../build/output/libraries/libproxies.a(PROXY_write.o)
 .debug_ranges  0x00000000000011d0       0x10 ../build/output/libraries/libuc.a(lib_sprintf.o)
 .debug_ranges  0x00000000000011e0       0x10 ../build/output/libraries/libuc.a(lib_asprintf.o)
 .debug_ranges  0x00000000000011f0       0x10 ../build/output/libraries/libuc.a(lib_snprintf.o)
 .debug_ranges  0x0000000000001200       0x10 ../build/output/libraries/libuc.a(lib_vasprintf.o)
 .debug_ranges  0x0000000000001210       0x18 ../build/output/libraries/libuc.a(lib_memoutstream.o)
 .debug_ranges  0x0000000000001228       0x18 ../build/output/libraries/libuc.a(lib_nulloutstream.o)
 .debug_ranges  0x0000000000001240       0x10 ../build/output/libraries/libuc.a(lib_fwrite.o)
 .debug_ranges  0x0000000000001250       0x10 ../build/output/libraries/libuc.a(lib_fputs.o)
 .debug_ranges  0x0000000000001260       0x10 ../build/output/libraries/libuc.a(lib_fprintf.o)
 .debug_ranges  0x0000000000001270       0x10 ../build/output/libraries/libuc.a(lib_perror.o)
 .debug_ranges  0x0000000000001280       0x10 ../build/output/libraries/libuc.a(lib_abort.o)
 .debug_ranges  0x0000000000001290       0x28 ../build/output/libraries/libuc.a(lib_strtol.o)
 .debug_ranges  0x00000000000012b8       0x10 ../build/output/libraries/libuc.a(lib_strtoul.o)
 .debug_ranges  0x00000000000012c8       0x10 ../build/output/libraries/libuc.a(lib_checkbase.o)
 .debug_ranges  0x00000000000012d8       0x30 ../build/output/libraries/libuc.a(lib_getopt.o)
 .debug_ranges  0x0000000000001308       0x10 ../build/output/libraries/libuc.a(lib_chdir.o)
 .debug_ranges  0x0000000000001318       0x10 ../build/output/libraries/libuc.a(lib_usleep.o)
 .debug_ranges  0x0000000000001328       0x18 ../build/output/libraries/libuc.a(lib_syslog.o)
 .debug_ranges  0x0000000000001340       0x10 ../build/output/libraries/libuc.a(lib_setlogmask.o)
 .debug_ranges  0x0000000000001350       0x10 ../build/output/libraries/libuc.a(lib_isbasedigit.o)
 .debug_ranges  0x0000000000001360       0x10 ../build/output/libraries/libuc.a(lib_memset.o)
 .debug_ranges  0x0000000000001370       0x10 ../build/output/libraries/libuc.a(lib_memcmp.o)
 .debug_ranges  0x0000000000001380       0x10 ../build/output/libraries/libuc.a(lib_memmove.o)
 .debug_ranges  0x0000000000001390       0x10 ../build/output/libraries/libuc.a(lib_skipspace.o)
 .debug_ranges  0x00000000000013a0       0x10 ../build/output/libraries/libuc.a(lib_strchr.o)
 .debug_ranges  0x00000000000013b0       0x10 ../build/output/libraries/libuc.a(lib_strcmp.o)
 .debug_ranges  0x00000000000013c0       0x10 ../build/output/libraries/libuc.a(lib_strdup.o)
 .debug_ranges  0x00000000000013d0       0x10 ../build/output/libraries/libuc.a(lib_strerror.o)
 .debug_ranges  0x00000000000013e0       0x10 ../build/output/libraries/libuc.a(lib_strlen.o)
 .debug_ranges  0x00000000000013f0       0x48 ../build/output/libraries/libuc.a(lib_strncasecmp.o)
 .debug_ranges  0x0000000000001438       0x10 ../build/output/libraries/libuc.a(lib_strncmp.o)
 .debug_ranges  0x0000000000001448       0x10 ../build/output/libraries/libuc.a(lib_strncpy.o)
 .debug_ranges  0x0000000000001458       0x10 ../build/output/libraries/libuc.a(lib_strstr.o)
 .debug_ranges  0x0000000000001468       0x10 ../build/output/libraries/libuc.a(lib_strtokr.o)
 .debug_ranges  0x0000000000001478       0x68 ../build/output/libraries/libuc.a(lib_vikmemcpy.o)
 .debug_ranges  0x00000000000014e0       0x10 ../build/output/libraries/libuc.a(lib_etherntoa.o)
 .debug_ranges  0x00000000000014f0       0x10 ../build/output/libraries/libuc.a(lib_inetaddr.o)
 .debug_ranges  0x0000000000001500       0x10 ../build/output/libraries/libuc.a(lib_inetntoa.o)
 .debug_ranges  0x0000000000001510       0x40 ../build/output/libraries/libuc.a(lib_inetntop.o)
 .debug_ranges  0x0000000000001550       0x50 ../build/output/libraries/libuc.a(lib_inetpton.o)
 .debug_ranges  0x00000000000015a0       0x10 ../build/output/libraries/libuc.a(lib_freeaddrinfo.o)
 .debug_ranges  0x00000000000015b0       0x10 ../build/output/libraries/libuc.a(lib_getaddrinfo.o)
 .debug_ranges  0x00000000000015c0       0x10 ../build/output/libraries/libuc.a(lib_gethostbyname.o)
 .debug_ranges  0x00000000000015d0       0x38 ../build/output/libraries/libuc.a(lib_strftime.o)
 .debug_ranges  0x0000000000001608       0x10 ../build/output/libraries/libuc.a(lib_daysbeforemonth.o)
 .debug_ranges  0x0000000000001618       0x10 ../build/output/libraries/libuc.a(lib_isleapyear.o)
 .debug_ranges  0x0000000000001628       0x10 ../build/output/libraries/libuc.a(lib_time.o)
 .debug_ranges  0x0000000000001638      0x368 ../build/output/libraries/libuc.a(lib_localtime.o)
 .debug_ranges  0x00000000000019a0       0x10 ../build/output/libraries/libuc.a(lib_dirname.o)
 .debug_ranges  0x00000000000019b0       0x10 ../build/output/libraries/libuc.a(lib_ioctl.o)
 .debug_ranges  0x00000000000019c0       0xe8 ../build/output/libraries/libuc.a(lib_sscanf.o)
 .debug_ranges  0x0000000000001aa8       0x18 ../build/output/libraries/libuc.a(lib_rawoutstream.o)
 .debug_ranges  0x0000000000001ac0       0x28 ../build/output/libraries/libuc.a(lib_strtoll.o)
 .debug_ranges  0x0000000000001ae8       0x10 ../build/output/libraries/libuc.a(lib_strtoull.o)
 .debug_ranges  0x0000000000001af8       0x28 ../build/output/libraries/libuc.a(lib_strtod.o)
 .debug_ranges  0x0000000000001b20       0x28 ../build/output/libraries/libuc.a(lib_strtof.o)
 .debug_ranges  0x0000000000001b48       0x10 ../build/output/libraries/libuc.a(lib_access.o)
 .debug_ranges  0x0000000000001b58       0x10 ../build/output/libraries/libuc.a(lib_strcspn.o)
 .debug_ranges  0x0000000000001b68       0x10 ../build/output/libraries/libuc.a(lib_strncat.o)
 .debug_ranges  0x0000000000001b78       0x10 ../build/output/libraries/libuc.a(lib_strrchr.o)
 .debug_ranges  0x0000000000001b88       0x10 ../build/output/libraries/libuc.a(lib_htons.o)
 .debug_ranges  0x0000000000001b98       0x58 ../build/output/libraries/libumm.a(mm_heapinfo_utils.o)
 .debug_ranges  0x0000000000001bf0       0x10 ../build/output/libraries/libumm.a(umm_free.o)
 .debug_ranges  0x0000000000001c00       0x10 ../build/output/libraries/libumm.a(umm_malloc.o)
 .debug_ranges  0x0000000000001c10       0x10 ../build/output/libraries/libumm.a(umm_realloc.o)
 .debug_ranges  0x0000000000001c20       0x10 ../build/output/libraries/libumm.a(umm_zalloc.o)
 .debug_ranges  0x0000000000001c30       0x48 ../build/output/libraries/libumm.a(mm_sem.o)
 .debug_ranges  0x0000000000001c78       0x10 ../build/output/libraries/libumm.a(mm_free.o)
 .debug_ranges  0x0000000000001c88       0x10 ../build/output/libraries/libumm.a(mm_malloc.o)
 .debug_ranges  0x0000000000001c98       0x68 ../build/output/libraries/libumm.a(mm_realloc.o)
 .debug_ranges  0x0000000000001d00       0x10 ../build/output/libraries/libumm.a(mm_zalloc.o)
 .debug_ranges  0x0000000000001d10       0x20 ../build/output/libraries/libumm.a(mm_getheap.o)
 .debug_ranges  0x0000000000001d30       0x10 ../build/output/libraries/libumm.a(mm_manage_allocfail.o)
 .debug_ranges  0x0000000000001d40       0x30 ../build/output/libraries/libumm.a(mm_heap_dbg.o)
 .debug_ranges  0x0000000000001d70       0x10 ../build/output/libraries/libumm.a(umm_initialize.o)
 .debug_ranges  0x0000000000001d80       0x18 ../build/output/libraries/libumm.a(mm_initialize.o)
 .debug_ranges  0x0000000000001d98       0x10 ../build/output/libraries/libumm.a(mm_addfreechunk.o)
 .debug_ranges  0x0000000000001da8       0x10 ../build/output/libraries/libumm.a(mm_size2ndx.o)
 .debug_ranges  0x0000000000001db8       0x30 ../build/output/libraries/libumm.a(mm_shrinkchunk.o)
 .debug_ranges  0x0000000000001de8       0x28 ../build/output/libraries/libuwque.a(uwork_thread.o)
 .debug_ranges  0x0000000000001e10       0x10 ../build/output/libraries/libuwque.a(work_process.o)
 .debug_ranges  0x0000000000001e20       0x18 ../build/output/libraries/libuwque.a(uwork_lock.o)
 .debug_ranges  0x0000000000001e38       0x38 ../build/output/libraries/libframework.a(wifi_manager_msghandler.o)
 .debug_ranges  0x0000000000001e70       0x40 ../build/output/libraries/libframework.a(security_common.o)
 .debug_ranges  0x0000000000001eb0       0x70 ../build/output/libraries/libframework.a(security_utils.o)
 .debug_ranges  0x0000000000001f20       0xd8 ../build/output/libraries/libframework.a(security_ss.o)
 .debug_ranges  0x0000000000001ff8       0x38 ../build/output/libraries/libframework.a(ble_manager_msghandler.o)
 .debug_ranges  0x0000000000002030      0x458 ../build/output/libraries/libframework.a(seclink.o)
 .debug_ranges  0x0000000000002488       0x98 ../build/output/libraries/libframework.a(wifi_manager_message.o)
 .debug_ranges  0x0000000000002520      0x3d8 ../build/output/libraries/libframework.a(wifi_manager_state.o)
 .debug_ranges  0x00000000000028f8       0x18 ../build/output/libraries/libframework.a(wifi_manager_stats.o)
 .debug_ranges  0x0000000000002910       0x10 ../build/output/libraries/libframework.a(wifi_manager_event.o)
 .debug_ranges  0x0000000000002920       0x20 ../build/output/libraries/libframework.a(wifi_manager_utils.o)
 .debug_ranges  0x0000000000002940       0x18 ../build/output/libraries/libframework.a(wifi_manager_info.o)
 .debug_ranges  0x0000000000002958       0x30 ../build/output/libraries/libframework.a(wifi_manager_dhcpc.o)
 .debug_ranges  0x0000000000002988       0xb0 ../build/output/libraries/libframework.a(wifi_manager_dhcps.o)
 .debug_ranges  0x0000000000002a38       0x70 ../build/output/libraries/libframework.a(wifi_manager_lwnl.o)
 .debug_ranges  0x0000000000002aa8      0x110 ../build/output/libraries/libframework.a(wifi_manager_lwnl_listener.o)
 .debug_ranges  0x0000000000002bb8       0x80 ../build/output/libraries/libframework.a(ble_manager_message.o)
 .debug_ranges  0x0000000000002c38      0x180 ../build/output/libraries/libframework.a(wifi_manager_cb.o)
 .debug_ranges  0x0000000000002db8       0x40 ../build/output/libraries/libframework.a(ble_manager_lwnl_listener.o)
 .debug_ranges  0x0000000000002df8      0x270 ../build/output/libraries/libframework.a(ble_manager_state.o)
 .debug_ranges  0x0000000000003068       0x28 ../build/output/libraries/libframework.a(ble_manager_autoconnect.o)
 .debug_ranges  0x0000000000003090       0x88 ../build/output/libraries/libframework.a(ble_queue.o)
 .debug_ranges  0x0000000000003118      0x1b0 ../build/output/libraries/libframework.a(ble_manager_api.o)
 .debug_ranges  0x00000000000032c8      0x188 ../build/output/libraries/libframework.a(ble_manager_lwnl.o)
 .debug_ranges  0x0000000000003450       0x30 ../build/output/libraries/libcxx.a(libxx_cxa_atexit.o)
 .debug_ranges  0x0000000000003480       0x18 ../build/output/libraries/libexternal.a(netlib.o)
 .debug_ranges  0x0000000000003498       0x18 ../build/output/libraries/libexternal.a(netlib_setifstatus.o)
 .debug_ranges  0x00000000000034b0       0x10 ../build/output/libraries/libexternal.a(netlib_getifstatus.o)
 .debug_ranges  0x00000000000034c0       0x48 ../build/output/libraries/libexternal.a(netlib_getifaddrs.o)
 .debug_ranges  0x0000000000003508       0x10 ../build/output/libraries/libexternal.a(netlib_getstats.o)
 .debug_ranges  0x0000000000003518       0x18 ../build/output/libraries/libexternal.a(netlib_netmon.o)
 .debug_ranges  0x0000000000003530       0x10 ../build/output/libraries/libexternal.a(netlib_setipv4addr.o)
 .debug_ranges  0x0000000000003540       0x40 ../build/output/libraries/libexternal.a(netlib_getipv4addr.o)
 .debug_ranges  0x0000000000003580       0x10 ../build/output/libraries/libexternal.a(netlib_setdripv4addr.o)
 .debug_ranges  0x0000000000003590       0x10 ../build/output/libraries/libexternal.a(netlib_setipv4netmask.o)
 .debug_ranges  0x00000000000035a0       0x10 ../build/output/libraries/libexternal.a(netlib_setipv6addr.o)
 .debug_ranges  0x00000000000035b0       0x18 ../build/output/libraries/libexternal.a(netlib_setmacaddr.o)
 .debug_ranges  0x00000000000035c8       0x10 ../build/output/libraries/libexternal.a(netlib_getmacaddr.o)
 .debug_ranges  0x00000000000035d8       0x10 ../build/output/libraries/libexternal.a(netlib_setdnsserver.o)
 .debug_ranges  0x00000000000035e8      0x170 ../build/output/libraries/libexternal.a(dhcpd_lwip.o)
 .debug_ranges  0x0000000000003758       0x20 ../build/output/libraries/libexternal.a(dhcpc_lwip.o)
 .debug_ranges  0x0000000000003778       0x10 ../build/output/libraries/libproxies.a(PROXY_bind.o)
 .debug_ranges  0x0000000000003788       0x10 ../build/output/libraries/libproxies.a(PROXY_fs_ioctl.o)
 .debug_ranges  0x0000000000003798       0x28 ../build/output/libraries/libproxies.a(PROXY_gettimeofday.o)
 .debug_ranges  0x00000000000037c0       0x28 ../build/output/libraries/libproxies.a(PROXY_mkfifo.o)
 .debug_ranges  0x00000000000037e8       0x28 ../build/output/libraries/libproxies.a(PROXY_mq_getattr.o)
 .debug_ranges  0x0000000000003810       0x10 ../build/output/libraries/libproxies.a(PROXY_mq_timedreceive.o)
 .debug_ranges  0x0000000000003820       0x28 ../build/output/libraries/libproxies.a(PROXY_on_exit.o)
 .debug_ranges  0x0000000000003848       0x10 ../build/output/libraries/libproxies.a(PROXY_pthread_create.o)
 .debug_ranges  0x0000000000003858       0x28 ../build/output/libraries/libproxies.a(PROXY_pthread_detach.o)
 .debug_ranges  0x0000000000003880       0x28 ../build/output/libraries/libproxies.a(PROXY_pthread_join.o)
 .debug_ranges  0x00000000000038a8       0x28 ../build/output/libraries/libproxies.a(PROXY_sched_lock.o)
 .debug_ranges  0x00000000000038d0       0x28 ../build/output/libraries/libproxies.a(PROXY_sched_unlock.o)
 .debug_ranges  0x00000000000038f8       0x28 ../build/output/libraries/libproxies.a(PROXY_sem_destroy.o)
 .debug_ranges  0x0000000000003920       0x28 ../build/output/libraries/libproxies.a(PROXY_sem_trywait.o)
 .debug_ranges  0x0000000000003948       0x10 ../build/output/libraries/libproxies.a(PROXY_setenv.o)
 .debug_ranges  0x0000000000003958       0x28 ../build/output/libraries/libproxies.a(PROXY_sigwaitinfo.o)
 .debug_ranges  0x0000000000003980       0x18 ../build/output/libraries/libuc.a(lib_lowsyslog.o)
 .debug_ranges  0x0000000000003998       0x10 ../build/output/libraries/libuc.a(pthread_attrinit.o)
 .debug_ranges  0x00000000000039a8       0x10 ../build/output/libraries/libuc.a(pthread_attrsetstacksize.o)
 .debug_ranges  0x00000000000039b8       0x10 ../build/output/libraries/libuc.a(pthread_attrsetschedparam.o)
 .debug_ranges  0x00000000000039c8       0x10 ../build/output/libraries/libuc.a(sig_addset.o)
 .debug_ranges  0x00000000000039d8       0x10 ../build/output/libraries/libuc.a(sig_emptyset.o)
 .debug_ranges  0x00000000000039e8       0x10 ../build/output/libraries/libuc.a(dq_rem.o)
 .debug_ranges  0x00000000000039f8       0x18 ../build/output/libraries/libuc.a(lib_lowoutstream.o)
 .debug_ranges  0x0000000000003a10       0x10 ../build/output/libraries/libumm.a(umm_calloc.o)
 .debug_ranges  0x0000000000003a20       0x10 ../build/output/libraries/libumm.a(mm_calloc.o)

.debug_frame    0x0000000000000000     0x6d14
 .debug_frame   0x0000000000000000       0x28 ../build/output/libraries/libproxies.a(PROXY_getpid.o)
 .debug_frame   0x0000000000000028       0x28 ../build/output/libraries/libproxies.a(PROXY_sched_getstreams.o)
 .debug_frame   0x0000000000000050       0x44 ../build/output/libraries/libuc.a(lib_printf.o)
 .debug_frame   0x0000000000000094       0x28 ../build/output/libraries/libuc.a(lib_fgetc.o)
 .debug_frame   0x00000000000000bc       0x34 ../build/output/libraries/libuc.a(lib_vfprintf.o)
 .debug_frame   0x00000000000000f0       0x4c ../build/output/libraries/libuc.a(lib_stdoutstream.o)
 .debug_frame   0x000000000000013c       0x20 ../build/output/libraries/libuc.a(lib_libnoflush.o)
 .debug_frame   0x000000000000015c       0x30 ../build/output/libraries/libuc.a(lib_sleep.o)
 .debug_frame   0x000000000000018c       0x28 ../build/output/libraries/libuc.a(task_startup.o)
 .debug_frame   0x00000000000001b4       0x2c ../build/output/libraries/libuc.a(pthread_startup.o)
 .debug_frame   0x00000000000001e0       0x64 ../build/output/libraries/libuc.a(lib_filesem.o)
 .debug_frame   0x0000000000000244       0x40 ../build/output/libraries/libuc.a(lib_libvsprintf.o)
 .debug_frame   0x0000000000000284       0x30 ../build/output/libraries/libuc.a(lib_libfread.o)
 .debug_frame   0x00000000000002b4       0x30 ../build/output/libraries/libuc.a(lib_libfflush.o)
 .debug_frame   0x00000000000002e4       0x20 ../build/output/libraries/libuc.a(lib_wrflush.o)
 .debug_frame   0x0000000000000304       0x30 ../build/output/libraries/libuc.a(lib_fputc.o)
 .debug_frame   0x0000000000000334       0x28 ../build/output/libraries/libuc.a(lib_strnlen.o)
 .debug_frame   0x000000000000035c       0x28 ../build/output/libraries/libuc.a(sem_init.o)
 .debug_frame   0x0000000000000384       0x3c ../build/output/libraries/libuc.a(lib_dtoa_engine.o)
 .debug_frame   0x00000000000003c0       0x34 ../build/output/libraries/libuc.a(lib_ultoa_invert.o)
 .debug_frame   0x00000000000003f4       0x30 ../build/output/libraries/libuc.a(lib_libfwrite.o)
 .debug_frame   0x0000000000000424       0x28 ../build/output/libraries/libuc.a(lib_rdflush.o)
 .debug_frame   0x000000000000044c       0x2c ../build/output/libraries/libuc.a(lib_fseek.o)
 .debug_frame   0x0000000000000478       0x30 ../build/output/libraries/libframework.a(binary_manager_notify.o)
 .debug_frame   0x00000000000004a8       0x70 ../build/output/libraries/libframework.a(binary_manager_interface.o)
 .debug_frame   0x0000000000000518       0x28 ../build/output/libraries/libapps.a(init.o)
 .debug_frame   0x0000000000000540       0x38 ../build/output/libraries/libapps.a(builtin_list.o)
 .debug_frame   0x0000000000000578      0x1b0 ../build/output/libraries/libapps.a(tash_command.o)
 .debug_frame   0x0000000000000728       0x30 ../build/output/libraries/libapps.a(tash_sleep.o)
 .debug_frame   0x0000000000000758      0x104 ../build/output/libraries/libapps.a(tash_main.o)
 .debug_frame   0x000000000000085c       0x28 ../build/output/libraries/libapps.a(mem_leak_checker_main.o)
 .debug_frame   0x0000000000000884       0x2c ../build/output/libraries/libapps.a(sysinfo.o)
 .debug_frame   0x00000000000008b0       0x20 ../build/output/libraries/libapps.a(systemcmd.o)
 .debug_frame   0x00000000000008d0       0x60 ../build/output/libraries/libapps.a(security_level_cmd.o)
 .debug_frame   0x0000000000000930      0x38c ../build/output/libraries/libapps.a(fscmd.o)
 .debug_frame   0x0000000000000cbc       0xc8 ../build/output/libraries/libapps.a(netcmd.o)
 .debug_frame   0x0000000000000d84       0x90 ../build/output/libraries/libapps.a(netcmd_ping.o)
 .debug_frame   0x0000000000000e14       0x48 ../build/output/libraries/libapps.a(netcmd_netmon.o)
 .debug_frame   0x0000000000000e5c       0x50 ../build/output/libraries/libapps.a(netcmd_dhcpd.o)
 .debug_frame   0x0000000000000eac       0x3c ../build/output/libraries/libapps.a(utils_date.o)
 .debug_frame   0x0000000000000ee8       0x34 ../build/output/libraries/libapps.a(utils_free.o)
 .debug_frame   0x0000000000000f1c       0x88 ../build/output/libraries/libapps.a(utils_heapinfo.o)
 .debug_frame   0x0000000000000fa4       0x30 ../build/output/libraries/libapps.a(utils_prodconfig.o)
 .debug_frame   0x0000000000000fd4       0x78 ../build/output/libraries/libapps.a(utils_ps.o)
 .debug_frame   0x000000000000104c       0x28 ../build/output/libraries/libapps.a(utils_uptime.o)
 .debug_frame   0x0000000000001074       0x54 ../build/output/libraries/libapps.a(utils_proc.o)
 .debug_frame   0x00000000000010c8       0x58 ../build/output/libraries/libapps.a(helloxx_main.o)
 .debug_frame   0x0000000000001120       0x28 ../build/output/libraries/libapps.a(hello_main.o)
 .debug_frame   0x0000000000001148       0x28 ../build/output/libraries/libapps.a(tash_init.o)
 .debug_frame   0x0000000000001170       0x78 ../build/output/libraries/libapps.a(tash_pm.o)
 .debug_frame   0x00000000000011e8       0x54 ../build/output/libraries/libapps.a(netdb_main.o)
 .debug_frame   0x000000000000123c       0x78 ../build/output/libraries/libapps.a(fs_getpath.o)
 .debug_frame   0x00000000000012b4       0xac /bin/../lib/gcc/arm-none-eabi/10.3.1/thumb/v8-a+simd/hard/libgcc.a(_arm_addsubdf3.o)
 .debug_frame   0x0000000000001360       0x44 /bin/../lib/gcc/arm-none-eabi/10.3.1/thumb/v8-a+simd/hard/libgcc.a(_aeabi_ldivmod.o)
 .debug_frame   0x00000000000013a4       0x2c /bin/../lib/gcc/arm-none-eabi/10.3.1/thumb/v8-a+simd/hard/libgcc.a(_aeabi_uldivmod.o)
 .debug_frame   0x00000000000013d0       0x20 /bin/../lib/gcc/arm-none-eabi/10.3.1/thumb/v8-a+simd/hard/libgcc.a(_fixunsdfdi.o)
 .debug_frame   0x00000000000013f0       0x48 /bin/../lib/gcc/arm-none-eabi/10.3.1/thumb/v8-a+simd/hard/libgcc.a(_udivmoddi4.o)
 .debug_frame   0x0000000000001438      0x2e4 /bin/../lib/gcc/arm-none-eabi/10.3.1/thumb/v8-a+simd/hard/libgcc.a(unwind-arm.o)
 .debug_frame   0x000000000000171c       0xf8 /bin/../lib/gcc/arm-none-eabi/10.3.1/thumb/v8-a+simd/hard/libgcc.a(pr-support.o)
 .debug_frame   0x0000000000001814       0x20 /bin/../lib/gcc/arm-none-eabi/10.3.1/../../../../arm-none-eabi/lib/thumb/v8-a+simd/hard/libsupc++.a(atexit_arm.o)
 .debug_frame   0x0000000000001834       0x20 /bin/../lib/gcc/arm-none-eabi/10.3.1/../../../../arm-none-eabi/lib/thumb/v8-a+simd/hard/libsupc++.a(del_op.o)
 .debug_frame   0x0000000000001854       0x28 /bin/../lib/gcc/arm-none-eabi/10.3.1/../../../../arm-none-eabi/lib/thumb/v8-a+simd/hard/libsupc++.a(new_op.o)
 .debug_frame   0x000000000000187c       0x50 /bin/../lib/gcc/arm-none-eabi/10.3.1/../../../../arm-none-eabi/lib/thumb/v8-a+simd/hard/libsupc++.a(bad_alloc.o)
 .debug_frame   0x00000000000018cc       0x20 /bin/../lib/gcc/arm-none-eabi/10.3.1/../../../../arm-none-eabi/lib/thumb/v8-a+simd/hard/libsupc++.a(del_ops.o)
 .debug_frame   0x00000000000018ec       0xe8 /bin/../lib/gcc/arm-none-eabi/10.3.1/../../../../arm-none-eabi/lib/thumb/v8-a+simd/hard/libsupc++.a(eh_alloc.o)
 .debug_frame   0x00000000000019d4       0xf0 /bin/../lib/gcc/arm-none-eabi/10.3.1/../../../../arm-none-eabi/lib/thumb/v8-a+simd/hard/libsupc++.a(eh_exception.o)
 .debug_frame   0x0000000000001ac4       0xb0 /bin/../lib/gcc/arm-none-eabi/10.3.1/../../../../arm-none-eabi/lib/thumb/v8-a+simd/hard/libsupc++.a(eh_terminate.o)
 .debug_frame   0x0000000000001b74       0x80 /bin/../lib/gcc/arm-none-eabi/10.3.1/../../../../arm-none-eabi/lib/thumb/v8-a+simd/hard/libsupc++.a(eh_throw.o)
 .debug_frame   0x0000000000001bf4       0x30 /bin/../lib/gcc/arm-none-eabi/10.3.1/../../../../arm-none-eabi/lib/thumb/v8-a+simd/hard/libsupc++.a(new_handler.o)
 .debug_frame   0x0000000000001c24       0x40 /bin/../lib/gcc/arm-none-eabi/10.3.1/../../../../arm-none-eabi/lib/thumb/v8-a+simd/hard/libsupc++.a(pure.o)
 .debug_frame   0x0000000000001c64       0xdc /bin/../lib/gcc/arm-none-eabi/10.3.1/../../../../arm-none-eabi/lib/thumb/v8-a+simd/hard/libsupc++.a(si_class_type_info.o)
 .debug_frame   0x0000000000001d40       0x90 /bin/../lib/gcc/arm-none-eabi/10.3.1/../../../../arm-none-eabi/lib/thumb/v8-a+simd/hard/libsupc++.a(tinfo.o)
 .debug_frame   0x0000000000001dd0       0x30 /bin/../lib/gcc/arm-none-eabi/10.3.1/../../../../arm-none-eabi/lib/thumb/v8-a+simd/hard/libsupc++.a(vterminate.o)
 .debug_frame   0x0000000000001e00      0x9ac /bin/../lib/gcc/arm-none-eabi/10.3.1/../../../../arm-none-eabi/lib/thumb/v8-a+simd/hard/libsupc++.a(cp-demangle.o)
 .debug_frame   0x00000000000027ac       0xdc /bin/../lib/gcc/arm-none-eabi/10.3.1/../../../../arm-none-eabi/lib/thumb/v8-a+simd/hard/libsupc++.a(class_type_info.o)
 .debug_frame   0x0000000000002888       0x6c /bin/../lib/gcc/arm-none-eabi/10.3.1/../../../../arm-none-eabi/lib/thumb/v8-a+simd/hard/libsupc++.a(eh_arm.o)
 .debug_frame   0x00000000000028f4       0x60 /bin/../lib/gcc/arm-none-eabi/10.3.1/../../../../arm-none-eabi/lib/thumb/v8-a+simd/hard/libsupc++.a(eh_call.o)
 .debug_frame   0x0000000000002954       0x94 /bin/../lib/gcc/arm-none-eabi/10.3.1/../../../../arm-none-eabi/lib/thumb/v8-a+simd/hard/libsupc++.a(eh_catch.o)
 .debug_frame   0x00000000000029e8       0x30 /bin/../lib/gcc/arm-none-eabi/10.3.1/../../../../arm-none-eabi/lib/thumb/v8-a+simd/hard/libsupc++.a(eh_globals.o)
 .debug_frame   0x0000000000002a18       0xac /bin/../lib/gcc/arm-none-eabi/10.3.1/../../../../arm-none-eabi/lib/thumb/v8-a+simd/hard/libsupc++.a(eh_personality.o)
 .debug_frame   0x0000000000002ac4       0x28 /bin/../lib/gcc/arm-none-eabi/10.3.1/../../../../arm-none-eabi/lib/thumb/v8-a+simd/hard/libsupc++.a(eh_type.o)
 .debug_frame   0x0000000000002aec       0x28 ../build/output/libraries/libproxies.a(PROXY_boardctl.o)
 .debug_frame   0x0000000000002b14       0x28 ../build/output/libraries/libproxies.a(PROXY_clock.o)
 .debug_frame   0x0000000000002b3c       0x28 ../build/output/libraries/libproxies.a(PROXY_clock_gettime.o)
 .debug_frame   0x0000000000002b64       0x28 ../build/output/libraries/libproxies.a(PROXY_clock_settime.o)
 .debug_frame   0x0000000000002b8c       0x28 ../build/output/libraries/libproxies.a(PROXY_close.o)
 .debug_frame   0x0000000000002bb4       0x28 ../build/output/libraries/libproxies.a(PROXY_closedir.o)
 .debug_frame   0x0000000000002bdc       0x28 ../build/output/libraries/libproxies.a(PROXY_exit.o)
 .debug_frame   0x0000000000002c04       0x28 ../build/output/libraries/libproxies.a(PROXY_get_errno.o)
 .debug_frame   0x0000000000002c2c       0x28 ../build/output/libraries/libproxies.a(PROXY_getenv.o)
 .debug_frame   0x0000000000002c54       0x28 ../build/output/libraries/libproxies.a(PROXY_lseek.o)
 .debug_frame   0x0000000000002c7c       0x28 ../build/output/libraries/libproxies.a(PROXY_mkdir.o)
 .debug_frame   0x0000000000002ca4       0x2c ../build/output/libraries/libproxies.a(PROXY_mount.o)
 .debug_frame   0x0000000000002cd0       0x28 ../build/output/libraries/libproxies.a(PROXY_mq_close.o)
 .debug_frame   0x0000000000002cf8       0x44 ../build/output/libraries/libproxies.a(PROXY_mq_open.o)
 .debug_frame   0x0000000000002d3c       0x2c ../build/output/libraries/libproxies.a(PROXY_mq_receive.o)
 .debug_frame   0x0000000000002d68       0x2c ../build/output/libraries/libproxies.a(PROXY_mq_send.o)
 .debug_frame   0x0000000000002d94       0x28 ../build/output/libraries/libproxies.a(PROXY_mq_unlink.o)
 .debug_frame   0x0000000000002dbc       0x28 ../build/output/libraries/libproxies.a(PROXY_nanosleep.o)
 .debug_frame   0x0000000000002de4       0x44 ../build/output/libraries/libproxies.a(PROXY_open.o)
 .debug_frame   0x0000000000002e28       0x28 ../build/output/libraries/libproxies.a(PROXY_opendir.o)
 .debug_frame   0x0000000000002e50       0x48 ../build/output/libraries/libproxies.a(PROXY_prctl.o)
 .debug_frame   0x0000000000002e98       0x28 ../build/output/libraries/libproxies.a(PROXY_pthread_exit.o)
 .debug_frame   0x0000000000002ec0       0x28 ../build/output/libraries/libproxies.a(PROXY_pthread_mutex_lock.o)
 .debug_frame   0x0000000000002ee8       0x28 ../build/output/libraries/libproxies.a(PROXY_pthread_mutex_unlock.o)
 .debug_frame   0x0000000000002f10       0x28 ../build/output/libraries/libproxies.a(PROXY_read.o)
 .debug_frame   0x0000000000002f38       0x28 ../build/output/libraries/libproxies.a(PROXY_readdir.o)
 .debug_frame   0x0000000000002f60       0x30 ../build/output/libraries/libproxies.a(PROXY_recvfrom.o)
 .debug_frame   0x0000000000002f90       0x28 ../build/output/libraries/libproxies.a(PROXY_rename.o)
 .debug_frame   0x0000000000002fb8       0x28 ../build/output/libraries/libproxies.a(PROXY_rmdir.o)
 .debug_frame   0x0000000000002fe0       0x2c ../build/output/libraries/libproxies.a(PROXY_select.o)
 .debug_frame   0x000000000000300c       0x28 ../build/output/libraries/libproxies.a(PROXY_sem_post.o)
 .debug_frame   0x0000000000003034       0x28 ../build/output/libraries/libproxies.a(PROXY_sem_wait.o)
 .debug_frame   0x000000000000305c       0x30 ../build/output/libraries/libproxies.a(PROXY_sendto.o)
 .debug_frame   0x000000000000308c       0x28 ../build/output/libraries/libproxies.a(PROXY_set_errno.o)
 .debug_frame   0x00000000000030b4       0x2c ../build/output/libraries/libproxies.a(PROXY_setsockopt.o)
 .debug_frame   0x00000000000030e0       0x28 ../build/output/libraries/libproxies.a(PROXY_socket.o)
 .debug_frame   0x0000000000003108       0x28 ../build/output/libraries/libproxies.a(PROXY_stat.o)
 .debug_frame   0x0000000000003130       0x28 ../build/output/libraries/libproxies.a(PROXY_statfs.o)
 .debug_frame   0x0000000000003158       0x2c ../build/output/libraries/libproxies.a(PROXY_task_create.o)
 .debug_frame   0x0000000000003184       0x28 ../build/output/libraries/libproxies.a(PROXY_umount.o)
 .debug_frame   0x00000000000031ac       0x28 ../build/output/libraries/libproxies.a(PROXY_unlink.o)
 .debug_frame   0x00000000000031d4       0x28 ../build/output/libraries/libproxies.a(PROXY_up_assert.o)
 .debug_frame   0x00000000000031fc       0x28 ../build/output/libraries/libproxies.a(PROXY_write.o)
 .debug_frame   0x0000000000003224       0x44 ../build/output/libraries/libuc.a(lib_sprintf.o)
 .debug_frame   0x0000000000003268       0x44 ../build/output/libraries/libuc.a(lib_asprintf.o)
 .debug_frame   0x00000000000032ac       0x3c ../build/output/libraries/libuc.a(lib_snprintf.o)
 .debug_frame   0x00000000000032e8       0x38 ../build/output/libraries/libuc.a(lib_vasprintf.o)
 .debug_frame   0x0000000000003320       0x3c ../build/output/libraries/libuc.a(lib_memoutstream.o)
 .debug_frame   0x000000000000335c       0x38 ../build/output/libraries/libuc.a(lib_nulloutstream.o)
 .debug_frame   0x0000000000003394       0x28 ../build/output/libraries/libuc.a(lib_fwrite.o)
 .debug_frame   0x00000000000033bc       0x2c ../build/output/libraries/libuc.a(lib_fputs.o)
 .debug_frame   0x00000000000033e8       0x3c ../build/output/libraries/libuc.a(lib_fprintf.o)
 .debug_frame   0x0000000000003424       0x34 ../build/output/libraries/libuc.a(lib_perror.o)
 .debug_frame   0x0000000000003458       0x28 ../build/output/libraries/libuc.a(lib_abort.o)
 .debug_frame   0x0000000000003480       0x34 ../build/output/libraries/libuc.a(lib_strtol.o)
 .debug_frame   0x00000000000034b4       0x34 ../build/output/libraries/libuc.a(lib_strtoul.o)
 .debug_frame   0x00000000000034e8       0x2c ../build/output/libraries/libuc.a(lib_checkbase.o)
 .debug_frame   0x0000000000003514       0x30 ../build/output/libraries/libuc.a(lib_getopt.o)
 .debug_frame   0x0000000000003544       0x34 ../build/output/libraries/libuc.a(lib_chdir.o)
 .debug_frame   0x0000000000003578       0x28 ../build/output/libraries/libuc.a(lib_usleep.o)
 .debug_frame   0x00000000000035a0       0x5c ../build/output/libraries/libuc.a(lib_syslog.o)
 .debug_frame   0x00000000000035fc       0x20 ../build/output/libraries/libuc.a(lib_setlogmask.o)
 .debug_frame   0x000000000000361c       0x20 ../build/output/libraries/libuc.a(lib_isbasedigit.o)
 .debug_frame   0x000000000000363c       0x30 ../build/output/libraries/libuc.a(lib_memset.o)
 .debug_frame   0x000000000000366c       0x28 ../build/output/libraries/libuc.a(lib_memcmp.o)
 .debug_frame   0x0000000000003694       0x28 ../build/output/libraries/libuc.a(lib_memmove.o)
 .debug_frame   0x00000000000036bc       0x20 ../build/output/libraries/libuc.a(lib_skipspace.o)
 .debug_frame   0x00000000000036dc       0x20 ../build/output/libraries/libuc.a(lib_strchr.o)
 .debug_frame   0x00000000000036fc       0x20 ../build/output/libraries/libuc.a(lib_strcmp.o)
 .debug_frame   0x000000000000371c       0x30 ../build/output/libraries/libuc.a(lib_strdup.o)
 .debug_frame   0x000000000000374c       0x2c ../build/output/libraries/libuc.a(lib_strerror.o)
 .debug_frame   0x0000000000003778       0x20 ../build/output/libraries/libuc.a(lib_strlen.o)
 .debug_frame   0x0000000000003798       0x2c ../build/output/libraries/libuc.a(lib_strncasecmp.o)
 .debug_frame   0x00000000000037c4       0x28 ../build/output/libraries/libuc.a(lib_strncmp.o)
 .debug_frame   0x00000000000037ec       0x28 ../build/output/libraries/libuc.a(lib_strncpy.o)
 .debug_frame   0x0000000000003814       0x30 ../build/output/libraries/libuc.a(lib_strstr.o)
 .debug_frame   0x0000000000003844       0x30 ../build/output/libraries/libuc.a(lib_strtokr.o)
 .debug_frame   0x0000000000003874       0x34 ../build/output/libraries/libuc.a(lib_vikmemcpy.o)
 .debug_frame   0x00000000000038a8       0x30 ../build/output/libraries/libuc.a(lib_etherntoa.o)
 .debug_frame   0x00000000000038d8       0x2c ../build/output/libraries/libuc.a(lib_inetaddr.o)
 .debug_frame   0x0000000000003904       0x2c ../build/output/libraries/libuc.a(lib_inetntoa.o)
 .debug_frame   0x0000000000003930       0x40 ../build/output/libraries/libuc.a(lib_inetntop.o)
 .debug_frame   0x0000000000003970       0x40 ../build/output/libraries/libuc.a(lib_inetpton.o)
 .debug_frame   0x00000000000039b0       0x48 ../build/output/libraries/libuc.a(lib_freeaddrinfo.o)
 .debug_frame   0x00000000000039f8       0x38 ../build/output/libraries/libuc.a(lib_getaddrinfo.o)
 .debug_frame   0x0000000000003a30       0x34 ../build/output/libraries/libuc.a(lib_gethostbyname.o)
 .debug_frame   0x0000000000003a64       0x3c ../build/output/libraries/libuc.a(lib_strftime.o)
 .debug_frame   0x0000000000003aa0       0x20 ../build/output/libraries/libuc.a(lib_daysbeforemonth.o)
 .debug_frame   0x0000000000003ac0       0x20 ../build/output/libraries/libuc.a(lib_isleapyear.o)
 .debug_frame   0x0000000000003ae0       0x30 ../build/output/libraries/libuc.a(lib_time.o)
 .debug_frame   0x0000000000003b10      0x37c ../build/output/libraries/libuc.a(lib_localtime.o)
 .debug_frame   0x0000000000003e8c       0x28 ../build/output/libraries/libuc.a(lib_dirname.o)
 .debug_frame   0x0000000000003eb4       0x3c ../build/output/libraries/libuc.a(lib_ioctl.o)
 .debug_frame   0x0000000000003ef0       0xb8 ../build/output/libraries/libuc.a(lib_sscanf.o)
 .debug_frame   0x0000000000003fa8       0x44 ../build/output/libraries/libuc.a(lib_rawoutstream.o)
 .debug_frame   0x0000000000003fec       0x34 ../build/output/libraries/libuc.a(lib_strtoll.o)
 .debug_frame   0x0000000000004020       0x38 ../build/output/libraries/libuc.a(lib_strtoull.o)
 .debug_frame   0x0000000000004058       0x4c ../build/output/libraries/libuc.a(lib_strtod.o)
 .debug_frame   0x00000000000040a4       0x44 ../build/output/libraries/libuc.a(lib_strtof.o)
 .debug_frame   0x00000000000040e8       0x20 ../build/output/libraries/libuc.a(lib_access.o)
 .debug_frame   0x0000000000004108       0x2c ../build/output/libraries/libuc.a(lib_strcspn.o)
 .debug_frame   0x0000000000004134       0x2c ../build/output/libraries/libuc.a(lib_strncat.o)
 .debug_frame   0x0000000000004160       0x2c ../build/output/libraries/libuc.a(lib_strrchr.o)
 .debug_frame   0x000000000000418c       0x30 ../build/output/libraries/libuc.a(lib_htons.o)
 .debug_frame   0x00000000000041bc      0x11c ../build/output/libraries/libumm.a(mm_heapinfo_utils.o)
 .debug_frame   0x00000000000042d8       0x30 ../build/output/libraries/libumm.a(umm_free.o)
 .debug_frame   0x0000000000004308       0x2c ../build/output/libraries/libumm.a(umm_malloc.o)
 .debug_frame   0x0000000000004334       0x2c ../build/output/libraries/libumm.a(umm_realloc.o)
 .debug_frame   0x0000000000004360       0x2c ../build/output/libraries/libumm.a(umm_zalloc.o)
 .debug_frame   0x000000000000438c       0x9c ../build/output/libraries/libumm.a(mm_sem.o)
 .debug_frame   0x0000000000004428       0x3c ../build/output/libraries/libumm.a(mm_free.o)
 .debug_frame   0x0000000000004464       0x30 ../build/output/libraries/libumm.a(mm_malloc.o)
 .debug_frame   0x0000000000004494       0x50 ../build/output/libraries/libumm.a(mm_realloc.o)
 .debug_frame   0x00000000000044e4       0x2c ../build/output/libraries/libumm.a(mm_zalloc.o)
 .debug_frame   0x0000000000004510       0x48 ../build/output/libraries/libumm.a(mm_getheap.o)
 .debug_frame   0x0000000000004558       0x2c ../build/output/libraries/libumm.a(mm_manage_allocfail.o)
 .debug_frame   0x0000000000004584       0x70 ../build/output/libraries/libumm.a(mm_heap_dbg.o)
 .debug_frame   0x00000000000045f4       0x20 ../build/output/libraries/libumm.a(umm_initialize.o)
 .debug_frame   0x0000000000004614       0x54 ../build/output/libraries/libumm.a(mm_initialize.o)
 .debug_frame   0x0000000000004668       0x2c ../build/output/libraries/libumm.a(mm_addfreechunk.o)
 .debug_frame   0x0000000000004694       0x20 ../build/output/libraries/libumm.a(mm_size2ndx.o)
 .debug_frame   0x00000000000046b4       0x3c ../build/output/libraries/libumm.a(mm_shrinkchunk.o)
 .debug_frame   0x00000000000046f0       0x68 ../build/output/libraries/libuwque.a(uwork_thread.o)
 .debug_frame   0x0000000000004758       0x48 ../build/output/libraries/libuwque.a(work_process.o)
 .debug_frame   0x00000000000047a0       0x44 ../build/output/libraries/libuwque.a(uwork_lock.o)
 .debug_frame   0x00000000000047e4       0x70 ../build/output/libraries/libframework.a(wifi_manager_msghandler.o)
 .debug_frame   0x0000000000004854       0x7c ../build/output/libraries/libframework.a(security_common.o)
 .debug_frame   0x00000000000048d0      0x10c ../build/output/libraries/libframework.a(security_utils.o)
 .debug_frame   0x00000000000049dc       0x98 ../build/output/libraries/libframework.a(security_ss.o)
 .debug_frame   0x0000000000004a74       0x70 ../build/output/libraries/libframework.a(ble_manager_msghandler.o)
 .debug_frame   0x0000000000004ae4      0x3d4 ../build/output/libraries/libframework.a(seclink.o)
 .debug_frame   0x0000000000004eb8       0x74 ../build/output/libraries/libframework.a(wifi_manager_message.o)
 .debug_frame   0x0000000000004f2c      0x284 ../build/output/libraries/libframework.a(wifi_manager_state.o)
 .debug_frame   0x00000000000051b0       0x30 ../build/output/libraries/libframework.a(wifi_manager_stats.o)
 .debug_frame   0x00000000000051e0       0x20 ../build/output/libraries/libframework.a(wifi_manager_event.o)
 .debug_frame   0x0000000000005200       0x60 ../build/output/libraries/libframework.a(wifi_manager_utils.o)
 .debug_frame   0x0000000000005260       0x4c ../build/output/libraries/libframework.a(wifi_manager_info.o)
 .debug_frame   0x00000000000052ac       0x44 ../build/output/libraries/libframework.a(wifi_manager_dhcpc.o)
 .debug_frame   0x00000000000052f0       0xc4 ../build/output/libraries/libframework.a(wifi_manager_dhcps.o)
 .debug_frame   0x00000000000053b4      0x17c ../build/output/libraries/libframework.a(wifi_manager_lwnl.o)
 .debug_frame   0x0000000000005530       0x40 ../build/output/libraries/libframework.a(wifi_manager_lwnl_listener.o)
 .debug_frame   0x0000000000005570       0x74 ../build/output/libraries/libframework.a(ble_manager_message.o)
 .debug_frame   0x00000000000055e4       0x90 ../build/output/libraries/libframework.a(wifi_manager_cb.o)
 .debug_frame   0x0000000000005674       0x3c ../build/output/libraries/libframework.a(ble_manager_lwnl_listener.o)
 .debug_frame   0x00000000000056b0       0x94 ../build/output/libraries/libframework.a(ble_manager_state.o)
 .debug_frame   0x0000000000005744       0x8c ../build/output/libraries/libframework.a(ble_manager_autoconnect.o)
 .debug_frame   0x00000000000057d0       0xd0 ../build/output/libraries/libframework.a(ble_queue.o)
 .debug_frame   0x00000000000058a0      0x578 ../build/output/libraries/libframework.a(ble_manager_api.o)
 .debug_frame   0x0000000000005e18      0x580 ../build/output/libraries/libframework.a(ble_manager_lwnl.o)
 .debug_frame   0x0000000000006398       0x54 ../build/output/libraries/libcxx.a(libxx_cxa_atexit.o)
 .debug_frame   0x00000000000063ec       0x4c ../build/output/libraries/libexternal.a(netlib.o)
 .debug_frame   0x0000000000006438       0x58 ../build/output/libraries/libexternal.a(netlib_setifstatus.o)
 .debug_frame   0x0000000000006490       0x34 ../build/output/libraries/libexternal.a(netlib_getifstatus.o)
 .debug_frame   0x00000000000064c4       0x54 ../build/output/libraries/libexternal.a(netlib_getifaddrs.o)
 .debug_frame   0x0000000000006518       0x34 ../build/output/libraries/libexternal.a(netlib_getstats.o)
 .debug_frame   0x000000000000654c       0x58 ../build/output/libraries/libexternal.a(netlib_netmon.o)
 .debug_frame   0x00000000000065a4       0x34 ../build/output/libraries/libexternal.a(netlib_setipv4addr.o)
 .debug_frame   0x00000000000065d8       0x34 ../build/output/libraries/libexternal.a(netlib_getipv4addr.o)
 .debug_frame   0x000000000000660c       0x34 ../build/output/libraries/libexternal.a(netlib_setdripv4addr.o)
 .debug_frame   0x0000000000006640       0x34 ../build/output/libraries/libexternal.a(netlib_setipv4netmask.o)
 .debug_frame   0x0000000000006674       0x34 ../build/output/libraries/libexternal.a(netlib_setipv6addr.o)
 .debug_frame   0x00000000000066a8       0x54 ../build/output/libraries/libexternal.a(netlib_setmacaddr.o)
 .debug_frame   0x00000000000066fc       0x34 ../build/output/libraries/libexternal.a(netlib_getmacaddr.o)
 .debug_frame   0x0000000000006730       0x34 ../build/output/libraries/libexternal.a(netlib_setdnsserver.o)
 .debug_frame   0x0000000000006764       0xf0 ../build/output/libraries/libexternal.a(dhcpd_lwip.o)
 .debug_frame   0x0000000000006854       0x84 ../build/output/libraries/libexternal.a(dhcpc_lwip.o)
 .debug_frame   0x00000000000068d8       0x28 ../build/output/libraries/libproxies.a(PROXY_bind.o)
 .debug_frame   0x0000000000006900       0x28 ../build/output/libraries/libproxies.a(PROXY_fs_ioctl.o)
 .debug_frame   0x0000000000006928       0x28 ../build/output/libraries/libproxies.a(PROXY_gettimeofday.o)
 .debug_frame   0x0000000000006950       0x28 ../build/output/libraries/libproxies.a(PROXY_mkfifo.o)
 .debug_frame   0x0000000000006978       0x28 ../build/output/libraries/libproxies.a(PROXY_mq_getattr.o)
 .debug_frame   0x00000000000069a0       0x2c ../build/output/libraries/libproxies.a(PROXY_mq_timedreceive.o)
 .debug_frame   0x00000000000069cc       0x28 ../build/output/libraries/libproxies.a(PROXY_on_exit.o)
 .debug_frame   0x00000000000069f4       0x2c ../build/output/libraries/libproxies.a(PROXY_pthread_create.o)
 .debug_frame   0x0000000000006a20       0x28 ../build/output/libraries/libproxies.a(PROXY_pthread_detach.o)
 .debug_frame   0x0000000000006a48       0x28 ../build/output/libraries/libproxies.a(PROXY_pthread_join.o)
 .debug_frame   0x0000000000006a70       0x28 ../build/output/libraries/libproxies.a(PROXY_sched_lock.o)
 .debug_frame   0x0000000000006a98       0x28 ../build/output/libraries/libproxies.a(PROXY_sched_unlock.o)
 .debug_frame   0x0000000000006ac0       0x28 ../build/output/libraries/libproxies.a(PROXY_sem_destroy.o)
 .debug_frame   0x0000000000006ae8       0x28 ../build/output/libraries/libproxies.a(PROXY_sem_trywait.o)
 .debug_frame   0x0000000000006b10       0x28 ../build/output/libraries/libproxies.a(PROXY_setenv.o)
 .debug_frame   0x0000000000006b38       0x28 ../build/output/libraries/libproxies.a(PROXY_sigwaitinfo.o)
 .debug_frame   0x0000000000006b60       0x5c ../build/output/libraries/libuc.a(lib_lowsyslog.o)
 .debug_frame   0x0000000000006bbc       0x28 ../build/output/libraries/libuc.a(pthread_attrinit.o)
 .debug_frame   0x0000000000006be4       0x20 ../build/output/libraries/libuc.a(pthread_attrsetstacksize.o)
 .debug_frame   0x0000000000006c04       0x20 ../build/output/libraries/libuc.a(pthread_attrsetschedparam.o)
 .debug_frame   0x0000000000006c24       0x20 ../build/output/libraries/libuc.a(sig_addset.o)
 .debug_frame   0x0000000000006c44       0x20 ../build/output/libraries/libuc.a(sig_emptyset.o)
 .debug_frame   0x0000000000006c64       0x20 ../build/output/libraries/libuc.a(dq_rem.o)
 .debug_frame   0x0000000000006c84       0x30 ../build/output/libraries/libuc.a(lib_lowoutstream.o)
 .debug_frame   0x0000000000006cb4       0x30 ../build/output/libraries/libumm.a(umm_calloc.o)
 .debug_frame   0x0000000000006ce4       0x30 ../build/output/libraries/libumm.a(mm_calloc.o)
